ARM GAS  C:\Users\andrew\AppData\Local\Temp\ccyY92Rm.s 			page 1


   1              		.syntax unified
   2              		.cpu cortex-m0
   3              		.fpu softvfp
   4              		.eabi_attribute 20, 1
   5              		.eabi_attribute 21, 1
   6              		.eabi_attribute 23, 3
   7              		.eabi_attribute 24, 1
   8              		.eabi_attribute 25, 1
   9              		.eabi_attribute 26, 1
  10              		.eabi_attribute 30, 6
  11              		.eabi_attribute 34, 0
  12              		.eabi_attribute 18, 4
  13              		.thumb
  14              		.syntax unified
  15              		.file	"ak_aes_crypto.c"
  16              		.text
  17              	.Ltext0:
  18              		.cfi_sections	.debug_frame
  19              		.section	.text.mem_clean,"ax",%progbits
  20              		.align	2
  21              		.code	16
  22              		.thumb_func
  23              		.type	mem_clean, %function
  24              	mem_clean:
  25              	.LFB1:
  26              		.file 1 "handy.h"
   1:handy.h       **** #ifndef HANDY_H
   2:handy.h       **** #define HANDY_H
   3:handy.h       **** 
   4:handy.h       **** #include <stddef.h>
   5:handy.h       **** #include <stdint.h>
   6:handy.h       **** #include <string.h>
   7:handy.h       **** 
   8:handy.h       **** /*
   9:handy.h       ****  * Handy CPP defines and C inline functions.
  10:handy.h       ****  */
  11:handy.h       **** 
  12:handy.h       **** /* Evaluates to the number of items in array-type variable arr. */
  13:handy.h       **** #define ARRAYCOUNT(arr) (sizeof arr / sizeof arr[0])
  14:handy.h       **** 
  15:handy.h       **** /* Normal MIN/MAX macros.  Evaluate argument expressions only once. */
  16:handy.h       **** #ifndef MIN
  17:handy.h       ****   #define MIN(x, y) \
  18:handy.h       ****     ({ typeof (x) __x = (x); \
  19:handy.h       ****        typeof (y) __y = (y); \
  20:handy.h       ****        __x < __y ? __x : __y; })
  21:handy.h       **** #endif
  22:handy.h       **** #ifndef MAX
  23:handy.h       ****   #define MAX(x, y) \
  24:handy.h       ****     ({ typeof (x) __x = (x); \
  25:handy.h       ****        typeof (y) __y = (y); \
  26:handy.h       ****        __x > __y ? __x : __y; })
  27:handy.h       **** #endif
  28:handy.h       **** 
  29:handy.h       **** /* Swap two values.  Uses GCC type inference magic. */
  30:handy.h       **** #ifndef SWAP
  31:handy.h       ****   #define SWAP(x, y) \
ARM GAS  C:\Users\andrew\AppData\Local\Temp\ccyY92Rm.s 			page 2


  32:handy.h       ****     do { \
  33:handy.h       ****       typeof (x) __tmp = (x); \
  34:handy.h       ****       (x) = (y); \
  35:handy.h       ****       (y) = __tmp; \
  36:handy.h       ****     } while (0)
  37:handy.h       **** #endif
  38:handy.h       **** 
  39:handy.h       **** /** Stringify its argument. */
  40:handy.h       **** #define STRINGIFY(x) STRINGIFY_(x)
  41:handy.h       **** #define STRINGIFY_(x) #x
  42:handy.h       **** 
  43:handy.h       **** /* Error handling macros.
  44:handy.h       ****  *
  45:handy.h       ****  * These expect a zero = success, non-zero = error convention.
  46:handy.h       ****  */
  47:handy.h       **** 
  48:handy.h       **** /** Error: return. 
  49:handy.h       ****  *  
  50:handy.h       ****  *  If the expression fails, return the error from this function. */
  51:handy.h       **** #define ER(expr) do { typeof (expr) err_ = (expr); if (err_) return err_; } while (0)
  52:handy.h       **** 
  53:handy.h       **** /** Error: goto.
  54:handy.h       ****  *
  55:handy.h       ****  *  If the expression fails, goto x_err.  Assumes defn of label
  56:handy.h       ****  *  x_err and 'error_type err'. */
  57:handy.h       **** #define EG(expr) do { err = (expr); if (err) goto x_err; } while (0)
  58:handy.h       **** 
  59:handy.h       **** /** Like memset(ptr, 0, len), but not allowed to be removed by
  60:handy.h       ****  *  compilers. */
  61:handy.h       **** static inline void mem_clean(volatile void *v, size_t len)
  62:handy.h       **** {
  27              		.loc 1 62 0
  28              		.cfi_startproc
  29              		@ args = 0, pretend = 0, frame = 8
  30              		@ frame_needed = 0, uses_anonymous_args = 0
  31 0000 00B5     		push	{lr}
  32              		.cfi_def_cfa_offset 4
  33              		.cfi_offset 14, -4
  34 0002 83B0     		sub	sp, sp, #12
  35              		.cfi_def_cfa_offset 16
  36 0004 0190     		str	r0, [sp, #4]
  37 0006 0091     		str	r1, [sp]
  63:handy.h       ****   if (len)
  38              		.loc 1 63 0
  39 0008 009B     		ldr	r3, [sp]
  40 000a 002B     		cmp	r3, #0
  41 000c 07D0     		beq	.L3
  64:handy.h       ****   {
  65:handy.h       ****     memset((void *) v, 0, len);
  42              		.loc 1 65 0
  43 000e 009A     		ldr	r2, [sp]
  44 0010 019B     		ldr	r3, [sp, #4]
  45 0012 0021     		movs	r1, #0
  46 0014 1800     		movs	r0, r3
  47 0016 FFF7FEFF 		bl	memset
  66:handy.h       ****     (void) *((volatile uint8_t *) v);
  48              		.loc 1 66 0
ARM GAS  C:\Users\andrew\AppData\Local\Temp\ccyY92Rm.s 			page 3


  49 001a 019B     		ldr	r3, [sp, #4]
  50 001c 1B78     		ldrb	r3, [r3]
  51              	.L3:
  67:handy.h       ****   }
  68:handy.h       **** }
  52              		.loc 1 68 0
  53 001e C046     		nop
  54 0020 03B0     		add	sp, sp, #12
  55              		@ sp needed
  56 0022 00BD     		pop	{pc}
  57              		.cfi_endproc
  58              	.LFE1:
  59              		.size	mem_clean, .-mem_clean
  60              		.section	.text.append_counter_to_nonce,"ax",%progbits
  61              		.align	2
  62              		.global	append_counter_to_nonce
  63              		.code	16
  64              		.thumb_func
  65              		.type	append_counter_to_nonce, %function
  66              	append_counter_to_nonce:
  67              	.LFB3:
  68              		.file 2 "ak_aes_crypto.c"
   1:ak_aes_crypto.c **** //
   2:ak_aes_crypto.c **** //  ak_aes_crypto.c
   3:ak_aes_crypto.c **** //  crypto-ios
   4:ak_aes_crypto.c **** //
   5:ak_aes_crypto.c **** //  Created by Andrew Kupetskiy on 11/23/17.
   6:ak_aes_crypto.c **** //  Copyright © 2017 AndrewK. All rights reserved.
   7:ak_aes_crypto.c **** //
   8:ak_aes_crypto.c **** 
   9:ak_aes_crypto.c **** #include <stdio.h>
  10:ak_aes_crypto.c **** 
  11:ak_aes_crypto.c **** #include "ak_aes_crypto.h"
  12:ak_aes_crypto.c **** #include "modes.h"
  13:ak_aes_crypto.c **** #include "handy.h"
  14:ak_aes_crypto.c **** #include "tassert.h"
  15:ak_aes_crypto.c **** 
  16:ak_aes_crypto.c **** void append_counter_to_nonce(uint8_t *nonce, uint32_t counter) {
  69              		.loc 2 16 0
  70              		.cfi_startproc
  71              		@ args = 0, pretend = 0, frame = 16
  72              		@ frame_needed = 0, uses_anonymous_args = 0
  73 0000 00B5     		push	{lr}
  74              		.cfi_def_cfa_offset 4
  75              		.cfi_offset 14, -4
  76 0002 85B0     		sub	sp, sp, #20
  77              		.cfi_def_cfa_offset 24
  78 0004 0190     		str	r0, [sp, #4]
  79 0006 0091     		str	r1, [sp]
  17:ak_aes_crypto.c ****     uint8_t ctr_array[4];
  18:ak_aes_crypto.c ****     ctr_array[0] = counter >> 24;
  80              		.loc 2 18 0
  81 0008 009B     		ldr	r3, [sp]
  82 000a 1B0E     		lsrs	r3, r3, #24
  83 000c DAB2     		uxtb	r2, r3
  84 000e 03AB     		add	r3, sp, #12
  85 0010 1A70     		strb	r2, [r3]
ARM GAS  C:\Users\andrew\AppData\Local\Temp\ccyY92Rm.s 			page 4


  19:ak_aes_crypto.c ****     ctr_array[1] = counter >> 16;
  86              		.loc 2 19 0
  87 0012 009B     		ldr	r3, [sp]
  88 0014 1B0C     		lsrs	r3, r3, #16
  89 0016 DAB2     		uxtb	r2, r3
  90 0018 03AB     		add	r3, sp, #12
  91 001a 5A70     		strb	r2, [r3, #1]
  20:ak_aes_crypto.c ****     ctr_array[2] = counter >>  8;
  92              		.loc 2 20 0
  93 001c 009B     		ldr	r3, [sp]
  94 001e 1B0A     		lsrs	r3, r3, #8
  95 0020 DAB2     		uxtb	r2, r3
  96 0022 03AB     		add	r3, sp, #12
  97 0024 9A70     		strb	r2, [r3, #2]
  21:ak_aes_crypto.c ****     ctr_array[3] = counter;
  98              		.loc 2 21 0
  99 0026 009B     		ldr	r3, [sp]
 100 0028 DAB2     		uxtb	r2, r3
 101 002a 03AB     		add	r3, sp, #12
 102 002c DA70     		strb	r2, [r3, #3]
  22:ak_aes_crypto.c ****     
  23:ak_aes_crypto.c ****     memcpy(nonce, ctr_array, 4);
 103              		.loc 2 23 0
 104 002e 019A     		ldr	r2, [sp, #4]
 105 0030 03AB     		add	r3, sp, #12
 106 0032 1000     		movs	r0, r2
 107 0034 1900     		movs	r1, r3
 108 0036 0423     		movs	r3, #4
 109 0038 1A00     		movs	r2, r3
 110 003a FFF7FEFF 		bl	memcpy
  24:ak_aes_crypto.c **** }
 111              		.loc 2 24 0
 112 003e C046     		nop
 113 0040 05B0     		add	sp, sp, #20
 114              		@ sp needed
 115 0042 00BD     		pop	{pc}
 116              		.cfi_endproc
 117              	.LFE3:
 118              		.size	append_counter_to_nonce, .-append_counter_to_nonce
 119              		.section	.rodata
 120              		.align	2
 121              	.LC0:
 122 0000 25303278 		.ascii	"%02x\000"
 122      00
 123 0005 000000   		.align	2
 124              	.LC2:
 125 0008 3E0D0D00 		.ascii	">\015\015\000"
 126              		.section	.text.c_print,"ax",%progbits
 127              		.align	2
 128              		.global	c_print
 129              		.code	16
 130              		.thumb_func
 131              		.type	c_print, %function
 132              	c_print:
 133              	.LFB4:
  25:ak_aes_crypto.c **** 
  26:ak_aes_crypto.c **** void c_print(uint8_t *vli, unsigned int size) {
ARM GAS  C:\Users\andrew\AppData\Local\Temp\ccyY92Rm.s 			page 5


 134              		.loc 2 26 0
 135              		.cfi_startproc
 136              		@ args = 0, pretend = 0, frame = 16
 137              		@ frame_needed = 0, uses_anonymous_args = 0
 138 0000 00B5     		push	{lr}
 139              		.cfi_def_cfa_offset 4
 140              		.cfi_offset 14, -4
 141 0002 85B0     		sub	sp, sp, #20
 142              		.cfi_def_cfa_offset 24
 143 0004 0190     		str	r0, [sp, #4]
 144 0006 0091     		str	r1, [sp]
  27:ak_aes_crypto.c ****     printf("<");
 145              		.loc 2 27 0
 146 0008 3C20     		movs	r0, #60
 147 000a FFF7FEFF 		bl	putchar
 148              	.LBB2:
  28:ak_aes_crypto.c ****     for(unsigned i=0; i<size; ++i) {
 149              		.loc 2 28 0
 150 000e 0023     		movs	r3, #0
 151 0010 0393     		str	r3, [sp, #12]
 152 0012 0CE0     		b	.L6
 153              	.L7:
  29:ak_aes_crypto.c ****         printf("%02x", (unsigned)vli[i]);
 154              		.loc 2 29 0 discriminator 3
 155 0014 019A     		ldr	r2, [sp, #4]
 156 0016 039B     		ldr	r3, [sp, #12]
 157 0018 D318     		adds	r3, r2, r3
 158 001a 1B78     		ldrb	r3, [r3]
 159 001c 1A00     		movs	r2, r3
 160 001e 094B     		ldr	r3, .L8
 161 0020 1100     		movs	r1, r2
 162 0022 1800     		movs	r0, r3
 163 0024 FFF7FEFF 		bl	printf
  28:ak_aes_crypto.c ****     for(unsigned i=0; i<size; ++i) {
 164              		.loc 2 28 0 discriminator 3
 165 0028 039B     		ldr	r3, [sp, #12]
 166 002a 0133     		adds	r3, r3, #1
 167 002c 0393     		str	r3, [sp, #12]
 168              	.L6:
  28:ak_aes_crypto.c ****     for(unsigned i=0; i<size; ++i) {
 169              		.loc 2 28 0 is_stmt 0 discriminator 1
 170 002e 039A     		ldr	r2, [sp, #12]
 171 0030 009B     		ldr	r3, [sp]
 172 0032 9A42     		cmp	r2, r3
 173 0034 EED3     		bcc	.L7
 174              	.LBE2:
  30:ak_aes_crypto.c ****     }
  31:ak_aes_crypto.c ****     printf(">\r\r\n");
 175              		.loc 2 31 0 is_stmt 1
 176 0036 044B     		ldr	r3, .L8+4
 177 0038 1800     		movs	r0, r3
 178 003a FFF7FEFF 		bl	puts
  32:ak_aes_crypto.c **** }
 179              		.loc 2 32 0
 180 003e C046     		nop
 181 0040 05B0     		add	sp, sp, #20
 182              		@ sp needed
ARM GAS  C:\Users\andrew\AppData\Local\Temp\ccyY92Rm.s 			page 6


 183 0042 00BD     		pop	{pc}
 184              	.L9:
 185              		.align	2
 186              	.L8:
 187 0044 00000000 		.word	.LC0
 188 0048 08000000 		.word	.LC2
 189              		.cfi_endproc
 190              	.LFE4:
 191              		.size	c_print, .-c_print
 192              		.section	.rodata
 193              		.align	2
 194              	.LC4:
 195 000c 6E6F6E63 		.ascii	"nonce = \015\000"
 195      65203D20 
 195      0D00
 196 0016 0000     		.align	2
 197              	.LC6:
 198 0018 73656372 		.ascii	"secret key = \015\000"
 198      6574206B 
 198      6579203D 
 198      200D00
 199              		.section	.text.ak_aes_init,"ax",%progbits
 200              		.align	2
 201              		.global	ak_aes_init
 202              		.code	16
 203              		.thumb_func
 204              		.type	ak_aes_init, %function
 205              	ak_aes_init:
 206              	.LFB5:
  33:ak_aes_crypto.c **** 
  34:ak_aes_crypto.c **** //-----------------------------------------------------------------
  35:ak_aes_crypto.c **** 
  36:ak_aes_crypto.c **** void ak_aes_init(ak_aes_context *ctx,
  37:ak_aes_crypto.c ****                  const uint8_t *shared_secret,
  38:ak_aes_crypto.c ****                  size_t shared_secret_size) {
 207              		.loc 2 38 0
 208              		.cfi_startproc
 209              		@ args = 0, pretend = 0, frame = 40
 210              		@ frame_needed = 0, uses_anonymous_args = 0
 211 0000 00B5     		push	{lr}
 212              		.cfi_def_cfa_offset 4
 213              		.cfi_offset 14, -4
 214 0002 8BB0     		sub	sp, sp, #44
 215              		.cfi_def_cfa_offset 48
 216 0004 0390     		str	r0, [sp, #12]
 217 0006 0291     		str	r1, [sp, #8]
 218 0008 0192     		str	r2, [sp, #4]
  39:ak_aes_crypto.c ****     memset(ctx, 0, sizeof *ctx);
 219              		.loc 2 39 0
 220 000a 039B     		ldr	r3, [sp, #12]
 221 000c 1822     		movs	r2, #24
 222 000e 0021     		movs	r1, #0
 223 0010 1800     		movs	r0, r3
 224 0012 FFF7FEFF 		bl	memset
  40:ak_aes_crypto.c ****     ctx->counter = 0;
 225              		.loc 2 40 0
 226 0016 039B     		ldr	r3, [sp, #12]
ARM GAS  C:\Users\andrew\AppData\Local\Temp\ccyY92Rm.s 			page 7


 227 0018 0022     		movs	r2, #0
 228 001a 1A60     		str	r2, [r3]
  41:ak_aes_crypto.c ****     
  42:ak_aes_crypto.c ****     // init nonce from shared secret
  43:ak_aes_crypto.c ****     // nonce = shared_secret[19...31];
  44:ak_aes_crypto.c ****     memcpy(ctx->nonce, shared_secret+19, NONCE_SIZE);
 229              		.loc 2 44 0
 230 001c 039B     		ldr	r3, [sp, #12]
 231 001e 181D     		adds	r0, r3, #4
 232 0020 029B     		ldr	r3, [sp, #8]
 233 0022 1333     		adds	r3, r3, #19
 234 0024 0D22     		movs	r2, #13
 235 0026 1900     		movs	r1, r3
 236 0028 FFF7FEFF 		bl	memcpy
  45:ak_aes_crypto.c ****     
  46:ak_aes_crypto.c ****     printf("nonce = \r\n");
 237              		.loc 2 46 0
 238 002c 1E4B     		ldr	r3, .L11
 239 002e 1800     		movs	r0, r3
 240 0030 FFF7FEFF 		bl	puts
  47:ak_aes_crypto.c ****     c_print(ctx->nonce, 13);
 241              		.loc 2 47 0
 242 0034 039B     		ldr	r3, [sp, #12]
 243 0036 0433     		adds	r3, r3, #4
 244 0038 0D21     		movs	r1, #13
 245 003a 1800     		movs	r0, r3
 246 003c FFF7FEFF 		bl	c_print
  48:ak_aes_crypto.c ****     
  49:ak_aes_crypto.c ****     //then apply counter value onto it
  50:ak_aes_crypto.c ****     append_counter_to_nonce(ctx->nonce, ctx->counter);
 247              		.loc 2 50 0
 248 0040 039B     		ldr	r3, [sp, #12]
 249 0042 1A1D     		adds	r2, r3, #4
 250 0044 039B     		ldr	r3, [sp, #12]
 251 0046 1B68     		ldr	r3, [r3]
 252 0048 1900     		movs	r1, r3
 253 004a 1000     		movs	r0, r2
 254 004c FFF7FEFF 		bl	append_counter_to_nonce
  51:ak_aes_crypto.c ****     
  52:ak_aes_crypto.c ****     printf("nonce = \r\n");
 255              		.loc 2 52 0
 256 0050 154B     		ldr	r3, .L11
 257 0052 1800     		movs	r0, r3
 258 0054 FFF7FEFF 		bl	puts
  53:ak_aes_crypto.c ****     c_print(ctx->nonce, 13);
 259              		.loc 2 53 0
 260 0058 039B     		ldr	r3, [sp, #12]
 261 005a 0433     		adds	r3, r3, #4
 262 005c 0D21     		movs	r1, #13
 263 005e 1800     		movs	r0, r3
 264 0060 FFF7FEFF 		bl	c_print
  54:ak_aes_crypto.c ****     
  55:ak_aes_crypto.c ****     // init basic aes crypto
  56:ak_aes_crypto.c ****     cf_aes_context *ccm_context = (cf_aes_context *)malloc(sizeof(cf_aes_context));
 265              		.loc 2 56 0
 266 0064 F420     		movs	r0, #244
 267 0066 FFF7FEFF 		bl	malloc
ARM GAS  C:\Users\andrew\AppData\Local\Temp\ccyY92Rm.s 			page 8


 268 006a 0300     		movs	r3, r0
 269 006c 0993     		str	r3, [sp, #36]
  57:ak_aes_crypto.c ****     
  58:ak_aes_crypto.c ****     // pass secret key to it
  59:ak_aes_crypto.c ****     uint8_t secret_key[SECRET_KEY_SIZE];
  60:ak_aes_crypto.c ****     memcpy(secret_key, shared_secret, SECRET_KEY_SIZE);
 270              		.loc 2 60 0
 271 006e 05AA     		add	r2, sp, #20
 272 0070 029B     		ldr	r3, [sp, #8]
 273 0072 1000     		movs	r0, r2
 274 0074 1900     		movs	r1, r3
 275 0076 1023     		movs	r3, #16
 276 0078 1A00     		movs	r2, r3
 277 007a FFF7FEFF 		bl	memcpy
  61:ak_aes_crypto.c ****     
  62:ak_aes_crypto.c ****     printf("secret key = \r\n");
 278              		.loc 2 62 0
 279 007e 0B4B     		ldr	r3, .L11+4
 280 0080 1800     		movs	r0, r3
 281 0082 FFF7FEFF 		bl	puts
  63:ak_aes_crypto.c ****     c_print(secret_key, SECRET_KEY_SIZE);
 282              		.loc 2 63 0
 283 0086 05AB     		add	r3, sp, #20
 284 0088 1021     		movs	r1, #16
 285 008a 1800     		movs	r0, r3
 286 008c FFF7FEFF 		bl	c_print
  64:ak_aes_crypto.c ****     
  65:ak_aes_crypto.c ****     cf_aes_init(ccm_context, secret_key, SECRET_KEY_SIZE);
 287              		.loc 2 65 0
 288 0090 05A9     		add	r1, sp, #20
 289 0092 099B     		ldr	r3, [sp, #36]
 290 0094 1022     		movs	r2, #16
 291 0096 1800     		movs	r0, r3
 292 0098 FFF7FEFF 		bl	cf_aes_init
  66:ak_aes_crypto.c ****     
  67:ak_aes_crypto.c ****     ctx->ccm_ctx = ccm_context;
 293              		.loc 2 67 0
 294 009c 039B     		ldr	r3, [sp, #12]
 295 009e 099A     		ldr	r2, [sp, #36]
 296 00a0 5A61     		str	r2, [r3, #20]
  68:ak_aes_crypto.c **** }
 297              		.loc 2 68 0
 298 00a2 C046     		nop
 299 00a4 0BB0     		add	sp, sp, #44
 300              		@ sp needed
 301 00a6 00BD     		pop	{pc}
 302              	.L12:
 303              		.align	2
 304              	.L11:
 305 00a8 0C000000 		.word	.LC4
 306 00ac 18000000 		.word	.LC6
 307              		.cfi_endproc
 308              	.LFE5:
 309              		.size	ak_aes_init, .-ak_aes_init
 310              		.section	.text.ak_aes_finish,"ax",%progbits
 311              		.align	2
 312              		.global	ak_aes_finish
ARM GAS  C:\Users\andrew\AppData\Local\Temp\ccyY92Rm.s 			page 9


 313              		.code	16
 314              		.thumb_func
 315              		.type	ak_aes_finish, %function
 316              	ak_aes_finish:
 317              	.LFB6:
  69:ak_aes_crypto.c **** 
  70:ak_aes_crypto.c **** void ak_aes_finish(ak_aes_context *ctx)
  71:ak_aes_crypto.c **** {
 318              		.loc 2 71 0
 319              		.cfi_startproc
 320              		@ args = 0, pretend = 0, frame = 8
 321              		@ frame_needed = 0, uses_anonymous_args = 0
 322 0000 00B5     		push	{lr}
 323              		.cfi_def_cfa_offset 4
 324              		.cfi_offset 14, -4
 325 0002 83B0     		sub	sp, sp, #12
 326              		.cfi_def_cfa_offset 16
 327 0004 0190     		str	r0, [sp, #4]
  72:ak_aes_crypto.c ****     cf_aes_finish(ctx->ccm_ctx);
 328              		.loc 2 72 0
 329 0006 019B     		ldr	r3, [sp, #4]
 330 0008 5B69     		ldr	r3, [r3, #20]
 331 000a 1800     		movs	r0, r3
 332 000c FFF7FEFF 		bl	cf_aes_finish
  73:ak_aes_crypto.c ****     mem_clean(ctx, sizeof *ctx);
 333              		.loc 2 73 0
 334 0010 019B     		ldr	r3, [sp, #4]
 335 0012 1821     		movs	r1, #24
 336 0014 1800     		movs	r0, r3
 337 0016 FFF7FEFF 		bl	mem_clean
  74:ak_aes_crypto.c **** }
 338              		.loc 2 74 0
 339 001a C046     		nop
 340 001c 03B0     		add	sp, sp, #12
 341              		@ sp needed
 342 001e 00BD     		pop	{pc}
 343              		.cfi_endproc
 344              	.LFE6:
 345              		.size	ak_aes_finish, .-ak_aes_finish
 346              		.section	.rodata
 347 0027 00       		.align	2
 348              	.LC10:
 349 0028 636F756E 		.ascii	"counter = %d\015\012\000"
 349      74657220 
 349      3D202564 
 349      0D0A00
 350              		.section	.text.ak_aes_encrypt,"ax",%progbits
 351              		.align	2
 352              		.global	ak_aes_encrypt
 353              		.code	16
 354              		.thumb_func
 355              		.type	ak_aes_encrypt, %function
 356              	ak_aes_encrypt:
 357              	.LFB7:
  75:ak_aes_crypto.c **** 
  76:ak_aes_crypto.c **** //----------------------------------------------------------------------
  77:ak_aes_crypto.c **** 
ARM GAS  C:\Users\andrew\AppData\Local\Temp\ccyY92Rm.s 			page 10


  78:ak_aes_crypto.c **** void ak_aes_encrypt(ak_aes_context *ctx,
  79:ak_aes_crypto.c ****                     const uint8_t *plain_data, size_t plain_data_size,
  80:ak_aes_crypto.c ****                     uint8_t *encrypted_data,
  81:ak_aes_crypto.c ****                     uint8_t *tag, size_t ntag) {
 358              		.loc 2 81 0
 359              		.cfi_startproc
 360              		@ args = 8, pretend = 0, frame = 16
 361              		@ frame_needed = 0, uses_anonymous_args = 0
 362 0000 30B5     		push	{r4, r5, lr}
 363              		.cfi_def_cfa_offset 12
 364              		.cfi_offset 4, -12
 365              		.cfi_offset 5, -8
 366              		.cfi_offset 14, -4
 367 0002 8DB0     		sub	sp, sp, #52
 368              		.cfi_def_cfa_offset 64
 369 0004 0B90     		str	r0, [sp, #44]
 370 0006 0A91     		str	r1, [sp, #40]
 371 0008 0992     		str	r2, [sp, #36]
 372 000a 0893     		str	r3, [sp, #32]
  82:ak_aes_crypto.c ****     
  83:ak_aes_crypto.c ****     printf("nonce = \r\n");
 373              		.loc 2 83 0
 374 000c 1D4B     		ldr	r3, .L15
 375 000e 1800     		movs	r0, r3
 376 0010 FFF7FEFF 		bl	puts
  84:ak_aes_crypto.c ****     c_print(ctx->nonce, 13);
 377              		.loc 2 84 0
 378 0014 0B9B     		ldr	r3, [sp, #44]
 379 0016 0433     		adds	r3, r3, #4
 380 0018 0D21     		movs	r1, #13
 381 001a 1800     		movs	r0, r3
 382 001c FFF7FEFF 		bl	c_print
  85:ak_aes_crypto.c ****     
  86:ak_aes_crypto.c ****     //apply counter value onto it
  87:ak_aes_crypto.c ****     append_counter_to_nonce(ctx->nonce, ctx->counter);
 383              		.loc 2 87 0
 384 0020 0B9B     		ldr	r3, [sp, #44]
 385 0022 1A1D     		adds	r2, r3, #4
 386 0024 0B9B     		ldr	r3, [sp, #44]
 387 0026 1B68     		ldr	r3, [r3]
 388 0028 1900     		movs	r1, r3
 389 002a 1000     		movs	r0, r2
 390 002c FFF7FEFF 		bl	append_counter_to_nonce
  88:ak_aes_crypto.c ****     
  89:ak_aes_crypto.c ****     cf_ccm_encrypt(&cf_aes, ctx->ccm_ctx,
 391              		.loc 2 89 0
 392 0030 0B9B     		ldr	r3, [sp, #44]
 393 0032 5969     		ldr	r1, [r3, #20]
  90:ak_aes_crypto.c ****                    plain_data, plain_data_size, L_SIZE,
  91:ak_aes_crypto.c ****                    NULL, 0,
  92:ak_aes_crypto.c ****                    ctx->nonce, NONCE_SIZE,
 394              		.loc 2 92 0
 395 0034 0B9B     		ldr	r3, [sp, #44]
 396 0036 0433     		adds	r3, r3, #4
  89:ak_aes_crypto.c ****                    plain_data, plain_data_size, L_SIZE,
 397              		.loc 2 89 0
 398 0038 099D     		ldr	r5, [sp, #36]
ARM GAS  C:\Users\andrew\AppData\Local\Temp\ccyY92Rm.s 			page 11


 399 003a 0A9C     		ldr	r4, [sp, #40]
 400 003c 1248     		ldr	r0, .L15+4
 401 003e 119A     		ldr	r2, [sp, #68]
 402 0040 0792     		str	r2, [sp, #28]
 403 0042 109A     		ldr	r2, [sp, #64]
 404 0044 0692     		str	r2, [sp, #24]
 405 0046 089A     		ldr	r2, [sp, #32]
 406 0048 0592     		str	r2, [sp, #20]
 407 004a 0D22     		movs	r2, #13
 408 004c 0492     		str	r2, [sp, #16]
 409 004e 0393     		str	r3, [sp, #12]
 410 0050 0023     		movs	r3, #0
 411 0052 0293     		str	r3, [sp, #8]
 412 0054 0023     		movs	r3, #0
 413 0056 0193     		str	r3, [sp, #4]
 414 0058 0223     		movs	r3, #2
 415 005a 0093     		str	r3, [sp]
 416 005c 2B00     		movs	r3, r5
 417 005e 2200     		movs	r2, r4
 418 0060 FFF7FEFF 		bl	cf_ccm_encrypt
  93:ak_aes_crypto.c ****                    encrypted_data,
  94:ak_aes_crypto.c ****                    tag, ntag);
  95:ak_aes_crypto.c ****     
  96:ak_aes_crypto.c ****     //increment counter
  97:ak_aes_crypto.c ****     ctx->counter = ctx->counter + 1;
 419              		.loc 2 97 0
 420 0064 0B9B     		ldr	r3, [sp, #44]
 421 0066 1B68     		ldr	r3, [r3]
 422 0068 5A1C     		adds	r2, r3, #1
 423 006a 0B9B     		ldr	r3, [sp, #44]
 424 006c 1A60     		str	r2, [r3]
  98:ak_aes_crypto.c ****     printf("counter = %d\r\n", ctx->counter);
 425              		.loc 2 98 0
 426 006e 0B9B     		ldr	r3, [sp, #44]
 427 0070 1A68     		ldr	r2, [r3]
 428 0072 064B     		ldr	r3, .L15+8
 429 0074 1100     		movs	r1, r2
 430 0076 1800     		movs	r0, r3
 431 0078 FFF7FEFF 		bl	printf
  99:ak_aes_crypto.c ****     
 100:ak_aes_crypto.c **** }
 432              		.loc 2 100 0
 433 007c C046     		nop
 434 007e 0DB0     		add	sp, sp, #52
 435              		@ sp needed
 436 0080 30BD     		pop	{r4, r5, pc}
 437              	.L16:
 438 0082 C046     		.align	2
 439              	.L15:
 440 0084 0C000000 		.word	.LC4
 441 0088 00000000 		.word	cf_aes
 442 008c 28000000 		.word	.LC10
 443              		.cfi_endproc
 444              	.LFE7:
 445              		.size	ak_aes_encrypt, .-ak_aes_encrypt
 446              		.section	.text.ak_aes_decrypt,"ax",%progbits
 447              		.align	2
ARM GAS  C:\Users\andrew\AppData\Local\Temp\ccyY92Rm.s 			page 12


 448              		.global	ak_aes_decrypt
 449              		.code	16
 450              		.thumb_func
 451              		.type	ak_aes_decrypt, %function
 452              	ak_aes_decrypt:
 453              	.LFB8:
 101:ak_aes_crypto.c **** 
 102:ak_aes_crypto.c **** int ak_aes_decrypt(ak_aes_context *ctx,
 103:ak_aes_crypto.c ****                    const uint8_t *encrypted_data, size_t encrypted_data_size,
 104:ak_aes_crypto.c ****                    const uint8_t *tag, size_t ntag,
 105:ak_aes_crypto.c ****                    uint8_t *plain_data) {
 454              		.loc 2 105 0
 455              		.cfi_startproc
 456              		@ args = 8, pretend = 0, frame = 24
 457              		@ frame_needed = 0, uses_anonymous_args = 0
 458 0000 30B5     		push	{r4, r5, lr}
 459              		.cfi_def_cfa_offset 12
 460              		.cfi_offset 4, -12
 461              		.cfi_offset 5, -8
 462              		.cfi_offset 14, -4
 463 0002 8FB0     		sub	sp, sp, #60
 464              		.cfi_def_cfa_offset 72
 465 0004 0B90     		str	r0, [sp, #44]
 466 0006 0A91     		str	r1, [sp, #40]
 467 0008 0992     		str	r2, [sp, #36]
 468 000a 0893     		str	r3, [sp, #32]
 106:ak_aes_crypto.c ****     
 107:ak_aes_crypto.c ****     printf("nonce = \r\n");
 469              		.loc 2 107 0
 470 000c 1F4B     		ldr	r3, .L19
 471 000e 1800     		movs	r0, r3
 472 0010 FFF7FEFF 		bl	puts
 108:ak_aes_crypto.c ****     c_print(ctx->nonce, 13);
 473              		.loc 2 108 0
 474 0014 0B9B     		ldr	r3, [sp, #44]
 475 0016 0433     		adds	r3, r3, #4
 476 0018 0D21     		movs	r1, #13
 477 001a 1800     		movs	r0, r3
 478 001c FFF7FEFF 		bl	c_print
 109:ak_aes_crypto.c ****     
 110:ak_aes_crypto.c ****     //apply counter value onto it
 111:ak_aes_crypto.c ****     append_counter_to_nonce(ctx->nonce, ctx->counter);
 479              		.loc 2 111 0
 480 0020 0B9B     		ldr	r3, [sp, #44]
 481 0022 1A1D     		adds	r2, r3, #4
 482 0024 0B9B     		ldr	r3, [sp, #44]
 483 0026 1B68     		ldr	r3, [r3]
 484 0028 1900     		movs	r1, r3
 485 002a 1000     		movs	r0, r2
 486 002c FFF7FEFF 		bl	append_counter_to_nonce
 112:ak_aes_crypto.c ****     
 113:ak_aes_crypto.c ****     int err = 0;
 487              		.loc 2 113 0
 488 0030 0023     		movs	r3, #0
 489 0032 0D93     		str	r3, [sp, #52]
 114:ak_aes_crypto.c ****     err = cf_ccm_decrypt(&cf_aes, ctx->ccm_ctx,
 490              		.loc 2 114 0
ARM GAS  C:\Users\andrew\AppData\Local\Temp\ccyY92Rm.s 			page 13


 491 0034 0B9B     		ldr	r3, [sp, #44]
 492 0036 5969     		ldr	r1, [r3, #20]
 115:ak_aes_crypto.c ****                          encrypted_data, encrypted_data_size, L_SIZE,
 116:ak_aes_crypto.c ****                          NULL, 0,
 117:ak_aes_crypto.c ****                          ctx->nonce, NONCE_SIZE,
 493              		.loc 2 117 0
 494 0038 0B9B     		ldr	r3, [sp, #44]
 495 003a 0433     		adds	r3, r3, #4
 114:ak_aes_crypto.c ****     err = cf_ccm_decrypt(&cf_aes, ctx->ccm_ctx,
 496              		.loc 2 114 0
 497 003c 099D     		ldr	r5, [sp, #36]
 498 003e 0A9C     		ldr	r4, [sp, #40]
 499 0040 1348     		ldr	r0, .L19+4
 500 0042 139A     		ldr	r2, [sp, #76]
 501 0044 0792     		str	r2, [sp, #28]
 502 0046 129A     		ldr	r2, [sp, #72]
 503 0048 0692     		str	r2, [sp, #24]
 504 004a 089A     		ldr	r2, [sp, #32]
 505 004c 0592     		str	r2, [sp, #20]
 506 004e 0D22     		movs	r2, #13
 507 0050 0492     		str	r2, [sp, #16]
 508 0052 0393     		str	r3, [sp, #12]
 509 0054 0023     		movs	r3, #0
 510 0056 0293     		str	r3, [sp, #8]
 511 0058 0023     		movs	r3, #0
 512 005a 0193     		str	r3, [sp, #4]
 513 005c 0223     		movs	r3, #2
 514 005e 0093     		str	r3, [sp]
 515 0060 2B00     		movs	r3, r5
 516 0062 2200     		movs	r2, r4
 517 0064 FFF7FEFF 		bl	cf_ccm_decrypt
 518 0068 0300     		movs	r3, r0
 519 006a 0D93     		str	r3, [sp, #52]
 118:ak_aes_crypto.c ****                          tag, ntag,
 119:ak_aes_crypto.c ****                          plain_data);
 120:ak_aes_crypto.c ****     
 121:ak_aes_crypto.c ****     //increment counter
 122:ak_aes_crypto.c ****     ctx->counter = ctx->counter + 1;
 520              		.loc 2 122 0
 521 006c 0B9B     		ldr	r3, [sp, #44]
 522 006e 1B68     		ldr	r3, [r3]
 523 0070 5A1C     		adds	r2, r3, #1
 524 0072 0B9B     		ldr	r3, [sp, #44]
 525 0074 1A60     		str	r2, [r3]
 123:ak_aes_crypto.c ****     printf("counter = %d\r\n", ctx->counter);
 526              		.loc 2 123 0
 527 0076 0B9B     		ldr	r3, [sp, #44]
 528 0078 1A68     		ldr	r2, [r3]
 529 007a 064B     		ldr	r3, .L19+8
 530 007c 1100     		movs	r1, r2
 531 007e 1800     		movs	r0, r3
 532 0080 FFF7FEFF 		bl	printf
 124:ak_aes_crypto.c ****     return err;
 533              		.loc 2 124 0
 534 0084 0D9B     		ldr	r3, [sp, #52]
 125:ak_aes_crypto.c **** }
 535              		.loc 2 125 0
ARM GAS  C:\Users\andrew\AppData\Local\Temp\ccyY92Rm.s 			page 14


 536 0086 1800     		movs	r0, r3
 537 0088 0FB0     		add	sp, sp, #60
 538              		@ sp needed
 539 008a 30BD     		pop	{r4, r5, pc}
 540              	.L20:
 541              		.align	2
 542              	.L19:
 543 008c 0C000000 		.word	.LC4
 544 0090 00000000 		.word	cf_aes
 545 0094 28000000 		.word	.LC10
 546              		.cfi_endproc
 547              	.LFE8:
 548              		.size	ak_aes_decrypt, .-ak_aes_decrypt
 549              		.section	.rodata
 550 0037 00       		.align	2
 551              	.LC15:
 552 0038 74616720 		.ascii	"tag = \015\000"
 552      3D200D00 
 553              		.align	2
 554              	.LC17:
 555 0040 656E6372 		.ascii	"encrypted message = \015\000"
 555      79707465 
 555      64206D65 
 555      73736167 
 555      65203D20 
 556 0056 0000     		.align	2
 557              	.LC19:
 558 0058 7061636B 		.ascii	"package = \015\000"
 558      61676520 
 558      3D200D00 
 559              		.section	.text.ak_aes_encrypt_and_pack,"ax",%progbits
 560              		.align	2
 561              		.global	ak_aes_encrypt_and_pack
 562              		.code	16
 563              		.thumb_func
 564              		.type	ak_aes_encrypt_and_pack, %function
 565              	ak_aes_encrypt_and_pack:
 566              	.LFB9:
 126:ak_aes_crypto.c **** 
 127:ak_aes_crypto.c **** // -------------------------------------------------------------------
 128:ak_aes_crypto.c **** 
 129:ak_aes_crypto.c **** void ak_aes_encrypt_and_pack(ak_aes_context *ctx,
 130:ak_aes_crypto.c ****                              const uint8_t *plain_data, size_t plain_data_size,
 131:ak_aes_crypto.c ****                              uint8_t *package, uint8_t *package_size) {
 567              		.loc 2 131 0
 568              		.cfi_startproc
 569              		@ args = 4, pretend = 0, frame = 72
 570              		@ frame_needed = 1, uses_anonymous_args = 0
 571 0000 F0B5     		push	{r4, r5, r6, r7, lr}
 572              		.cfi_def_cfa_offset 20
 573              		.cfi_offset 4, -20
 574              		.cfi_offset 5, -16
 575              		.cfi_offset 6, -12
 576              		.cfi_offset 7, -8
 577              		.cfi_offset 14, -4
 578 0002 95B0     		sub	sp, sp, #84
 579              		.cfi_def_cfa_offset 104
ARM GAS  C:\Users\andrew\AppData\Local\Temp\ccyY92Rm.s 			page 15


 580 0004 02AF     		add	r7, sp, #8
 581              		.cfi_def_cfa 7, 96
 582 0006 F862     		str	r0, [r7, #44]
 583 0008 B962     		str	r1, [r7, #40]
 584 000a 7A62     		str	r2, [r7, #36]
 585 000c 3B62     		str	r3, [r7, #32]
 586              		.loc 2 131 0
 587 000e 6B46     		mov	r3, sp
 588 0010 7B60     		str	r3, [r7, #4]
 132:ak_aes_crypto.c ****     uint8_t encrypted_data[plain_data_size], tag[TAG_SIZE];
 589              		.loc 2 132 0
 590 0012 7B6A     		ldr	r3, [r7, #36]
 591 0014 1A00     		movs	r2, r3
 592 0016 013A     		subs	r2, r2, #1
 593 0018 7A64     		str	r2, [r7, #68]
 594 001a 3B61     		str	r3, [r7, #16]
 595 001c 0022     		movs	r2, #0
 596 001e 7A61     		str	r2, [r7, #20]
 597 0020 3869     		ldr	r0, [r7, #16]
 598 0022 7969     		ldr	r1, [r7, #20]
 599 0024 0200     		movs	r2, r0
 600 0026 520F     		lsrs	r2, r2, #29
 601 0028 0E00     		movs	r6, r1
 602 002a F600     		lsls	r6, r6, #3
 603 002c FE61     		str	r6, [r7, #28]
 604 002e FE69     		ldr	r6, [r7, #28]
 605 0030 1643     		orrs	r6, r2
 606 0032 FE61     		str	r6, [r7, #28]
 607 0034 0200     		movs	r2, r0
 608 0036 D200     		lsls	r2, r2, #3
 609 0038 BA61     		str	r2, [r7, #24]
 610 003a BB60     		str	r3, [r7, #8]
 611 003c 0022     		movs	r2, #0
 612 003e FA60     		str	r2, [r7, #12]
 613 0040 B868     		ldr	r0, [r7, #8]
 614 0042 F968     		ldr	r1, [r7, #12]
 615 0044 0200     		movs	r2, r0
 616 0046 520F     		lsrs	r2, r2, #29
 617 0048 0E00     		movs	r6, r1
 618 004a F500     		lsls	r5, r6, #3
 619 004c 1543     		orrs	r5, r2
 620 004e 0200     		movs	r2, r0
 621 0050 D400     		lsls	r4, r2, #3
 622 0052 0733     		adds	r3, r3, #7
 623 0054 DB08     		lsrs	r3, r3, #3
 624 0056 DB00     		lsls	r3, r3, #3
 625 0058 6A46     		mov	r2, sp
 626 005a D31A     		subs	r3, r2, r3
 627 005c 9D46     		mov	sp, r3
 628 005e 02AB     		add	r3, sp, #8
 629 0060 0033     		adds	r3, r3, #0
 630 0062 3B64     		str	r3, [r7, #64]
 133:ak_aes_crypto.c ****     //apply counter value onto it
 134:ak_aes_crypto.c ****     
 135:ak_aes_crypto.c ****     ak_aes_encrypt(ctx, plain_data, plain_data_size, encrypted_data, tag, TAG_SIZE);
 631              		.loc 2 135 0
 632 0064 3C6C     		ldr	r4, [r7, #64]
ARM GAS  C:\Users\andrew\AppData\Local\Temp\ccyY92Rm.s 			page 16


 633 0066 7A6A     		ldr	r2, [r7, #36]
 634 0068 B96A     		ldr	r1, [r7, #40]
 635 006a F86A     		ldr	r0, [r7, #44]
 636 006c 1023     		movs	r3, #16
 637 006e 0193     		str	r3, [sp, #4]
 638 0070 1023     		movs	r3, #16
 639 0072 2025     		movs	r5, #32
 640 0074 AC46     		mov	ip, r5
 641 0076 BC44     		add	ip, ip, r7
 642 0078 6344     		add	r3, r3, ip
 643 007a 0093     		str	r3, [sp]
 644 007c 2300     		movs	r3, r4
 645 007e FFF7FEFF 		bl	ak_aes_encrypt
 136:ak_aes_crypto.c ****     
 137:ak_aes_crypto.c ****     printf("tag = \r\n");
 646              		.loc 2 137 0
 647 0082 1E4B     		ldr	r3, .L22
 648 0084 1800     		movs	r0, r3
 649 0086 FFF7FEFF 		bl	puts
 138:ak_aes_crypto.c ****     c_print(tag, TAG_SIZE);
 650              		.loc 2 138 0
 651 008a 1023     		movs	r3, #16
 652 008c 2022     		movs	r2, #32
 653 008e 9446     		mov	ip, r2
 654 0090 BC44     		add	ip, ip, r7
 655 0092 6344     		add	r3, r3, ip
 656 0094 1021     		movs	r1, #16
 657 0096 1800     		movs	r0, r3
 658 0098 FFF7FEFF 		bl	c_print
 139:ak_aes_crypto.c ****     
 140:ak_aes_crypto.c ****     printf("encrypted message = \r\n");
 659              		.loc 2 140 0
 660 009c 184B     		ldr	r3, .L22+4
 661 009e 1800     		movs	r0, r3
 662 00a0 FFF7FEFF 		bl	puts
 141:ak_aes_crypto.c ****     c_print(encrypted_data, plain_data_size);
 663              		.loc 2 141 0
 664 00a4 3B6C     		ldr	r3, [r7, #64]
 665 00a6 7A6A     		ldr	r2, [r7, #36]
 666 00a8 1100     		movs	r1, r2
 667 00aa 1800     		movs	r0, r3
 668 00ac FFF7FEFF 		bl	c_print
 142:ak_aes_crypto.c ****     
 143:ak_aes_crypto.c ****     // copy tag first
 144:ak_aes_crypto.c ****     memcpy(package, tag, TAG_SIZE);
 669              		.loc 2 144 0
 670 00b0 3A6A     		ldr	r2, [r7, #32]
 671 00b2 1023     		movs	r3, #16
 672 00b4 2021     		movs	r1, #32
 673 00b6 8C46     		mov	ip, r1
 674 00b8 BC44     		add	ip, ip, r7
 675 00ba 6344     		add	r3, r3, ip
 676 00bc 1000     		movs	r0, r2
 677 00be 1900     		movs	r1, r3
 678 00c0 1023     		movs	r3, #16
 679 00c2 1A00     		movs	r2, r3
 680 00c4 FFF7FEFF 		bl	memcpy
ARM GAS  C:\Users\andrew\AppData\Local\Temp\ccyY92Rm.s 			page 17


 145:ak_aes_crypto.c ****     // then message
 146:ak_aes_crypto.c ****     memcpy(package + TAG_SIZE, encrypted_data, plain_data_size);
 681              		.loc 2 146 0
 682 00c8 3B6A     		ldr	r3, [r7, #32]
 683 00ca 1033     		adds	r3, r3, #16
 684 00cc 396C     		ldr	r1, [r7, #64]
 685 00ce 7A6A     		ldr	r2, [r7, #36]
 686 00d0 1800     		movs	r0, r3
 687 00d2 FFF7FEFF 		bl	memcpy
 147:ak_aes_crypto.c ****     
 148:ak_aes_crypto.c ****     printf("package = \r\n");
 688              		.loc 2 148 0
 689 00d6 0B4B     		ldr	r3, .L22+8
 690 00d8 1800     		movs	r0, r3
 691 00da FFF7FEFF 		bl	puts
 149:ak_aes_crypto.c ****     c_print(package, TAG_SIZE + plain_data_size);
 692              		.loc 2 149 0
 693 00de 7B6A     		ldr	r3, [r7, #36]
 694 00e0 1033     		adds	r3, r3, #16
 695 00e2 1A00     		movs	r2, r3
 696 00e4 3B6A     		ldr	r3, [r7, #32]
 697 00e6 1100     		movs	r1, r2
 698 00e8 1800     		movs	r0, r3
 699 00ea FFF7FEFF 		bl	c_print
 700 00ee 7B68     		ldr	r3, [r7, #4]
 701 00f0 9D46     		mov	sp, r3
 150:ak_aes_crypto.c **** }
 702              		.loc 2 150 0
 703 00f2 C046     		nop
 704 00f4 BD46     		mov	sp, r7
 705 00f6 13B0     		add	sp, sp, #76
 706              		@ sp needed
 707 00f8 F0BD     		pop	{r4, r5, r6, r7, pc}
 708              	.L23:
 709 00fa C046     		.align	2
 710              	.L22:
 711 00fc 38000000 		.word	.LC15
 712 0100 40000000 		.word	.LC17
 713 0104 58000000 		.word	.LC19
 714              		.cfi_endproc
 715              	.LFE9:
 716              		.size	ak_aes_encrypt_and_pack, .-ak_aes_encrypt_and_pack
 717              		.section	.text.ak_aes_unpack_and_decrypt,"ax",%progbits
 718              		.align	2
 719              		.global	ak_aes_unpack_and_decrypt
 720              		.code	16
 721              		.thumb_func
 722              		.type	ak_aes_unpack_and_decrypt, %function
 723              	ak_aes_unpack_and_decrypt:
 724              	.LFB10:
 151:ak_aes_crypto.c **** 
 152:ak_aes_crypto.c **** int ak_aes_unpack_and_decrypt(ak_aes_context *ctx,
 153:ak_aes_crypto.c ****                               const uint8_t *package, size_t package_size,
 154:ak_aes_crypto.c ****                               uint8_t *plain_data) {
 725              		.loc 2 154 0
 726              		.cfi_startproc
 727              		@ args = 0, pretend = 0, frame = 80
ARM GAS  C:\Users\andrew\AppData\Local\Temp\ccyY92Rm.s 			page 18


 728              		@ frame_needed = 1, uses_anonymous_args = 0
 729 0000 F0B5     		push	{r4, r5, r6, r7, lr}
 730              		.cfi_def_cfa_offset 20
 731              		.cfi_offset 4, -20
 732              		.cfi_offset 5, -16
 733              		.cfi_offset 6, -12
 734              		.cfi_offset 7, -8
 735              		.cfi_offset 14, -4
 736 0002 97B0     		sub	sp, sp, #92
 737              		.cfi_def_cfa_offset 112
 738 0004 02AF     		add	r7, sp, #8
 739              		.cfi_def_cfa 7, 104
 740 0006 F862     		str	r0, [r7, #44]
 741 0008 B962     		str	r1, [r7, #40]
 742 000a 7A62     		str	r2, [r7, #36]
 743 000c 3B62     		str	r3, [r7, #32]
 744              		.loc 2 154 0
 745 000e 6B46     		mov	r3, sp
 746 0010 7B60     		str	r3, [r7, #4]
 155:ak_aes_crypto.c ****     size_t encrypted_data_size = package_size - TAG_SIZE;
 747              		.loc 2 155 0
 748 0012 7B6A     		ldr	r3, [r7, #36]
 749 0014 103B     		subs	r3, r3, #16
 750 0016 FB64     		str	r3, [r7, #76]
 156:ak_aes_crypto.c ****     uint8_t encrypted_data[encrypted_data_size], tag[TAG_SIZE];
 751              		.loc 2 156 0
 752 0018 FB6C     		ldr	r3, [r7, #76]
 753 001a 1A00     		movs	r2, r3
 754 001c 013A     		subs	r2, r2, #1
 755 001e BA64     		str	r2, [r7, #72]
 756 0020 3B61     		str	r3, [r7, #16]
 757 0022 0022     		movs	r2, #0
 758 0024 7A61     		str	r2, [r7, #20]
 759 0026 3869     		ldr	r0, [r7, #16]
 760 0028 7969     		ldr	r1, [r7, #20]
 761 002a 0200     		movs	r2, r0
 762 002c 520F     		lsrs	r2, r2, #29
 763 002e 0E00     		movs	r6, r1
 764 0030 F600     		lsls	r6, r6, #3
 765 0032 FE61     		str	r6, [r7, #28]
 766 0034 FE69     		ldr	r6, [r7, #28]
 767 0036 1643     		orrs	r6, r2
 768 0038 FE61     		str	r6, [r7, #28]
 769 003a 0200     		movs	r2, r0
 770 003c D200     		lsls	r2, r2, #3
 771 003e BA61     		str	r2, [r7, #24]
 772 0040 BB60     		str	r3, [r7, #8]
 773 0042 0022     		movs	r2, #0
 774 0044 FA60     		str	r2, [r7, #12]
 775 0046 B868     		ldr	r0, [r7, #8]
 776 0048 F968     		ldr	r1, [r7, #12]
 777 004a 0200     		movs	r2, r0
 778 004c 520F     		lsrs	r2, r2, #29
 779 004e 0E00     		movs	r6, r1
 780 0050 F500     		lsls	r5, r6, #3
 781 0052 1543     		orrs	r5, r2
 782 0054 0200     		movs	r2, r0
ARM GAS  C:\Users\andrew\AppData\Local\Temp\ccyY92Rm.s 			page 19


 783 0056 D400     		lsls	r4, r2, #3
 784 0058 0733     		adds	r3, r3, #7
 785 005a DB08     		lsrs	r3, r3, #3
 786 005c DB00     		lsls	r3, r3, #3
 787 005e 6A46     		mov	r2, sp
 788 0060 D31A     		subs	r3, r2, r3
 789 0062 9D46     		mov	sp, r3
 790 0064 02AB     		add	r3, sp, #8
 791 0066 0033     		adds	r3, r3, #0
 792 0068 7B64     		str	r3, [r7, #68]
 157:ak_aes_crypto.c ****     
 158:ak_aes_crypto.c ****     printf("package = \r\n");
 793              		.loc 2 158 0
 794 006a 254B     		ldr	r3, .L26
 795 006c 1800     		movs	r0, r3
 796 006e FFF7FEFF 		bl	puts
 159:ak_aes_crypto.c ****     c_print(package, TAG_SIZE + package_size);
 797              		.loc 2 159 0
 798 0072 7B6A     		ldr	r3, [r7, #36]
 799 0074 1033     		adds	r3, r3, #16
 800 0076 1A00     		movs	r2, r3
 801 0078 BB6A     		ldr	r3, [r7, #40]
 802 007a 1100     		movs	r1, r2
 803 007c 1800     		movs	r0, r3
 804 007e FFF7FEFF 		bl	c_print
 160:ak_aes_crypto.c ****     
 161:ak_aes_crypto.c ****     // copy tag first
 162:ak_aes_crypto.c ****     memcpy(tag, package, TAG_SIZE);
 805              		.loc 2 162 0
 806 0082 1423     		movs	r3, #20
 807 0084 2022     		movs	r2, #32
 808 0086 BA18     		adds	r2, r7, r2
 809 0088 D218     		adds	r2, r2, r3
 810 008a BB6A     		ldr	r3, [r7, #40]
 811 008c 1000     		movs	r0, r2
 812 008e 1900     		movs	r1, r3
 813 0090 1023     		movs	r3, #16
 814 0092 1A00     		movs	r2, r3
 815 0094 FFF7FEFF 		bl	memcpy
 163:ak_aes_crypto.c ****     
 164:ak_aes_crypto.c ****     printf("tag = \r\n");
 816              		.loc 2 164 0
 817 0098 1A4B     		ldr	r3, .L26+4
 818 009a 1800     		movs	r0, r3
 819 009c FFF7FEFF 		bl	puts
 165:ak_aes_crypto.c ****     c_print(tag, TAG_SIZE);
 820              		.loc 2 165 0
 821 00a0 1423     		movs	r3, #20
 822 00a2 2022     		movs	r2, #32
 823 00a4 9446     		mov	ip, r2
 824 00a6 BC44     		add	ip, ip, r7
 825 00a8 6344     		add	r3, r3, ip
 826 00aa 1021     		movs	r1, #16
 827 00ac 1800     		movs	r0, r3
 828 00ae FFF7FEFF 		bl	c_print
 166:ak_aes_crypto.c ****     
 167:ak_aes_crypto.c ****     // then message
ARM GAS  C:\Users\andrew\AppData\Local\Temp\ccyY92Rm.s 			page 20


 168:ak_aes_crypto.c ****     memcpy(encrypted_data,package + TAG_SIZE, encrypted_data_size);
 829              		.loc 2 168 0
 830 00b2 786C     		ldr	r0, [r7, #68]
 831 00b4 BB6A     		ldr	r3, [r7, #40]
 832 00b6 1033     		adds	r3, r3, #16
 833 00b8 FA6C     		ldr	r2, [r7, #76]
 834 00ba 1900     		movs	r1, r3
 835 00bc FFF7FEFF 		bl	memcpy
 169:ak_aes_crypto.c ****     
 170:ak_aes_crypto.c ****     printf("encrypted message = \r\n");
 836              		.loc 2 170 0
 837 00c0 114B     		ldr	r3, .L26+8
 838 00c2 1800     		movs	r0, r3
 839 00c4 FFF7FEFF 		bl	puts
 171:ak_aes_crypto.c ****     c_print(encrypted_data, encrypted_data_size);
 840              		.loc 2 171 0
 841 00c8 7B6C     		ldr	r3, [r7, #68]
 842 00ca FA6C     		ldr	r2, [r7, #76]
 843 00cc 1100     		movs	r1, r2
 844 00ce 1800     		movs	r0, r3
 845 00d0 FFF7FEFF 		bl	c_print
 172:ak_aes_crypto.c ****     
 173:ak_aes_crypto.c ****     return ak_aes_decrypt(ctx, encrypted_data, encrypted_data_size, tag, TAG_SIZE, plain_data);
 846              		.loc 2 173 0
 847 00d4 796C     		ldr	r1, [r7, #68]
 848 00d6 1423     		movs	r3, #20
 849 00d8 2022     		movs	r2, #32
 850 00da BA18     		adds	r2, r7, r2
 851 00dc D418     		adds	r4, r2, r3
 852 00de FA6C     		ldr	r2, [r7, #76]
 853 00e0 F86A     		ldr	r0, [r7, #44]
 854 00e2 3B6A     		ldr	r3, [r7, #32]
 855 00e4 0193     		str	r3, [sp, #4]
 856 00e6 1023     		movs	r3, #16
 857 00e8 0093     		str	r3, [sp]
 858 00ea 2300     		movs	r3, r4
 859 00ec FFF7FEFF 		bl	ak_aes_decrypt
 860 00f0 0300     		movs	r3, r0
 861 00f2 7A68     		ldr	r2, [r7, #4]
 862 00f4 9546     		mov	sp, r2
 174:ak_aes_crypto.c **** }
 863              		.loc 2 174 0
 864 00f6 1800     		movs	r0, r3
 865 00f8 BD46     		mov	sp, r7
 866 00fa 15B0     		add	sp, sp, #84
 867              		@ sp needed
 868 00fc F0BD     		pop	{r4, r5, r6, r7, pc}
 869              	.L27:
 870 00fe C046     		.align	2
 871              	.L26:
 872 0100 58000000 		.word	.LC19
 873 0104 38000000 		.word	.LC15
 874 0108 40000000 		.word	.LC17
 875              		.cfi_endproc
 876              	.LFE10:
 877              		.size	ak_aes_unpack_and_decrypt, .-ak_aes_unpack_and_decrypt
 878              		.text
ARM GAS  C:\Users\andrew\AppData\Local\Temp\ccyY92Rm.s 			page 21


 879              	.Letext0:
 880              		.file 3 "c:\\program files (x86)\\cypress\\psoc creator\\4.1\\psoc creator\\import\\gnu\\arm\\5.4.
 881              		.file 4 "c:\\program files (x86)\\cypress\\psoc creator\\4.1\\psoc creator\\import\\gnu\\arm\\5.4.
 882              		.file 5 "c:\\program files (x86)\\cypress\\psoc creator\\4.1\\psoc creator\\import\\gnu\\arm\\5.4.
 883              		.file 6 "prp.h"
 884              		.file 7 "aes.h"
 885              		.file 8 "ak_aes_crypto.h"