ARM GAS  C:\Users\andrew\AppData\Local\Temp\ccIWrBuE.s 			page 1


   1              		.syntax unified
   2              		.cpu cortex-m0
   3              		.fpu softvfp
   4              		.eabi_attribute 20, 1
   5              		.eabi_attribute 21, 1
   6              		.eabi_attribute 23, 3
   7              		.eabi_attribute 24, 1
   8              		.eabi_attribute 25, 1
   9              		.eabi_attribute 26, 1
  10              		.eabi_attribute 30, 6
  11              		.eabi_attribute 34, 0
  12              		.eabi_attribute 18, 4
  13              		.thumb
  14              		.syntax unified
  15              		.file	"BLE_bless_isr.c"
  16              		.text
  17              	.Ltext0:
  18              		.cfi_sections	.debug_frame
  19              		.section	.text.BLE_bless_isr_Start,"ax",%progbits
  20              		.align	2
  21              		.global	BLE_bless_isr_Start
  22              		.code	16
  23              		.thumb_func
  24              		.type	BLE_bless_isr_Start, %function
  25              	BLE_bless_isr_Start:
  26              	.LFB2:
  27              		.file 1 "Generated_Source\\PSoC4\\BLE_bless_isr.c"
   1:Generated_Source\PSoC4/BLE_bless_isr.c **** /*******************************************************************************
   2:Generated_Source\PSoC4/BLE_bless_isr.c **** * File Name: BLE_bless_isr.c  
   3:Generated_Source\PSoC4/BLE_bless_isr.c **** * Version 1.70
   4:Generated_Source\PSoC4/BLE_bless_isr.c **** *
   5:Generated_Source\PSoC4/BLE_bless_isr.c **** *  Description:
   6:Generated_Source\PSoC4/BLE_bless_isr.c **** *   API for controlling the state of an interrupt.
   7:Generated_Source\PSoC4/BLE_bless_isr.c **** *
   8:Generated_Source\PSoC4/BLE_bless_isr.c **** *
   9:Generated_Source\PSoC4/BLE_bless_isr.c **** *  Note:
  10:Generated_Source\PSoC4/BLE_bless_isr.c **** *
  11:Generated_Source\PSoC4/BLE_bless_isr.c **** ********************************************************************************
  12:Generated_Source\PSoC4/BLE_bless_isr.c **** * Copyright 2008-2015, Cypress Semiconductor Corporation.  All rights reserved.
  13:Generated_Source\PSoC4/BLE_bless_isr.c **** * You may use this file only in accordance with the license, terms, conditions, 
  14:Generated_Source\PSoC4/BLE_bless_isr.c **** * disclaimers, and limitations in the end user license agreement accompanying 
  15:Generated_Source\PSoC4/BLE_bless_isr.c **** * the software package with which this file was provided.
  16:Generated_Source\PSoC4/BLE_bless_isr.c **** *******************************************************************************/
  17:Generated_Source\PSoC4/BLE_bless_isr.c **** 
  18:Generated_Source\PSoC4/BLE_bless_isr.c **** 
  19:Generated_Source\PSoC4/BLE_bless_isr.c **** #include <cydevice_trm.h>
  20:Generated_Source\PSoC4/BLE_bless_isr.c **** #include <CyLib.h>
  21:Generated_Source\PSoC4/BLE_bless_isr.c **** #include <BLE_bless_isr.h>
  22:Generated_Source\PSoC4/BLE_bless_isr.c **** 
  23:Generated_Source\PSoC4/BLE_bless_isr.c **** 
  24:Generated_Source\PSoC4/BLE_bless_isr.c **** #if !defined(BLE_bless_isr__REMOVED) /* Check for removal by optimization */
  25:Generated_Source\PSoC4/BLE_bless_isr.c **** 
  26:Generated_Source\PSoC4/BLE_bless_isr.c **** /*******************************************************************************
  27:Generated_Source\PSoC4/BLE_bless_isr.c **** *  Place your includes, defines and code here 
  28:Generated_Source\PSoC4/BLE_bless_isr.c **** ********************************************************************************/
  29:Generated_Source\PSoC4/BLE_bless_isr.c **** /* `#START BLE_bless_isr_intc` */
  30:Generated_Source\PSoC4/BLE_bless_isr.c **** 
ARM GAS  C:\Users\andrew\AppData\Local\Temp\ccIWrBuE.s 			page 2


  31:Generated_Source\PSoC4/BLE_bless_isr.c **** /* `#END` */
  32:Generated_Source\PSoC4/BLE_bless_isr.c **** 
  33:Generated_Source\PSoC4/BLE_bless_isr.c **** extern cyisraddress CyRamVectors[CYINT_IRQ_BASE + CY_NUM_INTERRUPTS];
  34:Generated_Source\PSoC4/BLE_bless_isr.c **** 
  35:Generated_Source\PSoC4/BLE_bless_isr.c **** /* Declared in startup, used to set unused interrupts to. */
  36:Generated_Source\PSoC4/BLE_bless_isr.c **** CY_ISR_PROTO(IntDefaultHandler);
  37:Generated_Source\PSoC4/BLE_bless_isr.c **** 
  38:Generated_Source\PSoC4/BLE_bless_isr.c **** 
  39:Generated_Source\PSoC4/BLE_bless_isr.c **** /*******************************************************************************
  40:Generated_Source\PSoC4/BLE_bless_isr.c **** * Function Name: BLE_bless_isr_Start
  41:Generated_Source\PSoC4/BLE_bless_isr.c **** ********************************************************************************
  42:Generated_Source\PSoC4/BLE_bless_isr.c **** *
  43:Generated_Source\PSoC4/BLE_bless_isr.c **** * Summary:
  44:Generated_Source\PSoC4/BLE_bless_isr.c **** *  Set up the interrupt and enable it. This function disables the interrupt, 
  45:Generated_Source\PSoC4/BLE_bless_isr.c **** *  sets the default interrupt vector, sets the priority from the value in the
  46:Generated_Source\PSoC4/BLE_bless_isr.c **** *  Design Wide Resources Interrupt Editor, then enables the interrupt to the 
  47:Generated_Source\PSoC4/BLE_bless_isr.c **** *  interrupt controller.
  48:Generated_Source\PSoC4/BLE_bless_isr.c **** *
  49:Generated_Source\PSoC4/BLE_bless_isr.c **** * Parameters:  
  50:Generated_Source\PSoC4/BLE_bless_isr.c **** *   None
  51:Generated_Source\PSoC4/BLE_bless_isr.c **** *
  52:Generated_Source\PSoC4/BLE_bless_isr.c **** * Return:
  53:Generated_Source\PSoC4/BLE_bless_isr.c **** *   None
  54:Generated_Source\PSoC4/BLE_bless_isr.c **** *
  55:Generated_Source\PSoC4/BLE_bless_isr.c **** *******************************************************************************/
  56:Generated_Source\PSoC4/BLE_bless_isr.c **** void BLE_bless_isr_Start(void)
  57:Generated_Source\PSoC4/BLE_bless_isr.c **** {
  28              		.loc 1 57 0
  29              		.cfi_startproc
  30              		@ args = 0, pretend = 0, frame = 0
  31              		@ frame_needed = 0, uses_anonymous_args = 0
  32 0000 10B5     		push	{r4, lr}
  33              		.cfi_def_cfa_offset 8
  34              		.cfi_offset 4, -8
  35              		.cfi_offset 14, -4
  58:Generated_Source\PSoC4/BLE_bless_isr.c ****     /* For all we know the interrupt is active. */
  59:Generated_Source\PSoC4/BLE_bless_isr.c ****     BLE_bless_isr_Disable();
  36              		.loc 1 59 0
  37 0002 FFF7FEFF 		bl	BLE_bless_isr_Disable
  60:Generated_Source\PSoC4/BLE_bless_isr.c **** 
  61:Generated_Source\PSoC4/BLE_bless_isr.c ****     /* Set the ISR to point to the BLE_bless_isr Interrupt. */
  62:Generated_Source\PSoC4/BLE_bless_isr.c ****     BLE_bless_isr_SetVector(&BLE_bless_isr_Interrupt);
  38              		.loc 1 62 0
  39 0006 054B     		ldr	r3, .L2
  40 0008 1800     		movs	r0, r3
  41 000a FFF7FEFF 		bl	BLE_bless_isr_SetVector
  63:Generated_Source\PSoC4/BLE_bless_isr.c **** 
  64:Generated_Source\PSoC4/BLE_bless_isr.c ****     /* Set the priority. */
  65:Generated_Source\PSoC4/BLE_bless_isr.c ****     BLE_bless_isr_SetPriority((uint8)BLE_bless_isr_INTC_PRIOR_NUMBER);
  42              		.loc 1 65 0
  43 000e 0020     		movs	r0, #0
  44 0010 FFF7FEFF 		bl	BLE_bless_isr_SetPriority
  66:Generated_Source\PSoC4/BLE_bless_isr.c **** 
  67:Generated_Source\PSoC4/BLE_bless_isr.c ****     /* Enable it. */
  68:Generated_Source\PSoC4/BLE_bless_isr.c ****     BLE_bless_isr_Enable();
  45              		.loc 1 68 0
  46 0014 FFF7FEFF 		bl	BLE_bless_isr_Enable
ARM GAS  C:\Users\andrew\AppData\Local\Temp\ccIWrBuE.s 			page 3


  69:Generated_Source\PSoC4/BLE_bless_isr.c **** }
  47              		.loc 1 69 0
  48 0018 C046     		nop
  49              		@ sp needed
  50 001a 10BD     		pop	{r4, pc}
  51              	.L3:
  52              		.align	2
  53              	.L2:
  54 001c 00000000 		.word	BLE_bless_isr_Interrupt
  55              		.cfi_endproc
  56              	.LFE2:
  57              		.size	BLE_bless_isr_Start, .-BLE_bless_isr_Start
  58              		.section	.text.BLE_bless_isr_StartEx,"ax",%progbits
  59              		.align	2
  60              		.global	BLE_bless_isr_StartEx
  61              		.code	16
  62              		.thumb_func
  63              		.type	BLE_bless_isr_StartEx, %function
  64              	BLE_bless_isr_StartEx:
  65              	.LFB3:
  70:Generated_Source\PSoC4/BLE_bless_isr.c **** 
  71:Generated_Source\PSoC4/BLE_bless_isr.c **** 
  72:Generated_Source\PSoC4/BLE_bless_isr.c **** /*******************************************************************************
  73:Generated_Source\PSoC4/BLE_bless_isr.c **** * Function Name: BLE_bless_isr_StartEx
  74:Generated_Source\PSoC4/BLE_bless_isr.c **** ********************************************************************************
  75:Generated_Source\PSoC4/BLE_bless_isr.c **** *
  76:Generated_Source\PSoC4/BLE_bless_isr.c **** * Summary:
  77:Generated_Source\PSoC4/BLE_bless_isr.c **** *  Sets up the interrupt and enables it. This function disables the interrupt,
  78:Generated_Source\PSoC4/BLE_bless_isr.c **** *  sets the interrupt vector based on the address passed in, sets the priority 
  79:Generated_Source\PSoC4/BLE_bless_isr.c **** *  from the value in the Design Wide Resources Interrupt Editor, then enables 
  80:Generated_Source\PSoC4/BLE_bless_isr.c **** *  the interrupt to the interrupt controller.
  81:Generated_Source\PSoC4/BLE_bless_isr.c **** *  
  82:Generated_Source\PSoC4/BLE_bless_isr.c **** *  When defining ISR functions, the CY_ISR and CY_ISR_PROTO macros should be 
  83:Generated_Source\PSoC4/BLE_bless_isr.c **** *  used to provide consistent definition across compilers:
  84:Generated_Source\PSoC4/BLE_bless_isr.c **** *  
  85:Generated_Source\PSoC4/BLE_bless_isr.c **** *  Function definition example:
  86:Generated_Source\PSoC4/BLE_bless_isr.c **** *   CY_ISR(MyISR)
  87:Generated_Source\PSoC4/BLE_bless_isr.c **** *   {
  88:Generated_Source\PSoC4/BLE_bless_isr.c **** *   }
  89:Generated_Source\PSoC4/BLE_bless_isr.c **** *   Function prototype example:
  90:Generated_Source\PSoC4/BLE_bless_isr.c **** *   CY_ISR_PROTO(MyISR);
  91:Generated_Source\PSoC4/BLE_bless_isr.c **** *
  92:Generated_Source\PSoC4/BLE_bless_isr.c **** * Parameters:  
  93:Generated_Source\PSoC4/BLE_bless_isr.c **** *   address: Address of the ISR to set in the interrupt vector table.
  94:Generated_Source\PSoC4/BLE_bless_isr.c **** *
  95:Generated_Source\PSoC4/BLE_bless_isr.c **** * Return:
  96:Generated_Source\PSoC4/BLE_bless_isr.c **** *   None
  97:Generated_Source\PSoC4/BLE_bless_isr.c **** *
  98:Generated_Source\PSoC4/BLE_bless_isr.c **** *******************************************************************************/
  99:Generated_Source\PSoC4/BLE_bless_isr.c **** void BLE_bless_isr_StartEx(cyisraddress address)
 100:Generated_Source\PSoC4/BLE_bless_isr.c **** {
  66              		.loc 1 100 0
  67              		.cfi_startproc
  68              		@ args = 0, pretend = 0, frame = 8
  69              		@ frame_needed = 0, uses_anonymous_args = 0
  70 0000 00B5     		push	{lr}
  71              		.cfi_def_cfa_offset 4
ARM GAS  C:\Users\andrew\AppData\Local\Temp\ccIWrBuE.s 			page 4


  72              		.cfi_offset 14, -4
  73 0002 83B0     		sub	sp, sp, #12
  74              		.cfi_def_cfa_offset 16
  75 0004 0190     		str	r0, [sp, #4]
 101:Generated_Source\PSoC4/BLE_bless_isr.c ****     /* For all we know the interrupt is active. */
 102:Generated_Source\PSoC4/BLE_bless_isr.c ****     BLE_bless_isr_Disable();
  76              		.loc 1 102 0
  77 0006 FFF7FEFF 		bl	BLE_bless_isr_Disable
 103:Generated_Source\PSoC4/BLE_bless_isr.c **** 
 104:Generated_Source\PSoC4/BLE_bless_isr.c ****     /* Set the ISR to point to the BLE_bless_isr Interrupt. */
 105:Generated_Source\PSoC4/BLE_bless_isr.c ****     BLE_bless_isr_SetVector(address);
  78              		.loc 1 105 0
  79 000a 019B     		ldr	r3, [sp, #4]
  80 000c 1800     		movs	r0, r3
  81 000e FFF7FEFF 		bl	BLE_bless_isr_SetVector
 106:Generated_Source\PSoC4/BLE_bless_isr.c **** 
 107:Generated_Source\PSoC4/BLE_bless_isr.c ****     /* Set the priority. */
 108:Generated_Source\PSoC4/BLE_bless_isr.c ****     BLE_bless_isr_SetPriority((uint8)BLE_bless_isr_INTC_PRIOR_NUMBER);
  82              		.loc 1 108 0
  83 0012 0020     		movs	r0, #0
  84 0014 FFF7FEFF 		bl	BLE_bless_isr_SetPriority
 109:Generated_Source\PSoC4/BLE_bless_isr.c **** 
 110:Generated_Source\PSoC4/BLE_bless_isr.c ****     /* Enable it. */
 111:Generated_Source\PSoC4/BLE_bless_isr.c ****     BLE_bless_isr_Enable();
  85              		.loc 1 111 0
  86 0018 FFF7FEFF 		bl	BLE_bless_isr_Enable
 112:Generated_Source\PSoC4/BLE_bless_isr.c **** }
  87              		.loc 1 112 0
  88 001c C046     		nop
  89 001e 03B0     		add	sp, sp, #12
  90              		@ sp needed
  91 0020 00BD     		pop	{pc}
  92              		.cfi_endproc
  93              	.LFE3:
  94              		.size	BLE_bless_isr_StartEx, .-BLE_bless_isr_StartEx
  95 0022 C046     		.section	.text.BLE_bless_isr_Stop,"ax",%progbits
  96              		.align	2
  97              		.global	BLE_bless_isr_Stop
  98              		.code	16
  99              		.thumb_func
 100              		.type	BLE_bless_isr_Stop, %function
 101              	BLE_bless_isr_Stop:
 102              	.LFB4:
 113:Generated_Source\PSoC4/BLE_bless_isr.c **** 
 114:Generated_Source\PSoC4/BLE_bless_isr.c **** 
 115:Generated_Source\PSoC4/BLE_bless_isr.c **** /*******************************************************************************
 116:Generated_Source\PSoC4/BLE_bless_isr.c **** * Function Name: BLE_bless_isr_Stop
 117:Generated_Source\PSoC4/BLE_bless_isr.c **** ********************************************************************************
 118:Generated_Source\PSoC4/BLE_bless_isr.c **** *
 119:Generated_Source\PSoC4/BLE_bless_isr.c **** * Summary:
 120:Generated_Source\PSoC4/BLE_bless_isr.c **** *   Disables and removes the interrupt.
 121:Generated_Source\PSoC4/BLE_bless_isr.c **** *
 122:Generated_Source\PSoC4/BLE_bless_isr.c **** * Parameters:  
 123:Generated_Source\PSoC4/BLE_bless_isr.c **** *   None
 124:Generated_Source\PSoC4/BLE_bless_isr.c **** *
 125:Generated_Source\PSoC4/BLE_bless_isr.c **** * Return:
 126:Generated_Source\PSoC4/BLE_bless_isr.c **** *   None
ARM GAS  C:\Users\andrew\AppData\Local\Temp\ccIWrBuE.s 			page 5


 127:Generated_Source\PSoC4/BLE_bless_isr.c **** *
 128:Generated_Source\PSoC4/BLE_bless_isr.c **** *******************************************************************************/
 129:Generated_Source\PSoC4/BLE_bless_isr.c **** void BLE_bless_isr_Stop(void)
 130:Generated_Source\PSoC4/BLE_bless_isr.c **** {
 103              		.loc 1 130 0
 104              		.cfi_startproc
 105              		@ args = 0, pretend = 0, frame = 0
 106              		@ frame_needed = 0, uses_anonymous_args = 0
 107 0000 10B5     		push	{r4, lr}
 108              		.cfi_def_cfa_offset 8
 109              		.cfi_offset 4, -8
 110              		.cfi_offset 14, -4
 131:Generated_Source\PSoC4/BLE_bless_isr.c ****     /* Disable this interrupt. */
 132:Generated_Source\PSoC4/BLE_bless_isr.c ****     BLE_bless_isr_Disable();
 111              		.loc 1 132 0
 112 0002 FFF7FEFF 		bl	BLE_bless_isr_Disable
 133:Generated_Source\PSoC4/BLE_bless_isr.c **** 
 134:Generated_Source\PSoC4/BLE_bless_isr.c ****     /* Set the ISR to point to the passive one. */
 135:Generated_Source\PSoC4/BLE_bless_isr.c ****     BLE_bless_isr_SetVector(&IntDefaultHandler);
 113              		.loc 1 135 0
 114 0006 034B     		ldr	r3, .L6
 115 0008 1800     		movs	r0, r3
 116 000a FFF7FEFF 		bl	BLE_bless_isr_SetVector
 136:Generated_Source\PSoC4/BLE_bless_isr.c **** }
 117              		.loc 1 136 0
 118 000e C046     		nop
 119              		@ sp needed
 120 0010 10BD     		pop	{r4, pc}
 121              	.L7:
 122 0012 C046     		.align	2
 123              	.L6:
 124 0014 00000000 		.word	IntDefaultHandler
 125              		.cfi_endproc
 126              	.LFE4:
 127              		.size	BLE_bless_isr_Stop, .-BLE_bless_isr_Stop
 128              		.section	.text.BLE_bless_isr_Interrupt,"ax",%progbits
 129              		.align	2
 130              		.global	BLE_bless_isr_Interrupt
 131              		.code	16
 132              		.thumb_func
 133              		.type	BLE_bless_isr_Interrupt, %function
 134              	BLE_bless_isr_Interrupt:
 135              	.LFB5:
 137:Generated_Source\PSoC4/BLE_bless_isr.c **** 
 138:Generated_Source\PSoC4/BLE_bless_isr.c **** 
 139:Generated_Source\PSoC4/BLE_bless_isr.c **** /*******************************************************************************
 140:Generated_Source\PSoC4/BLE_bless_isr.c **** * Function Name: BLE_bless_isr_Interrupt
 141:Generated_Source\PSoC4/BLE_bless_isr.c **** ********************************************************************************
 142:Generated_Source\PSoC4/BLE_bless_isr.c **** *
 143:Generated_Source\PSoC4/BLE_bless_isr.c **** * Summary:
 144:Generated_Source\PSoC4/BLE_bless_isr.c **** *   The default Interrupt Service Routine for BLE_bless_isr.
 145:Generated_Source\PSoC4/BLE_bless_isr.c **** *
 146:Generated_Source\PSoC4/BLE_bless_isr.c **** *   Add custom code between the START and END comments to keep the next version
 147:Generated_Source\PSoC4/BLE_bless_isr.c **** *   of this file from over-writing your code.
 148:Generated_Source\PSoC4/BLE_bless_isr.c **** *
 149:Generated_Source\PSoC4/BLE_bless_isr.c **** *   Note You may use either the default ISR by using this API, or you may define
 150:Generated_Source\PSoC4/BLE_bless_isr.c **** *   your own separate ISR through ISR_StartEx().
ARM GAS  C:\Users\andrew\AppData\Local\Temp\ccIWrBuE.s 			page 6


 151:Generated_Source\PSoC4/BLE_bless_isr.c **** *
 152:Generated_Source\PSoC4/BLE_bless_isr.c **** * Parameters:  
 153:Generated_Source\PSoC4/BLE_bless_isr.c **** *   None
 154:Generated_Source\PSoC4/BLE_bless_isr.c **** *
 155:Generated_Source\PSoC4/BLE_bless_isr.c **** * Return:
 156:Generated_Source\PSoC4/BLE_bless_isr.c **** *   None
 157:Generated_Source\PSoC4/BLE_bless_isr.c **** *
 158:Generated_Source\PSoC4/BLE_bless_isr.c **** *******************************************************************************/
 159:Generated_Source\PSoC4/BLE_bless_isr.c **** CY_ISR(BLE_bless_isr_Interrupt)
 160:Generated_Source\PSoC4/BLE_bless_isr.c **** {
 136              		.loc 1 160 0
 137              		.cfi_startproc
 138              		@ args = 0, pretend = 0, frame = 0
 139              		@ frame_needed = 0, uses_anonymous_args = 0
 140              		@ link register save eliminated.
 161:Generated_Source\PSoC4/BLE_bless_isr.c ****     #ifdef BLE_bless_isr_INTERRUPT_INTERRUPT_CALLBACK
 162:Generated_Source\PSoC4/BLE_bless_isr.c ****         BLE_bless_isr_Interrupt_InterruptCallback();
 163:Generated_Source\PSoC4/BLE_bless_isr.c ****     #endif /* BLE_bless_isr_INTERRUPT_INTERRUPT_CALLBACK */ 
 164:Generated_Source\PSoC4/BLE_bless_isr.c **** 
 165:Generated_Source\PSoC4/BLE_bless_isr.c ****     /*  Place your Interrupt code here. */
 166:Generated_Source\PSoC4/BLE_bless_isr.c ****     /* `#START BLE_bless_isr_Interrupt` */
 167:Generated_Source\PSoC4/BLE_bless_isr.c **** 
 168:Generated_Source\PSoC4/BLE_bless_isr.c ****     /* `#END` */
 169:Generated_Source\PSoC4/BLE_bless_isr.c **** }
 141              		.loc 1 169 0
 142 0000 C046     		nop
 143              		@ sp needed
 144 0002 7047     		bx	lr
 145              		.cfi_endproc
 146              	.LFE5:
 147              		.size	BLE_bless_isr_Interrupt, .-BLE_bless_isr_Interrupt
 148              		.section	.text.BLE_bless_isr_SetVector,"ax",%progbits
 149              		.align	2
 150              		.global	BLE_bless_isr_SetVector
 151              		.code	16
 152              		.thumb_func
 153              		.type	BLE_bless_isr_SetVector, %function
 154              	BLE_bless_isr_SetVector:
 155              	.LFB6:
 170:Generated_Source\PSoC4/BLE_bless_isr.c **** 
 171:Generated_Source\PSoC4/BLE_bless_isr.c **** 
 172:Generated_Source\PSoC4/BLE_bless_isr.c **** /*******************************************************************************
 173:Generated_Source\PSoC4/BLE_bless_isr.c **** * Function Name: BLE_bless_isr_SetVector
 174:Generated_Source\PSoC4/BLE_bless_isr.c **** ********************************************************************************
 175:Generated_Source\PSoC4/BLE_bless_isr.c **** *
 176:Generated_Source\PSoC4/BLE_bless_isr.c **** * Summary:
 177:Generated_Source\PSoC4/BLE_bless_isr.c **** *   Change the ISR vector for the Interrupt. Note calling BLE_bless_isr_Start
 178:Generated_Source\PSoC4/BLE_bless_isr.c **** *   will override any effect this method would have had. To set the vector 
 179:Generated_Source\PSoC4/BLE_bless_isr.c **** *   before the component has been started use BLE_bless_isr_StartEx instead.
 180:Generated_Source\PSoC4/BLE_bless_isr.c **** * 
 181:Generated_Source\PSoC4/BLE_bless_isr.c **** *   When defining ISR functions, the CY_ISR and CY_ISR_PROTO macros should be 
 182:Generated_Source\PSoC4/BLE_bless_isr.c **** *   used to provide consistent definition across compilers:
 183:Generated_Source\PSoC4/BLE_bless_isr.c **** *
 184:Generated_Source\PSoC4/BLE_bless_isr.c **** *   Function definition example:
 185:Generated_Source\PSoC4/BLE_bless_isr.c **** *   CY_ISR(MyISR)
 186:Generated_Source\PSoC4/BLE_bless_isr.c **** *   {
 187:Generated_Source\PSoC4/BLE_bless_isr.c **** *   }
ARM GAS  C:\Users\andrew\AppData\Local\Temp\ccIWrBuE.s 			page 7


 188:Generated_Source\PSoC4/BLE_bless_isr.c **** *
 189:Generated_Source\PSoC4/BLE_bless_isr.c **** *   Function prototype example:
 190:Generated_Source\PSoC4/BLE_bless_isr.c **** *     CY_ISR_PROTO(MyISR);
 191:Generated_Source\PSoC4/BLE_bless_isr.c **** *
 192:Generated_Source\PSoC4/BLE_bless_isr.c **** * Parameters:
 193:Generated_Source\PSoC4/BLE_bless_isr.c **** *   address: Address of the ISR to set in the interrupt vector table.
 194:Generated_Source\PSoC4/BLE_bless_isr.c **** *
 195:Generated_Source\PSoC4/BLE_bless_isr.c **** * Return:
 196:Generated_Source\PSoC4/BLE_bless_isr.c **** *   None
 197:Generated_Source\PSoC4/BLE_bless_isr.c **** *
 198:Generated_Source\PSoC4/BLE_bless_isr.c **** *******************************************************************************/
 199:Generated_Source\PSoC4/BLE_bless_isr.c **** void BLE_bless_isr_SetVector(cyisraddress address)
 200:Generated_Source\PSoC4/BLE_bless_isr.c **** {
 156              		.loc 1 200 0
 157              		.cfi_startproc
 158              		@ args = 0, pretend = 0, frame = 8
 159              		@ frame_needed = 0, uses_anonymous_args = 0
 160              		@ link register save eliminated.
 161 0000 82B0     		sub	sp, sp, #8
 162              		.cfi_def_cfa_offset 8
 163 0002 0190     		str	r0, [sp, #4]
 201:Generated_Source\PSoC4/BLE_bless_isr.c ****     CyRamVectors[CYINT_IRQ_BASE + BLE_bless_isr__INTC_NUMBER] = address;
 164              		.loc 1 201 0
 165 0004 024B     		ldr	r3, .L10
 166 0006 019A     		ldr	r2, [sp, #4]
 167 0008 1A67     		str	r2, [r3, #112]
 202:Generated_Source\PSoC4/BLE_bless_isr.c **** }
 168              		.loc 1 202 0
 169 000a C046     		nop
 170 000c 02B0     		add	sp, sp, #8
 171              		@ sp needed
 172 000e 7047     		bx	lr
 173              	.L11:
 174              		.align	2
 175              	.L10:
 176 0010 00000000 		.word	CyRamVectors
 177              		.cfi_endproc
 178              	.LFE6:
 179              		.size	BLE_bless_isr_SetVector, .-BLE_bless_isr_SetVector
 180              		.section	.text.BLE_bless_isr_GetVector,"ax",%progbits
 181              		.align	2
 182              		.global	BLE_bless_isr_GetVector
 183              		.code	16
 184              		.thumb_func
 185              		.type	BLE_bless_isr_GetVector, %function
 186              	BLE_bless_isr_GetVector:
 187              	.LFB7:
 203:Generated_Source\PSoC4/BLE_bless_isr.c **** 
 204:Generated_Source\PSoC4/BLE_bless_isr.c **** 
 205:Generated_Source\PSoC4/BLE_bless_isr.c **** /*******************************************************************************
 206:Generated_Source\PSoC4/BLE_bless_isr.c **** * Function Name: BLE_bless_isr_GetVector
 207:Generated_Source\PSoC4/BLE_bless_isr.c **** ********************************************************************************
 208:Generated_Source\PSoC4/BLE_bless_isr.c **** *
 209:Generated_Source\PSoC4/BLE_bless_isr.c **** * Summary:
 210:Generated_Source\PSoC4/BLE_bless_isr.c **** *   Gets the "address" of the current ISR vector for the Interrupt.
 211:Generated_Source\PSoC4/BLE_bless_isr.c **** *
 212:Generated_Source\PSoC4/BLE_bless_isr.c **** * Parameters:
ARM GAS  C:\Users\andrew\AppData\Local\Temp\ccIWrBuE.s 			page 8


 213:Generated_Source\PSoC4/BLE_bless_isr.c **** *   None
 214:Generated_Source\PSoC4/BLE_bless_isr.c **** *
 215:Generated_Source\PSoC4/BLE_bless_isr.c **** * Return:
 216:Generated_Source\PSoC4/BLE_bless_isr.c **** *   Address of the ISR in the interrupt vector table.
 217:Generated_Source\PSoC4/BLE_bless_isr.c **** *
 218:Generated_Source\PSoC4/BLE_bless_isr.c **** *******************************************************************************/
 219:Generated_Source\PSoC4/BLE_bless_isr.c **** cyisraddress BLE_bless_isr_GetVector(void)
 220:Generated_Source\PSoC4/BLE_bless_isr.c **** {
 188              		.loc 1 220 0
 189              		.cfi_startproc
 190              		@ args = 0, pretend = 0, frame = 0
 191              		@ frame_needed = 0, uses_anonymous_args = 0
 192              		@ link register save eliminated.
 221:Generated_Source\PSoC4/BLE_bless_isr.c ****     return CyRamVectors[CYINT_IRQ_BASE + BLE_bless_isr__INTC_NUMBER];
 193              		.loc 1 221 0
 194 0000 014B     		ldr	r3, .L14
 195 0002 1B6F     		ldr	r3, [r3, #112]
 222:Generated_Source\PSoC4/BLE_bless_isr.c **** }
 196              		.loc 1 222 0
 197 0004 1800     		movs	r0, r3
 198              		@ sp needed
 199 0006 7047     		bx	lr
 200              	.L15:
 201              		.align	2
 202              	.L14:
 203 0008 00000000 		.word	CyRamVectors
 204              		.cfi_endproc
 205              	.LFE7:
 206              		.size	BLE_bless_isr_GetVector, .-BLE_bless_isr_GetVector
 207              		.section	.text.BLE_bless_isr_SetPriority,"ax",%progbits
 208              		.align	2
 209              		.global	BLE_bless_isr_SetPriority
 210              		.code	16
 211              		.thumb_func
 212              		.type	BLE_bless_isr_SetPriority, %function
 213              	BLE_bless_isr_SetPriority:
 214              	.LFB8:
 223:Generated_Source\PSoC4/BLE_bless_isr.c **** 
 224:Generated_Source\PSoC4/BLE_bless_isr.c **** 
 225:Generated_Source\PSoC4/BLE_bless_isr.c **** /*******************************************************************************
 226:Generated_Source\PSoC4/BLE_bless_isr.c **** * Function Name: BLE_bless_isr_SetPriority
 227:Generated_Source\PSoC4/BLE_bless_isr.c **** ********************************************************************************
 228:Generated_Source\PSoC4/BLE_bless_isr.c **** *
 229:Generated_Source\PSoC4/BLE_bless_isr.c **** * Summary:
 230:Generated_Source\PSoC4/BLE_bless_isr.c **** *   Sets the Priority of the Interrupt. 
 231:Generated_Source\PSoC4/BLE_bless_isr.c **** *
 232:Generated_Source\PSoC4/BLE_bless_isr.c **** *   Note calling BLE_bless_isr_Start or BLE_bless_isr_StartEx will 
 233:Generated_Source\PSoC4/BLE_bless_isr.c **** *   override any effect this API would have had. This API should only be called
 234:Generated_Source\PSoC4/BLE_bless_isr.c **** *   after BLE_bless_isr_Start or BLE_bless_isr_StartEx has been called. 
 235:Generated_Source\PSoC4/BLE_bless_isr.c **** *   To set the initial priority for the component, use the Design-Wide Resources
 236:Generated_Source\PSoC4/BLE_bless_isr.c **** *   Interrupt Editor.
 237:Generated_Source\PSoC4/BLE_bless_isr.c **** *
 238:Generated_Source\PSoC4/BLE_bless_isr.c **** *   Note This API has no effect on Non-maskable interrupt NMI).
 239:Generated_Source\PSoC4/BLE_bless_isr.c **** *
 240:Generated_Source\PSoC4/BLE_bless_isr.c **** * Parameters:
 241:Generated_Source\PSoC4/BLE_bless_isr.c **** *   priority: Priority of the interrupt, 0 being the highest priority
 242:Generated_Source\PSoC4/BLE_bless_isr.c **** *             PSoC 3 and PSoC 5LP: Priority is from 0 to 7.
ARM GAS  C:\Users\andrew\AppData\Local\Temp\ccIWrBuE.s 			page 9


 243:Generated_Source\PSoC4/BLE_bless_isr.c **** *             PSoC 4: Priority is from 0 to 3.
 244:Generated_Source\PSoC4/BLE_bless_isr.c **** *
 245:Generated_Source\PSoC4/BLE_bless_isr.c **** * Return:
 246:Generated_Source\PSoC4/BLE_bless_isr.c **** *   None
 247:Generated_Source\PSoC4/BLE_bless_isr.c **** *
 248:Generated_Source\PSoC4/BLE_bless_isr.c **** *******************************************************************************/
 249:Generated_Source\PSoC4/BLE_bless_isr.c **** void BLE_bless_isr_SetPriority(uint8 priority)
 250:Generated_Source\PSoC4/BLE_bless_isr.c **** {
 215              		.loc 1 250 0
 216              		.cfi_startproc
 217              		@ args = 0, pretend = 0, frame = 16
 218              		@ frame_needed = 0, uses_anonymous_args = 0
 219 0000 10B5     		push	{r4, lr}
 220              		.cfi_def_cfa_offset 8
 221              		.cfi_offset 4, -8
 222              		.cfi_offset 14, -4
 223 0002 84B0     		sub	sp, sp, #16
 224              		.cfi_def_cfa_offset 24
 225 0004 0200     		movs	r2, r0
 226 0006 6B46     		mov	r3, sp
 227 0008 0733     		adds	r3, r3, #7
 228 000a 1A70     		strb	r2, [r3]
 251:Generated_Source\PSoC4/BLE_bless_isr.c **** 	uint8 interruptState;
 252:Generated_Source\PSoC4/BLE_bless_isr.c ****     uint32 priorityOffset = ((BLE_bless_isr__INTC_NUMBER % 4u) * 8u) + 6u;
 229              		.loc 1 252 0
 230 000c 0623     		movs	r3, #6
 231 000e 0393     		str	r3, [sp, #12]
 253:Generated_Source\PSoC4/BLE_bless_isr.c ****     
 254:Generated_Source\PSoC4/BLE_bless_isr.c **** 	interruptState = CyEnterCriticalSection();
 232              		.loc 1 254 0
 233 0010 0B24     		movs	r4, #11
 234 0012 6C44     		add	r4, r4, sp
 235 0014 FFF7FEFF 		bl	CyEnterCriticalSection
 236 0018 0300     		movs	r3, r0
 237 001a 2370     		strb	r3, [r4]
 255:Generated_Source\PSoC4/BLE_bless_isr.c ****     *BLE_bless_isr_INTC_PRIOR = (*BLE_bless_isr_INTC_PRIOR & (uint32)(~BLE_bless_isr__INTC_PRIOR_MA
 238              		.loc 1 255 0
 239 001c 0B4B     		ldr	r3, .L17
 240 001e 0B4A     		ldr	r2, .L17
 241 0020 1268     		ldr	r2, [r2]
 242 0022 C021     		movs	r1, #192
 243 0024 8A43     		bics	r2, r1
 244 0026 1100     		movs	r1, r2
 256:Generated_Source\PSoC4/BLE_bless_isr.c ****                                     ((uint32)priority << priorityOffset);
 245              		.loc 1 256 0
 246 0028 6A46     		mov	r2, sp
 247 002a 0732     		adds	r2, r2, #7
 248 002c 1078     		ldrb	r0, [r2]
 249 002e 039A     		ldr	r2, [sp, #12]
 250 0030 9040     		lsls	r0, r0, r2
 251 0032 0200     		movs	r2, r0
 255:Generated_Source\PSoC4/BLE_bless_isr.c ****     *BLE_bless_isr_INTC_PRIOR = (*BLE_bless_isr_INTC_PRIOR & (uint32)(~BLE_bless_isr__INTC_PRIOR_MA
 252              		.loc 1 255 0
 253 0034 0A43     		orrs	r2, r1
 254 0036 1A60     		str	r2, [r3]
 257:Generated_Source\PSoC4/BLE_bless_isr.c **** 	CyExitCriticalSection(interruptState);
 255              		.loc 1 257 0
ARM GAS  C:\Users\andrew\AppData\Local\Temp\ccIWrBuE.s 			page 10


 256 0038 0B23     		movs	r3, #11
 257 003a 6B44     		add	r3, r3, sp
 258 003c 1B78     		ldrb	r3, [r3]
 259 003e 1800     		movs	r0, r3
 260 0040 FFF7FEFF 		bl	CyExitCriticalSection
 258:Generated_Source\PSoC4/BLE_bless_isr.c **** }
 261              		.loc 1 258 0
 262 0044 C046     		nop
 263 0046 04B0     		add	sp, sp, #16
 264              		@ sp needed
 265 0048 10BD     		pop	{r4, pc}
 266              	.L18:
 267 004a C046     		.align	2
 268              	.L17:
 269 004c 0CE400E0 		.word	-536812532
 270              		.cfi_endproc
 271              	.LFE8:
 272              		.size	BLE_bless_isr_SetPriority, .-BLE_bless_isr_SetPriority
 273              		.section	.text.BLE_bless_isr_GetPriority,"ax",%progbits
 274              		.align	2
 275              		.global	BLE_bless_isr_GetPriority
 276              		.code	16
 277              		.thumb_func
 278              		.type	BLE_bless_isr_GetPriority, %function
 279              	BLE_bless_isr_GetPriority:
 280              	.LFB9:
 259:Generated_Source\PSoC4/BLE_bless_isr.c **** 
 260:Generated_Source\PSoC4/BLE_bless_isr.c **** 
 261:Generated_Source\PSoC4/BLE_bless_isr.c **** /*******************************************************************************
 262:Generated_Source\PSoC4/BLE_bless_isr.c **** * Function Name: BLE_bless_isr_GetPriority
 263:Generated_Source\PSoC4/BLE_bless_isr.c **** ********************************************************************************
 264:Generated_Source\PSoC4/BLE_bless_isr.c **** *
 265:Generated_Source\PSoC4/BLE_bless_isr.c **** * Summary:
 266:Generated_Source\PSoC4/BLE_bless_isr.c **** *   Gets the Priority of the Interrupt.
 267:Generated_Source\PSoC4/BLE_bless_isr.c **** *
 268:Generated_Source\PSoC4/BLE_bless_isr.c **** * Parameters:
 269:Generated_Source\PSoC4/BLE_bless_isr.c **** *   None
 270:Generated_Source\PSoC4/BLE_bless_isr.c **** *
 271:Generated_Source\PSoC4/BLE_bless_isr.c **** * Return:
 272:Generated_Source\PSoC4/BLE_bless_isr.c **** *   Priority of the interrupt, 0 being the highest priority
 273:Generated_Source\PSoC4/BLE_bless_isr.c **** *    PSoC 3 and PSoC 5LP: Priority is from 0 to 7.
 274:Generated_Source\PSoC4/BLE_bless_isr.c **** *    PSoC 4: Priority is from 0 to 3.
 275:Generated_Source\PSoC4/BLE_bless_isr.c **** *
 276:Generated_Source\PSoC4/BLE_bless_isr.c **** *******************************************************************************/
 277:Generated_Source\PSoC4/BLE_bless_isr.c **** uint8 BLE_bless_isr_GetPriority(void)
 278:Generated_Source\PSoC4/BLE_bless_isr.c **** {
 281              		.loc 1 278 0
 282              		.cfi_startproc
 283              		@ args = 0, pretend = 0, frame = 8
 284              		@ frame_needed = 0, uses_anonymous_args = 0
 285              		@ link register save eliminated.
 286 0000 82B0     		sub	sp, sp, #8
 287              		.cfi_def_cfa_offset 8
 279:Generated_Source\PSoC4/BLE_bless_isr.c ****     uint32 priority;
 280:Generated_Source\PSoC4/BLE_bless_isr.c **** 	uint32 priorityOffset = ((BLE_bless_isr__INTC_NUMBER % 4u) * 8u) + 6u;
 288              		.loc 1 280 0
 289 0002 0623     		movs	r3, #6
ARM GAS  C:\Users\andrew\AppData\Local\Temp\ccIWrBuE.s 			page 11


 290 0004 0193     		str	r3, [sp, #4]
 281:Generated_Source\PSoC4/BLE_bless_isr.c **** 
 282:Generated_Source\PSoC4/BLE_bless_isr.c ****     priority = (*BLE_bless_isr_INTC_PRIOR & BLE_bless_isr__INTC_PRIOR_MASK) >> priorityOffset;
 291              		.loc 1 282 0
 292 0006 064B     		ldr	r3, .L21
 293 0008 1B68     		ldr	r3, [r3]
 294 000a C022     		movs	r2, #192
 295 000c 1A40     		ands	r2, r3
 296 000e 019B     		ldr	r3, [sp, #4]
 297 0010 DA40     		lsrs	r2, r2, r3
 298 0012 1300     		movs	r3, r2
 299 0014 0093     		str	r3, [sp]
 283:Generated_Source\PSoC4/BLE_bless_isr.c **** 
 284:Generated_Source\PSoC4/BLE_bless_isr.c ****     return (uint8)priority;
 300              		.loc 1 284 0
 301 0016 009B     		ldr	r3, [sp]
 302 0018 DBB2     		uxtb	r3, r3
 285:Generated_Source\PSoC4/BLE_bless_isr.c **** }
 303              		.loc 1 285 0
 304 001a 1800     		movs	r0, r3
 305 001c 02B0     		add	sp, sp, #8
 306              		@ sp needed
 307 001e 7047     		bx	lr
 308              	.L22:
 309              		.align	2
 310              	.L21:
 311 0020 0CE400E0 		.word	-536812532
 312              		.cfi_endproc
 313              	.LFE9:
 314              		.size	BLE_bless_isr_GetPriority, .-BLE_bless_isr_GetPriority
 315              		.section	.text.BLE_bless_isr_Enable,"ax",%progbits
 316              		.align	2
 317              		.global	BLE_bless_isr_Enable
 318              		.code	16
 319              		.thumb_func
 320              		.type	BLE_bless_isr_Enable, %function
 321              	BLE_bless_isr_Enable:
 322              	.LFB10:
 286:Generated_Source\PSoC4/BLE_bless_isr.c **** 
 287:Generated_Source\PSoC4/BLE_bless_isr.c **** 
 288:Generated_Source\PSoC4/BLE_bless_isr.c **** /*******************************************************************************
 289:Generated_Source\PSoC4/BLE_bless_isr.c **** * Function Name: BLE_bless_isr_Enable
 290:Generated_Source\PSoC4/BLE_bless_isr.c **** ********************************************************************************
 291:Generated_Source\PSoC4/BLE_bless_isr.c **** *
 292:Generated_Source\PSoC4/BLE_bless_isr.c **** * Summary:
 293:Generated_Source\PSoC4/BLE_bless_isr.c **** *   Enables the interrupt to the interrupt controller. Do not call this function
 294:Generated_Source\PSoC4/BLE_bless_isr.c **** *   unless ISR_Start() has been called or the functionality of the ISR_Start() 
 295:Generated_Source\PSoC4/BLE_bless_isr.c **** *   function, which sets the vector and the priority, has been called.
 296:Generated_Source\PSoC4/BLE_bless_isr.c **** *
 297:Generated_Source\PSoC4/BLE_bless_isr.c **** * Parameters:
 298:Generated_Source\PSoC4/BLE_bless_isr.c **** *   None
 299:Generated_Source\PSoC4/BLE_bless_isr.c **** *
 300:Generated_Source\PSoC4/BLE_bless_isr.c **** * Return:
 301:Generated_Source\PSoC4/BLE_bless_isr.c **** *   None
 302:Generated_Source\PSoC4/BLE_bless_isr.c **** *
 303:Generated_Source\PSoC4/BLE_bless_isr.c **** *******************************************************************************/
 304:Generated_Source\PSoC4/BLE_bless_isr.c **** void BLE_bless_isr_Enable(void)
ARM GAS  C:\Users\andrew\AppData\Local\Temp\ccIWrBuE.s 			page 12


 305:Generated_Source\PSoC4/BLE_bless_isr.c **** {
 323              		.loc 1 305 0
 324              		.cfi_startproc
 325              		@ args = 0, pretend = 0, frame = 0
 326              		@ frame_needed = 0, uses_anonymous_args = 0
 327              		@ link register save eliminated.
 306:Generated_Source\PSoC4/BLE_bless_isr.c ****     /* Enable the general interrupt. */
 307:Generated_Source\PSoC4/BLE_bless_isr.c ****     *BLE_bless_isr_INTC_SET_EN = BLE_bless_isr__INTC_MASK;
 328              		.loc 1 307 0
 329 0000 024B     		ldr	r3, .L24
 330 0002 8022     		movs	r2, #128
 331 0004 5201     		lsls	r2, r2, #5
 332 0006 1A60     		str	r2, [r3]
 308:Generated_Source\PSoC4/BLE_bless_isr.c **** }
 333              		.loc 1 308 0
 334 0008 C046     		nop
 335              		@ sp needed
 336 000a 7047     		bx	lr
 337              	.L25:
 338              		.align	2
 339              	.L24:
 340 000c 00E100E0 		.word	-536813312
 341              		.cfi_endproc
 342              	.LFE10:
 343              		.size	BLE_bless_isr_Enable, .-BLE_bless_isr_Enable
 344              		.section	.text.BLE_bless_isr_GetState,"ax",%progbits
 345              		.align	2
 346              		.global	BLE_bless_isr_GetState
 347              		.code	16
 348              		.thumb_func
 349              		.type	BLE_bless_isr_GetState, %function
 350              	BLE_bless_isr_GetState:
 351              	.LFB11:
 309:Generated_Source\PSoC4/BLE_bless_isr.c **** 
 310:Generated_Source\PSoC4/BLE_bless_isr.c **** 
 311:Generated_Source\PSoC4/BLE_bless_isr.c **** /*******************************************************************************
 312:Generated_Source\PSoC4/BLE_bless_isr.c **** * Function Name: BLE_bless_isr_GetState
 313:Generated_Source\PSoC4/BLE_bless_isr.c **** ********************************************************************************
 314:Generated_Source\PSoC4/BLE_bless_isr.c **** *
 315:Generated_Source\PSoC4/BLE_bless_isr.c **** * Summary:
 316:Generated_Source\PSoC4/BLE_bless_isr.c **** *   Gets the state (enabled, disabled) of the Interrupt.
 317:Generated_Source\PSoC4/BLE_bless_isr.c **** *
 318:Generated_Source\PSoC4/BLE_bless_isr.c **** * Parameters:
 319:Generated_Source\PSoC4/BLE_bless_isr.c **** *   None
 320:Generated_Source\PSoC4/BLE_bless_isr.c **** *
 321:Generated_Source\PSoC4/BLE_bless_isr.c **** * Return:
 322:Generated_Source\PSoC4/BLE_bless_isr.c **** *   1 if enabled, 0 if disabled.
 323:Generated_Source\PSoC4/BLE_bless_isr.c **** *
 324:Generated_Source\PSoC4/BLE_bless_isr.c **** *******************************************************************************/
 325:Generated_Source\PSoC4/BLE_bless_isr.c **** uint8 BLE_bless_isr_GetState(void)
 326:Generated_Source\PSoC4/BLE_bless_isr.c **** {
 352              		.loc 1 326 0
 353              		.cfi_startproc
 354              		@ args = 0, pretend = 0, frame = 0
 355              		@ frame_needed = 0, uses_anonymous_args = 0
 356              		@ link register save eliminated.
 327:Generated_Source\PSoC4/BLE_bless_isr.c ****     /* Get the state of the general interrupt. */
ARM GAS  C:\Users\andrew\AppData\Local\Temp\ccIWrBuE.s 			page 13


 328:Generated_Source\PSoC4/BLE_bless_isr.c ****     return ((*BLE_bless_isr_INTC_SET_EN & (uint32)BLE_bless_isr__INTC_MASK) != 0u) ? 1u:0u;
 357              		.loc 1 328 0
 358 0000 054B     		ldr	r3, .L30
 359 0002 1A68     		ldr	r2, [r3]
 360 0004 8023     		movs	r3, #128
 361 0006 5B01     		lsls	r3, r3, #5
 362 0008 1340     		ands	r3, r2
 363 000a 01D0     		beq	.L27
 364              		.loc 1 328 0 is_stmt 0 discriminator 1
 365 000c 0123     		movs	r3, #1
 366 000e 00E0     		b	.L28
 367              	.L27:
 368              		.loc 1 328 0 discriminator 2
 369 0010 0023     		movs	r3, #0
 370              	.L28:
 329:Generated_Source\PSoC4/BLE_bless_isr.c **** }
 371              		.loc 1 329 0 is_stmt 1 discriminator 4
 372 0012 1800     		movs	r0, r3
 373              		@ sp needed
 374 0014 7047     		bx	lr
 375              	.L31:
 376 0016 C046     		.align	2
 377              	.L30:
 378 0018 00E100E0 		.word	-536813312
 379              		.cfi_endproc
 380              	.LFE11:
 381              		.size	BLE_bless_isr_GetState, .-BLE_bless_isr_GetState
 382              		.section	.text.BLE_bless_isr_Disable,"ax",%progbits
 383              		.align	2
 384              		.global	BLE_bless_isr_Disable
 385              		.code	16
 386              		.thumb_func
 387              		.type	BLE_bless_isr_Disable, %function
 388              	BLE_bless_isr_Disable:
 389              	.LFB12:
 330:Generated_Source\PSoC4/BLE_bless_isr.c **** 
 331:Generated_Source\PSoC4/BLE_bless_isr.c **** 
 332:Generated_Source\PSoC4/BLE_bless_isr.c **** /*******************************************************************************
 333:Generated_Source\PSoC4/BLE_bless_isr.c **** * Function Name: BLE_bless_isr_Disable
 334:Generated_Source\PSoC4/BLE_bless_isr.c **** ********************************************************************************
 335:Generated_Source\PSoC4/BLE_bless_isr.c **** *
 336:Generated_Source\PSoC4/BLE_bless_isr.c **** * Summary:
 337:Generated_Source\PSoC4/BLE_bless_isr.c **** *   Disables the Interrupt in the interrupt controller.
 338:Generated_Source\PSoC4/BLE_bless_isr.c **** *
 339:Generated_Source\PSoC4/BLE_bless_isr.c **** * Parameters:
 340:Generated_Source\PSoC4/BLE_bless_isr.c **** *   None
 341:Generated_Source\PSoC4/BLE_bless_isr.c **** *
 342:Generated_Source\PSoC4/BLE_bless_isr.c **** * Return:
 343:Generated_Source\PSoC4/BLE_bless_isr.c **** *   None
 344:Generated_Source\PSoC4/BLE_bless_isr.c **** *
 345:Generated_Source\PSoC4/BLE_bless_isr.c **** *******************************************************************************/
 346:Generated_Source\PSoC4/BLE_bless_isr.c **** void BLE_bless_isr_Disable(void)
 347:Generated_Source\PSoC4/BLE_bless_isr.c **** {
 390              		.loc 1 347 0
 391              		.cfi_startproc
 392              		@ args = 0, pretend = 0, frame = 0
 393              		@ frame_needed = 0, uses_anonymous_args = 0
ARM GAS  C:\Users\andrew\AppData\Local\Temp\ccIWrBuE.s 			page 14


 394              		@ link register save eliminated.
 348:Generated_Source\PSoC4/BLE_bless_isr.c ****     /* Disable the general interrupt. */
 349:Generated_Source\PSoC4/BLE_bless_isr.c ****     *BLE_bless_isr_INTC_CLR_EN = BLE_bless_isr__INTC_MASK;
 395              		.loc 1 349 0
 396 0000 024B     		ldr	r3, .L33
 397 0002 8022     		movs	r2, #128
 398 0004 5201     		lsls	r2, r2, #5
 399 0006 1A60     		str	r2, [r3]
 350:Generated_Source\PSoC4/BLE_bless_isr.c **** }
 400              		.loc 1 350 0
 401 0008 C046     		nop
 402              		@ sp needed
 403 000a 7047     		bx	lr
 404              	.L34:
 405              		.align	2
 406              	.L33:
 407 000c 80E100E0 		.word	-536813184
 408              		.cfi_endproc
 409              	.LFE12:
 410              		.size	BLE_bless_isr_Disable, .-BLE_bless_isr_Disable
 411              		.section	.text.BLE_bless_isr_SetPending,"ax",%progbits
 412              		.align	2
 413              		.global	BLE_bless_isr_SetPending
 414              		.code	16
 415              		.thumb_func
 416              		.type	BLE_bless_isr_SetPending, %function
 417              	BLE_bless_isr_SetPending:
 418              	.LFB13:
 351:Generated_Source\PSoC4/BLE_bless_isr.c **** 
 352:Generated_Source\PSoC4/BLE_bless_isr.c **** 
 353:Generated_Source\PSoC4/BLE_bless_isr.c **** /*******************************************************************************
 354:Generated_Source\PSoC4/BLE_bless_isr.c **** * Function Name: BLE_bless_isr_SetPending
 355:Generated_Source\PSoC4/BLE_bless_isr.c **** ********************************************************************************
 356:Generated_Source\PSoC4/BLE_bless_isr.c **** *
 357:Generated_Source\PSoC4/BLE_bless_isr.c **** * Summary:
 358:Generated_Source\PSoC4/BLE_bless_isr.c **** *   Causes the Interrupt to enter the pending state, a software method of
 359:Generated_Source\PSoC4/BLE_bless_isr.c **** *   generating the interrupt.
 360:Generated_Source\PSoC4/BLE_bless_isr.c **** *
 361:Generated_Source\PSoC4/BLE_bless_isr.c **** * Parameters:
 362:Generated_Source\PSoC4/BLE_bless_isr.c **** *   None
 363:Generated_Source\PSoC4/BLE_bless_isr.c **** *
 364:Generated_Source\PSoC4/BLE_bless_isr.c **** * Return:
 365:Generated_Source\PSoC4/BLE_bless_isr.c **** *   None
 366:Generated_Source\PSoC4/BLE_bless_isr.c **** *
 367:Generated_Source\PSoC4/BLE_bless_isr.c **** * Side Effects:
 368:Generated_Source\PSoC4/BLE_bless_isr.c **** *   If interrupts are enabled and the interrupt is set up properly, the ISR is
 369:Generated_Source\PSoC4/BLE_bless_isr.c **** *   entered (depending on the priority of this interrupt and other pending 
 370:Generated_Source\PSoC4/BLE_bless_isr.c **** *   interrupts).
 371:Generated_Source\PSoC4/BLE_bless_isr.c **** *
 372:Generated_Source\PSoC4/BLE_bless_isr.c **** *******************************************************************************/
 373:Generated_Source\PSoC4/BLE_bless_isr.c **** void BLE_bless_isr_SetPending(void)
 374:Generated_Source\PSoC4/BLE_bless_isr.c **** {
 419              		.loc 1 374 0
 420              		.cfi_startproc
 421              		@ args = 0, pretend = 0, frame = 0
 422              		@ frame_needed = 0, uses_anonymous_args = 0
 423              		@ link register save eliminated.
ARM GAS  C:\Users\andrew\AppData\Local\Temp\ccIWrBuE.s 			page 15


 375:Generated_Source\PSoC4/BLE_bless_isr.c ****     *BLE_bless_isr_INTC_SET_PD = BLE_bless_isr__INTC_MASK;
 424              		.loc 1 375 0
 425 0000 024B     		ldr	r3, .L36
 426 0002 8022     		movs	r2, #128
 427 0004 5201     		lsls	r2, r2, #5
 428 0006 1A60     		str	r2, [r3]
 376:Generated_Source\PSoC4/BLE_bless_isr.c **** }
 429              		.loc 1 376 0
 430 0008 C046     		nop
 431              		@ sp needed
 432 000a 7047     		bx	lr
 433              	.L37:
 434              		.align	2
 435              	.L36:
 436 000c 00E200E0 		.word	-536813056
 437              		.cfi_endproc
 438              	.LFE13:
 439              		.size	BLE_bless_isr_SetPending, .-BLE_bless_isr_SetPending
 440              		.section	.text.BLE_bless_isr_ClearPending,"ax",%progbits
 441              		.align	2
 442              		.global	BLE_bless_isr_ClearPending
 443              		.code	16
 444              		.thumb_func
 445              		.type	BLE_bless_isr_ClearPending, %function
 446              	BLE_bless_isr_ClearPending:
 447              	.LFB14:
 377:Generated_Source\PSoC4/BLE_bless_isr.c **** 
 378:Generated_Source\PSoC4/BLE_bless_isr.c **** 
 379:Generated_Source\PSoC4/BLE_bless_isr.c **** /*******************************************************************************
 380:Generated_Source\PSoC4/BLE_bless_isr.c **** * Function Name: BLE_bless_isr_ClearPending
 381:Generated_Source\PSoC4/BLE_bless_isr.c **** ********************************************************************************
 382:Generated_Source\PSoC4/BLE_bless_isr.c **** *
 383:Generated_Source\PSoC4/BLE_bless_isr.c **** * Summary:
 384:Generated_Source\PSoC4/BLE_bless_isr.c **** *   Clears a pending interrupt in the interrupt controller.
 385:Generated_Source\PSoC4/BLE_bless_isr.c **** *
 386:Generated_Source\PSoC4/BLE_bless_isr.c **** *   Note Some interrupt sources are clear-on-read and require the block 
 387:Generated_Source\PSoC4/BLE_bless_isr.c **** *   interrupt/status register to be read/cleared with the appropriate block API 
 388:Generated_Source\PSoC4/BLE_bless_isr.c **** *   (GPIO, UART, and so on). Otherwise the ISR will continue to remain in 
 389:Generated_Source\PSoC4/BLE_bless_isr.c **** *   pending state even though the interrupt itself is cleared using this API.
 390:Generated_Source\PSoC4/BLE_bless_isr.c **** *
 391:Generated_Source\PSoC4/BLE_bless_isr.c **** * Parameters:
 392:Generated_Source\PSoC4/BLE_bless_isr.c **** *   None
 393:Generated_Source\PSoC4/BLE_bless_isr.c **** *
 394:Generated_Source\PSoC4/BLE_bless_isr.c **** * Return:
 395:Generated_Source\PSoC4/BLE_bless_isr.c **** *   None
 396:Generated_Source\PSoC4/BLE_bless_isr.c **** *
 397:Generated_Source\PSoC4/BLE_bless_isr.c **** *******************************************************************************/
 398:Generated_Source\PSoC4/BLE_bless_isr.c **** void BLE_bless_isr_ClearPending(void)
 399:Generated_Source\PSoC4/BLE_bless_isr.c **** {
 448              		.loc 1 399 0
 449              		.cfi_startproc
 450              		@ args = 0, pretend = 0, frame = 0
 451              		@ frame_needed = 0, uses_anonymous_args = 0
 452              		@ link register save eliminated.
 400:Generated_Source\PSoC4/BLE_bless_isr.c ****     *BLE_bless_isr_INTC_CLR_PD = BLE_bless_isr__INTC_MASK;
 453              		.loc 1 400 0
 454 0000 024B     		ldr	r3, .L39
ARM GAS  C:\Users\andrew\AppData\Local\Temp\ccIWrBuE.s 			page 16


 455 0002 8022     		movs	r2, #128
 456 0004 5201     		lsls	r2, r2, #5
 457 0006 1A60     		str	r2, [r3]
 401:Generated_Source\PSoC4/BLE_bless_isr.c **** }
 458              		.loc 1 401 0
 459 0008 C046     		nop
 460              		@ sp needed
 461 000a 7047     		bx	lr
 462              	.L40:
 463              		.align	2
 464              	.L39:
 465 000c 80E200E0 		.word	-536812928
 466              		.cfi_endproc
 467              	.LFE14:
 468              		.size	BLE_bless_isr_ClearPending, .-BLE_bless_isr_ClearPending
 469              		.text
 470              	.Letext0:
 471              		.file 2 "Generated_Source\\PSoC4/cytypes.h"