ARM GAS  C:\Users\andrew\AppData\Local\Temp\ccgmRN8w.s 			page 1


   1              		.syntax unified
   2              		.cpu cortex-m0
   3              		.fpu softvfp
   4              		.eabi_attribute 20, 1
   5              		.eabi_attribute 21, 1
   6              		.eabi_attribute 23, 3
   7              		.eabi_attribute 24, 1
   8              		.eabi_attribute 25, 1
   9              		.eabi_attribute 26, 1
  10              		.eabi_attribute 30, 6
  11              		.eabi_attribute 34, 0
  12              		.eabi_attribute 18, 4
  13              		.thumb
  14              		.syntax unified
  15              		.file	"blockwise.c"
  16              		.text
  17              	.Ltext0:
  18              		.cfi_sections	.debug_frame
  19              		.section	.text.xor_bb,"ax",%progbits
  20              		.align	2
  21              		.code	16
  22              		.thumb_func
  23              		.type	xor_bb, %function
  24              	xor_bb:
  25              	.LFB13:
  26              		.file 1 "bitops.h"
   1:bitops.h      **** /*
   2:bitops.h      ****  * cifra - embedded cryptography library
   3:bitops.h      ****  * Written in 2014 by Joseph Birr-Pixton <jpixton@gmail.com>
   4:bitops.h      ****  *
   5:bitops.h      ****  * To the extent possible under law, the author(s) have dedicated all
   6:bitops.h      ****  * copyright and related and neighboring rights to this software to the
   7:bitops.h      ****  * public domain worldwide. This software is distributed without any
   8:bitops.h      ****  * warranty.
   9:bitops.h      ****  *
  10:bitops.h      ****  * You should have received a copy of the CC0 Public Domain Dedication
  11:bitops.h      ****  * along with this software. If not, see
  12:bitops.h      ****  * <http://creativecommons.org/publicdomain/zero/1.0/>.
  13:bitops.h      ****  */
  14:bitops.h      **** 
  15:bitops.h      **** #ifndef BITOPS_H
  16:bitops.h      **** #define BITOPS_H
  17:bitops.h      **** 
  18:bitops.h      **** #include <stdint.h>
  19:bitops.h      **** #include <stddef.h>
  20:bitops.h      **** 
  21:bitops.h      **** /* Assorted bitwise and common operations used in ciphers. */
  22:bitops.h      **** 
  23:bitops.h      **** /** Circularly rotate right x by n bits.
  24:bitops.h      ****  *  0 > n > 32. */
  25:bitops.h      **** static inline uint32_t rotr32(uint32_t x, unsigned n)
  26:bitops.h      **** {
  27:bitops.h      ****   return (x >> n) | (x << (32 - n));
  28:bitops.h      **** }
  29:bitops.h      **** 
  30:bitops.h      **** /** Circularly rotate left x by n bits.
  31:bitops.h      ****  *  0 > n > 32. */
ARM GAS  C:\Users\andrew\AppData\Local\Temp\ccgmRN8w.s 			page 2


  32:bitops.h      **** static inline uint32_t rotl32(uint32_t x, unsigned n)
  33:bitops.h      **** {
  34:bitops.h      ****   return (x << n) | (x >> (32 - n));
  35:bitops.h      **** }
  36:bitops.h      **** 
  37:bitops.h      **** /** Circularly rotate right x by n bits.
  38:bitops.h      ****  *  0 > n > 64. */
  39:bitops.h      **** static inline uint64_t rotr64(uint64_t x, unsigned n)
  40:bitops.h      **** {
  41:bitops.h      ****   return (x >> n) | (x << (64 - n));
  42:bitops.h      **** }
  43:bitops.h      **** 
  44:bitops.h      **** /** Circularly rotate left x by n bits.
  45:bitops.h      ****  *  0 > n > 64. */
  46:bitops.h      **** static inline uint64_t rotl64(uint64_t x, unsigned n)
  47:bitops.h      **** {
  48:bitops.h      ****   return (x << n) | (x >> (64 - n));
  49:bitops.h      **** }
  50:bitops.h      **** 
  51:bitops.h      **** /** Read 4 bytes from buf, as a 32-bit big endian quantity. */
  52:bitops.h      **** static inline uint32_t read32_be(const uint8_t buf[4])
  53:bitops.h      **** {
  54:bitops.h      ****   return (buf[0] << 24) |
  55:bitops.h      ****          (buf[1] << 16) |
  56:bitops.h      ****          (buf[2] << 8) |
  57:bitops.h      ****          (buf[3]);
  58:bitops.h      **** }
  59:bitops.h      **** 
  60:bitops.h      **** /** Read 4 bytes from buf, as a 32-bit little endian quantity. */
  61:bitops.h      **** static inline uint32_t read32_le(const uint8_t buf[4])
  62:bitops.h      **** {
  63:bitops.h      ****   return (buf[3] << 24) |
  64:bitops.h      ****          (buf[2] << 16) |
  65:bitops.h      ****          (buf[1] << 8) |
  66:bitops.h      ****          (buf[0]);
  67:bitops.h      **** }
  68:bitops.h      **** 
  69:bitops.h      **** /** Read 8 bytes from buf, as a 64-bit big endian quantity. */
  70:bitops.h      **** static inline uint64_t read64_be(const uint8_t buf[8])
  71:bitops.h      **** {
  72:bitops.h      ****   uint32_t hi = read32_be(buf),
  73:bitops.h      ****            lo = read32_be(buf + 4);
  74:bitops.h      ****   return ((uint64_t)hi) << 32 |
  75:bitops.h      ****          lo;
  76:bitops.h      **** }
  77:bitops.h      **** 
  78:bitops.h      **** /** Read 8 bytes from buf, as a 64-bit little endian quantity. */
  79:bitops.h      **** static inline uint64_t read64_le(const uint8_t buf[8])
  80:bitops.h      **** {
  81:bitops.h      ****   uint32_t hi = read32_le(buf + 4),
  82:bitops.h      ****            lo = read32_le(buf);
  83:bitops.h      ****   return ((uint64_t)hi) << 32 |
  84:bitops.h      ****          lo;
  85:bitops.h      **** }
  86:bitops.h      **** 
  87:bitops.h      **** /** Encode v as a 32-bit big endian quantity into buf. */
  88:bitops.h      **** static inline void write32_be(uint32_t v, uint8_t buf[4])
ARM GAS  C:\Users\andrew\AppData\Local\Temp\ccgmRN8w.s 			page 3


  89:bitops.h      **** {
  90:bitops.h      ****   *buf++ = (v >> 24) & 0xff;
  91:bitops.h      ****   *buf++ = (v >> 16) & 0xff;
  92:bitops.h      ****   *buf++ = (v >> 8) & 0xff;
  93:bitops.h      ****   *buf   = v & 0xff;
  94:bitops.h      **** }
  95:bitops.h      **** 
  96:bitops.h      **** /** Encode v as a 32-bit little endian quantity into buf. */
  97:bitops.h      **** static inline void write32_le(uint32_t v, uint8_t buf[4])
  98:bitops.h      **** {
  99:bitops.h      ****   *buf++ = v & 0xff;
 100:bitops.h      ****   *buf++ = (v >> 8) & 0xff;
 101:bitops.h      ****   *buf++ = (v >> 16) & 0xff;
 102:bitops.h      ****   *buf   = (v >> 24) & 0xff;
 103:bitops.h      **** }
 104:bitops.h      **** 
 105:bitops.h      **** /** Encode v as a 64-bit big endian quantity into buf. */
 106:bitops.h      **** static inline void write64_be(uint64_t v, uint8_t buf[8])
 107:bitops.h      **** {
 108:bitops.h      ****   *buf++ = (v >> 56) & 0xff;
 109:bitops.h      ****   *buf++ = (v >> 48) & 0xff;
 110:bitops.h      ****   *buf++ = (v >> 40) & 0xff;
 111:bitops.h      ****   *buf++ = (v >> 32) & 0xff;
 112:bitops.h      ****   *buf++ = (v >> 24) & 0xff;
 113:bitops.h      ****   *buf++ = (v >> 16) & 0xff;
 114:bitops.h      ****   *buf++ = (v >> 8) & 0xff;
 115:bitops.h      ****   *buf   = v & 0xff;
 116:bitops.h      **** }
 117:bitops.h      **** 
 118:bitops.h      **** /** Encode v as a 64-bit little endian quantity into buf. */
 119:bitops.h      **** static inline void write64_le(uint64_t v, uint8_t buf[8])
 120:bitops.h      **** {
 121:bitops.h      ****   *buf++ = v & 0xff;
 122:bitops.h      ****   *buf++ = (v >> 8) & 0xff;
 123:bitops.h      ****   *buf++ = (v >> 16) & 0xff;
 124:bitops.h      ****   *buf++ = (v >> 24) & 0xff;
 125:bitops.h      ****   *buf++ = (v >> 32) & 0xff;
 126:bitops.h      ****   *buf++ = (v >> 40) & 0xff;
 127:bitops.h      ****   *buf++ = (v >> 48) & 0xff;
 128:bitops.h      ****   *buf   = (v >> 56) & 0xff;
 129:bitops.h      **** }
 130:bitops.h      **** 
 131:bitops.h      **** /** out = in ^ b8.
 132:bitops.h      ****  *  out and in may alias. */
 133:bitops.h      **** static inline void xor_b8(uint8_t *out, const uint8_t *in, uint8_t b8, size_t len)
 134:bitops.h      **** {
 135:bitops.h      ****   for (size_t i = 0; i < len; i++)
 136:bitops.h      ****     out[i] = in[i] ^ b8;
 137:bitops.h      **** }
 138:bitops.h      **** 
 139:bitops.h      **** /** out = x ^ y.
 140:bitops.h      ****  *  out, x and y may alias. */
 141:bitops.h      **** static inline void xor_bb(uint8_t *out, const uint8_t *x, const uint8_t *y, size_t len)
 142:bitops.h      **** {
  27              		.loc 1 142 0
  28              		.cfi_startproc
  29              		@ args = 0, pretend = 0, frame = 24
ARM GAS  C:\Users\andrew\AppData\Local\Temp\ccgmRN8w.s 			page 4


  30              		@ frame_needed = 0, uses_anonymous_args = 0
  31              		@ link register save eliminated.
  32 0000 86B0     		sub	sp, sp, #24
  33              		.cfi_def_cfa_offset 24
  34 0002 0390     		str	r0, [sp, #12]
  35 0004 0291     		str	r1, [sp, #8]
  36 0006 0192     		str	r2, [sp, #4]
  37 0008 0093     		str	r3, [sp]
  38              	.LBB2:
 143:bitops.h      ****   for (size_t i = 0; i < len; i++)
  39              		.loc 1 143 0
  40 000a 0023     		movs	r3, #0
  41 000c 0593     		str	r3, [sp, #20]
  42 000e 10E0     		b	.L2
  43              	.L3:
 144:bitops.h      ****     out[i] = x[i] ^ y[i];
  44              		.loc 1 144 0 discriminator 3
  45 0010 039A     		ldr	r2, [sp, #12]
  46 0012 059B     		ldr	r3, [sp, #20]
  47 0014 D318     		adds	r3, r2, r3
  48 0016 0299     		ldr	r1, [sp, #8]
  49 0018 059A     		ldr	r2, [sp, #20]
  50 001a 8A18     		adds	r2, r1, r2
  51 001c 1178     		ldrb	r1, [r2]
  52 001e 0198     		ldr	r0, [sp, #4]
  53 0020 059A     		ldr	r2, [sp, #20]
  54 0022 8218     		adds	r2, r0, r2
  55 0024 1278     		ldrb	r2, [r2]
  56 0026 4A40     		eors	r2, r1
  57 0028 D2B2     		uxtb	r2, r2
  58 002a 1A70     		strb	r2, [r3]
 143:bitops.h      ****   for (size_t i = 0; i < len; i++)
  59              		.loc 1 143 0 discriminator 3
  60 002c 059B     		ldr	r3, [sp, #20]
  61 002e 0133     		adds	r3, r3, #1
  62 0030 0593     		str	r3, [sp, #20]
  63              	.L2:
 143:bitops.h      ****   for (size_t i = 0; i < len; i++)
  64              		.loc 1 143 0 is_stmt 0 discriminator 1
  65 0032 059A     		ldr	r2, [sp, #20]
  66 0034 009B     		ldr	r3, [sp]
  67 0036 9A42     		cmp	r2, r3
  68 0038 EAD3     		bcc	.L3
  69              	.LBE2:
 145:bitops.h      **** }
  70              		.loc 1 145 0 is_stmt 1
  71 003a C046     		nop
  72 003c 06B0     		add	sp, sp, #24
  73              		@ sp needed
  74 003e 7047     		bx	lr
  75              		.cfi_endproc
  76              	.LFE13:
  77              		.size	xor_bb, .-xor_bb
  78              		.section	.text.cf_blockwise_accumulate,"ax",%progbits
  79              		.align	2
  80              		.global	cf_blockwise_accumulate
  81              		.code	16
ARM GAS  C:\Users\andrew\AppData\Local\Temp\ccgmRN8w.s 			page 5


  82              		.thumb_func
  83              		.type	cf_blockwise_accumulate, %function
  84              	cf_blockwise_accumulate:
  85              	.LFB27:
  86              		.file 2 "blockwise.c"
   1:blockwise.c   **** /*
   2:blockwise.c   ****  * cifra - embedded cryptography library
   3:blockwise.c   ****  * Written in 2014 by Joseph Birr-Pixton <jpixton@gmail.com>
   4:blockwise.c   ****  *
   5:blockwise.c   ****  * To the extent possible under law, the author(s) have dedicated all
   6:blockwise.c   ****  * copyright and related and neighboring rights to this software to the
   7:blockwise.c   ****  * public domain worldwide. This software is distributed without any
   8:blockwise.c   ****  * warranty.
   9:blockwise.c   ****  *
  10:blockwise.c   ****  * You should have received a copy of the CC0 Public Domain Dedication
  11:blockwise.c   ****  * along with this software. If not, see
  12:blockwise.c   ****  * <http://creativecommons.org/publicdomain/zero/1.0/>.
  13:blockwise.c   ****  */
  14:blockwise.c   **** 
  15:blockwise.c   **** #include "blockwise.h"
  16:blockwise.c   **** #include "bitops.h"
  17:blockwise.c   **** #include "handy.h"
  18:blockwise.c   **** #include "tassert.h"
  19:blockwise.c   **** 
  20:blockwise.c   **** #include <string.h>
  21:blockwise.c   **** 
  22:blockwise.c   **** void cf_blockwise_accumulate(uint8_t *partial, size_t *npartial, size_t nblock,
  23:blockwise.c   ****                              const void *inp, size_t nbytes,
  24:blockwise.c   ****                              cf_blockwise_in_fn process,
  25:blockwise.c   ****                              void *ctx)
  26:blockwise.c   **** {
  87              		.loc 2 26 0
  88              		.cfi_startproc
  89              		@ args = 12, pretend = 0, frame = 16
  90              		@ frame_needed = 0, uses_anonymous_args = 0
  91 0000 10B5     		push	{r4, lr}
  92              		.cfi_def_cfa_offset 8
  93              		.cfi_offset 4, -8
  94              		.cfi_offset 14, -4
  95 0002 88B0     		sub	sp, sp, #32
  96              		.cfi_def_cfa_offset 40
  97 0004 0790     		str	r0, [sp, #28]
  98 0006 0691     		str	r1, [sp, #24]
  99 0008 0592     		str	r2, [sp, #20]
 100 000a 0493     		str	r3, [sp, #16]
  27:blockwise.c   ****   cf_blockwise_accumulate_final(partial, npartial, nblock,
 101              		.loc 2 27 0
 102 000c 049C     		ldr	r4, [sp, #16]
 103 000e 059A     		ldr	r2, [sp, #20]
 104 0010 0699     		ldr	r1, [sp, #24]
 105 0012 0798     		ldr	r0, [sp, #28]
 106 0014 0C9B     		ldr	r3, [sp, #48]
 107 0016 0393     		str	r3, [sp, #12]
 108 0018 0B9B     		ldr	r3, [sp, #44]
 109 001a 0293     		str	r3, [sp, #8]
 110 001c 0B9B     		ldr	r3, [sp, #44]
 111 001e 0193     		str	r3, [sp, #4]
ARM GAS  C:\Users\andrew\AppData\Local\Temp\ccgmRN8w.s 			page 6


 112 0020 0A9B     		ldr	r3, [sp, #40]
 113 0022 0093     		str	r3, [sp]
 114 0024 2300     		movs	r3, r4
 115 0026 FFF7FEFF 		bl	cf_blockwise_accumulate_final
  28:blockwise.c   ****                                 inp, nbytes,
  29:blockwise.c   ****                                 process, process, ctx);
  30:blockwise.c   **** }
 116              		.loc 2 30 0
 117 002a C046     		nop
 118 002c 08B0     		add	sp, sp, #32
 119              		@ sp needed
 120 002e 10BD     		pop	{r4, pc}
 121              		.cfi_endproc
 122              	.LFE27:
 123              		.size	cf_blockwise_accumulate, .-cf_blockwise_accumulate
 124              		.section	.text.cf_blockwise_accumulate_final,"ax",%progbits
 125              		.align	2
 126              		.global	cf_blockwise_accumulate_final
 127              		.code	16
 128              		.thumb_func
 129              		.type	cf_blockwise_accumulate_final, %function
 130              	cf_blockwise_accumulate_final:
 131              	.LFB28:
  31:blockwise.c   **** 
  32:blockwise.c   **** void cf_blockwise_accumulate_final(uint8_t *partial, size_t *npartial, size_t nblock,
  33:blockwise.c   ****                                    const void *inp, size_t nbytes,
  34:blockwise.c   ****                                    cf_blockwise_in_fn process,
  35:blockwise.c   ****                                    cf_blockwise_in_fn process_final,
  36:blockwise.c   ****                                    void *ctx)
  37:blockwise.c   **** {
 132              		.loc 2 37 0
 133              		.cfi_startproc
 134              		@ args = 16, pretend = 0, frame = 56
 135              		@ frame_needed = 0, uses_anonymous_args = 0
 136 0000 00B5     		push	{lr}
 137              		.cfi_def_cfa_offset 4
 138              		.cfi_offset 14, -4
 139 0002 8FB0     		sub	sp, sp, #60
 140              		.cfi_def_cfa_offset 64
 141 0004 0390     		str	r0, [sp, #12]
 142 0006 0291     		str	r1, [sp, #8]
 143 0008 0192     		str	r2, [sp, #4]
 144 000a 0093     		str	r3, [sp]
  38:blockwise.c   ****   const uint8_t *bufin = inp;
 145              		.loc 2 38 0
 146 000c 009B     		ldr	r3, [sp]
 147 000e 0D93     		str	r3, [sp, #52]
  39:blockwise.c   ****   assert(partial && *npartial < nblock);
  40:blockwise.c   ****   assert(inp || !nbytes);
  41:blockwise.c   ****   assert(process && ctx);
  42:blockwise.c   **** 
  43:blockwise.c   ****   /* If we have partial data, copy in to buffer. */
  44:blockwise.c   ****   if (*npartial && nbytes)
 148              		.loc 2 44 0
 149 0010 029B     		ldr	r3, [sp, #8]
 150 0012 1B68     		ldr	r3, [r3]
 151 0014 002B     		cmp	r3, #0
ARM GAS  C:\Users\andrew\AppData\Local\Temp\ccgmRN8w.s 			page 7


 152 0016 56D0     		beq	.L11
 153              		.loc 2 44 0 is_stmt 0 discriminator 1
 154 0018 109B     		ldr	r3, [sp, #64]
 155 001a 002B     		cmp	r3, #0
 156 001c 53D0     		beq	.L11
 157              	.LBB3:
  45:blockwise.c   ****   {
  46:blockwise.c   ****     size_t space = nblock - *npartial;
 158              		.loc 2 46 0 is_stmt 1
 159 001e 029B     		ldr	r3, [sp, #8]
 160 0020 1B68     		ldr	r3, [r3]
 161 0022 019A     		ldr	r2, [sp, #4]
 162 0024 D31A     		subs	r3, r2, r3
 163 0026 0C93     		str	r3, [sp, #48]
 164              	.LBB4:
  47:blockwise.c   ****     size_t taken = MIN(space, nbytes);
 165              		.loc 2 47 0
 166 0028 0C9B     		ldr	r3, [sp, #48]
 167 002a 0B93     		str	r3, [sp, #44]
 168 002c 109B     		ldr	r3, [sp, #64]
 169 002e 0A93     		str	r3, [sp, #40]
 170 0030 0B9A     		ldr	r2, [sp, #44]
 171 0032 0A9B     		ldr	r3, [sp, #40]
 172 0034 9342     		cmp	r3, r2
 173 0036 00D9     		bls	.L8
 174 0038 1300     		movs	r3, r2
 175              	.L8:
 176              	.LBE4:
 177 003a 0993     		str	r3, [sp, #36]
  48:blockwise.c   **** 
  49:blockwise.c   ****     memcpy(partial + *npartial, bufin, taken);
 178              		.loc 2 49 0
 179 003c 029B     		ldr	r3, [sp, #8]
 180 003e 1B68     		ldr	r3, [r3]
 181 0040 039A     		ldr	r2, [sp, #12]
 182 0042 D318     		adds	r3, r2, r3
 183 0044 099A     		ldr	r2, [sp, #36]
 184 0046 0D99     		ldr	r1, [sp, #52]
 185 0048 1800     		movs	r0, r3
 186 004a FFF7FEFF 		bl	memcpy
  50:blockwise.c   **** 
  51:blockwise.c   ****     bufin += taken;
 187              		.loc 2 51 0
 188 004e 0D9A     		ldr	r2, [sp, #52]
 189 0050 099B     		ldr	r3, [sp, #36]
 190 0052 D318     		adds	r3, r2, r3
 191 0054 0D93     		str	r3, [sp, #52]
  52:blockwise.c   ****     nbytes -= taken;
 192              		.loc 2 52 0
 193 0056 109A     		ldr	r2, [sp, #64]
 194 0058 099B     		ldr	r3, [sp, #36]
 195 005a D31A     		subs	r3, r2, r3
 196 005c 1093     		str	r3, [sp, #64]
  53:blockwise.c   ****     *npartial += taken;
 197              		.loc 2 53 0
 198 005e 029B     		ldr	r3, [sp, #8]
 199 0060 1A68     		ldr	r2, [r3]
ARM GAS  C:\Users\andrew\AppData\Local\Temp\ccgmRN8w.s 			page 8


 200 0062 099B     		ldr	r3, [sp, #36]
 201 0064 D218     		adds	r2, r2, r3
 202 0066 029B     		ldr	r3, [sp, #8]
 203 0068 1A60     		str	r2, [r3]
  54:blockwise.c   **** 
  55:blockwise.c   ****     /* If that gives us a full block, process it. */
  56:blockwise.c   ****     if (*npartial == nblock)
 204              		.loc 2 56 0
 205 006a 029B     		ldr	r3, [sp, #8]
 206 006c 1A68     		ldr	r2, [r3]
 207 006e 019B     		ldr	r3, [sp, #4]
 208 0070 9A42     		cmp	r2, r3
 209 0072 28D1     		bne	.L11
  57:blockwise.c   ****     {
  58:blockwise.c   ****       if (nbytes == 0)
 210              		.loc 2 58 0
 211 0074 109B     		ldr	r3, [sp, #64]
 212 0076 002B     		cmp	r3, #0
 213 0078 05D1     		bne	.L9
  59:blockwise.c   ****         process_final(ctx, partial);
 214              		.loc 2 59 0
 215 007a 0399     		ldr	r1, [sp, #12]
 216 007c 139A     		ldr	r2, [sp, #76]
 217 007e 129B     		ldr	r3, [sp, #72]
 218 0080 1000     		movs	r0, r2
 219 0082 9847     		blx	r3
 220 0084 04E0     		b	.L10
 221              	.L9:
  60:blockwise.c   ****       else
  61:blockwise.c   ****         process(ctx, partial);
 222              		.loc 2 61 0
 223 0086 0399     		ldr	r1, [sp, #12]
 224 0088 139A     		ldr	r2, [sp, #76]
 225 008a 119B     		ldr	r3, [sp, #68]
 226 008c 1000     		movs	r0, r2
 227 008e 9847     		blx	r3
 228              	.L10:
  62:blockwise.c   ****       *npartial = 0;
 229              		.loc 2 62 0
 230 0090 029B     		ldr	r3, [sp, #8]
 231 0092 0022     		movs	r2, #0
 232 0094 1A60     		str	r2, [r3]
 233              	.LBE3:
  63:blockwise.c   ****     }
  64:blockwise.c   ****   }
  65:blockwise.c   **** 
  66:blockwise.c   ****   /* now nbytes < nblock or *npartial == 0. */
  67:blockwise.c   **** 
  68:blockwise.c   ****   /* If we have a full block of data, process it directly. */
  69:blockwise.c   ****   while (nbytes >= nblock)
 234              		.loc 2 69 0
 235 0096 16E0     		b	.L11
 236              	.L14:
  70:blockwise.c   ****   {
  71:blockwise.c   ****     /* Partial buffer must be empty, or we're ignoring extant data */
  72:blockwise.c   ****     assert(*npartial == 0);
  73:blockwise.c   **** 
ARM GAS  C:\Users\andrew\AppData\Local\Temp\ccgmRN8w.s 			page 9


  74:blockwise.c   ****     if (nbytes == nblock)
 237              		.loc 2 74 0
 238 0098 109A     		ldr	r2, [sp, #64]
 239 009a 019B     		ldr	r3, [sp, #4]
 240 009c 9A42     		cmp	r2, r3
 241 009e 05D1     		bne	.L12
  75:blockwise.c   ****       process_final(ctx, bufin);
 242              		.loc 2 75 0
 243 00a0 0D99     		ldr	r1, [sp, #52]
 244 00a2 139A     		ldr	r2, [sp, #76]
 245 00a4 129B     		ldr	r3, [sp, #72]
 246 00a6 1000     		movs	r0, r2
 247 00a8 9847     		blx	r3
 248 00aa 04E0     		b	.L13
 249              	.L12:
  76:blockwise.c   ****     else
  77:blockwise.c   ****       process(ctx, bufin);
 250              		.loc 2 77 0
 251 00ac 0D99     		ldr	r1, [sp, #52]
 252 00ae 139A     		ldr	r2, [sp, #76]
 253 00b0 119B     		ldr	r3, [sp, #68]
 254 00b2 1000     		movs	r0, r2
 255 00b4 9847     		blx	r3
 256              	.L13:
  78:blockwise.c   ****     bufin += nblock;
 257              		.loc 2 78 0
 258 00b6 0D9A     		ldr	r2, [sp, #52]
 259 00b8 019B     		ldr	r3, [sp, #4]
 260 00ba D318     		adds	r3, r2, r3
 261 00bc 0D93     		str	r3, [sp, #52]
  79:blockwise.c   ****     nbytes -= nblock;
 262              		.loc 2 79 0
 263 00be 109A     		ldr	r2, [sp, #64]
 264 00c0 019B     		ldr	r3, [sp, #4]
 265 00c2 D31A     		subs	r3, r2, r3
 266 00c4 1093     		str	r3, [sp, #64]
 267              	.L11:
  69:blockwise.c   ****   {
 268              		.loc 2 69 0
 269 00c6 109A     		ldr	r2, [sp, #64]
 270 00c8 019B     		ldr	r3, [sp, #4]
 271 00ca 9A42     		cmp	r2, r3
 272 00cc E4D2     		bcs	.L14
  80:blockwise.c   ****   }
  81:blockwise.c   **** 
  82:blockwise.c   ****   /* Finally, if we have remaining data, buffer it. */
  83:blockwise.c   ****   while (nbytes)
 273              		.loc 2 83 0
 274 00ce 25E0     		b	.L15
 275              	.L17:
 276              	.LBB5:
  84:blockwise.c   ****   {
  85:blockwise.c   ****     size_t space = nblock - *npartial;
 277              		.loc 2 85 0
 278 00d0 029B     		ldr	r3, [sp, #8]
 279 00d2 1B68     		ldr	r3, [r3]
 280 00d4 019A     		ldr	r2, [sp, #4]
ARM GAS  C:\Users\andrew\AppData\Local\Temp\ccgmRN8w.s 			page 10


 281 00d6 D31A     		subs	r3, r2, r3
 282 00d8 0893     		str	r3, [sp, #32]
 283              	.LBB6:
  86:blockwise.c   ****     size_t taken = MIN(space, nbytes);
 284              		.loc 2 86 0
 285 00da 089B     		ldr	r3, [sp, #32]
 286 00dc 0793     		str	r3, [sp, #28]
 287 00de 109B     		ldr	r3, [sp, #64]
 288 00e0 0693     		str	r3, [sp, #24]
 289 00e2 079A     		ldr	r2, [sp, #28]
 290 00e4 069B     		ldr	r3, [sp, #24]
 291 00e6 9342     		cmp	r3, r2
 292 00e8 00D9     		bls	.L16
 293 00ea 1300     		movs	r3, r2
 294              	.L16:
 295              	.LBE6:
 296 00ec 0593     		str	r3, [sp, #20]
  87:blockwise.c   **** 
  88:blockwise.c   ****     memcpy(partial + *npartial, bufin, taken);
 297              		.loc 2 88 0
 298 00ee 029B     		ldr	r3, [sp, #8]
 299 00f0 1B68     		ldr	r3, [r3]
 300 00f2 039A     		ldr	r2, [sp, #12]
 301 00f4 D318     		adds	r3, r2, r3
 302 00f6 059A     		ldr	r2, [sp, #20]
 303 00f8 0D99     		ldr	r1, [sp, #52]
 304 00fa 1800     		movs	r0, r3
 305 00fc FFF7FEFF 		bl	memcpy
  89:blockwise.c   **** 
  90:blockwise.c   ****     bufin += taken;
 306              		.loc 2 90 0
 307 0100 0D9A     		ldr	r2, [sp, #52]
 308 0102 059B     		ldr	r3, [sp, #20]
 309 0104 D318     		adds	r3, r2, r3
 310 0106 0D93     		str	r3, [sp, #52]
  91:blockwise.c   ****     nbytes -= taken;
 311              		.loc 2 91 0
 312 0108 109A     		ldr	r2, [sp, #64]
 313 010a 059B     		ldr	r3, [sp, #20]
 314 010c D31A     		subs	r3, r2, r3
 315 010e 1093     		str	r3, [sp, #64]
  92:blockwise.c   ****     *npartial += taken;
 316              		.loc 2 92 0
 317 0110 029B     		ldr	r3, [sp, #8]
 318 0112 1A68     		ldr	r2, [r3]
 319 0114 059B     		ldr	r3, [sp, #20]
 320 0116 D218     		adds	r2, r2, r3
 321 0118 029B     		ldr	r3, [sp, #8]
 322 011a 1A60     		str	r2, [r3]
 323              	.L15:
 324              	.LBE5:
  83:blockwise.c   ****   {
 325              		.loc 2 83 0
 326 011c 109B     		ldr	r3, [sp, #64]
 327 011e 002B     		cmp	r3, #0
 328 0120 D6D1     		bne	.L17
  93:blockwise.c   **** 
ARM GAS  C:\Users\andrew\AppData\Local\Temp\ccgmRN8w.s 			page 11


  94:blockwise.c   ****     /* If we started with *npartial, we must have copied it
  95:blockwise.c   ****      * in first. */
  96:blockwise.c   ****     assert(*npartial < nblock);
  97:blockwise.c   ****   }
  98:blockwise.c   **** }
 329              		.loc 2 98 0
 330 0122 C046     		nop
 331 0124 0FB0     		add	sp, sp, #60
 332              		@ sp needed
 333 0126 00BD     		pop	{pc}
 334              		.cfi_endproc
 335              	.LFE28:
 336              		.size	cf_blockwise_accumulate_final, .-cf_blockwise_accumulate_final
 337              		.section	.text.cf_blockwise_xor,"ax",%progbits
 338              		.align	2
 339              		.global	cf_blockwise_xor
 340              		.code	16
 341              		.thumb_func
 342              		.type	cf_blockwise_xor, %function
 343              	cf_blockwise_xor:
 344              	.LFB29:
  99:blockwise.c   **** 
 100:blockwise.c   **** void cf_blockwise_xor(uint8_t *partial, size_t *npartial, size_t nblock,
 101:blockwise.c   ****                       const void *inp, void *outp, size_t nbytes,
 102:blockwise.c   ****                       cf_blockwise_out_fn process, void *ctx)
 103:blockwise.c   **** {
 345              		.loc 2 103 0
 346              		.cfi_startproc
 347              		@ args = 16, pretend = 0, frame = 40
 348              		@ frame_needed = 0, uses_anonymous_args = 0
 349 0000 00B5     		push	{lr}
 350              		.cfi_def_cfa_offset 4
 351              		.cfi_offset 14, -4
 352 0002 8BB0     		sub	sp, sp, #44
 353              		.cfi_def_cfa_offset 48
 354 0004 0390     		str	r0, [sp, #12]
 355 0006 0291     		str	r1, [sp, #8]
 356 0008 0192     		str	r2, [sp, #4]
 357 000a 0093     		str	r3, [sp]
 104:blockwise.c   ****   const uint8_t *inb = inp;
 358              		.loc 2 104 0
 359 000c 009B     		ldr	r3, [sp]
 360 000e 0993     		str	r3, [sp, #36]
 105:blockwise.c   ****   uint8_t *outb = outp;
 361              		.loc 2 105 0
 362 0010 0C9B     		ldr	r3, [sp, #48]
 363 0012 0893     		str	r3, [sp, #32]
 106:blockwise.c   **** 
 107:blockwise.c   ****   assert(partial && *npartial < nblock);
 108:blockwise.c   ****   assert(inp || !nbytes);
 109:blockwise.c   ****   assert(process && ctx);
 110:blockwise.c   **** 
 111:blockwise.c   ****   while (nbytes)
 364              		.loc 2 111 0
 365 0014 35E0     		b	.L20
 366              	.L23:
 367              	.LBB7:
ARM GAS  C:\Users\andrew\AppData\Local\Temp\ccgmRN8w.s 			page 12


 112:blockwise.c   ****   {
 113:blockwise.c   ****     /* If we're out of material, and need more, produce a block. */
 114:blockwise.c   ****     if (*npartial == 0)
 368              		.loc 2 114 0
 369 0016 029B     		ldr	r3, [sp, #8]
 370 0018 1B68     		ldr	r3, [r3]
 371 001a 002B     		cmp	r3, #0
 372 001c 07D1     		bne	.L21
 115:blockwise.c   ****     {
 116:blockwise.c   ****       process(ctx, partial);
 373              		.loc 2 116 0
 374 001e 0399     		ldr	r1, [sp, #12]
 375 0020 0F9A     		ldr	r2, [sp, #60]
 376 0022 0E9B     		ldr	r3, [sp, #56]
 377 0024 1000     		movs	r0, r2
 378 0026 9847     		blx	r3
 117:blockwise.c   ****       *npartial = nblock;
 379              		.loc 2 117 0
 380 0028 029B     		ldr	r3, [sp, #8]
 381 002a 019A     		ldr	r2, [sp, #4]
 382 002c 1A60     		str	r2, [r3]
 383              	.L21:
 118:blockwise.c   ****     }
 119:blockwise.c   **** 
 120:blockwise.c   ****     size_t offset = nblock - *npartial;
 384              		.loc 2 120 0
 385 002e 029B     		ldr	r3, [sp, #8]
 386 0030 1B68     		ldr	r3, [r3]
 387 0032 019A     		ldr	r2, [sp, #4]
 388 0034 D31A     		subs	r3, r2, r3
 389 0036 0793     		str	r3, [sp, #28]
 390              	.LBB8:
 121:blockwise.c   ****     size_t taken = MIN(*npartial, nbytes);
 391              		.loc 2 121 0
 392 0038 029B     		ldr	r3, [sp, #8]
 393 003a 1B68     		ldr	r3, [r3]
 394 003c 0693     		str	r3, [sp, #24]
 395 003e 0D9B     		ldr	r3, [sp, #52]
 396 0040 0593     		str	r3, [sp, #20]
 397 0042 069A     		ldr	r2, [sp, #24]
 398 0044 059B     		ldr	r3, [sp, #20]
 399 0046 9342     		cmp	r3, r2
 400 0048 00D9     		bls	.L22
 401 004a 1300     		movs	r3, r2
 402              	.L22:
 403              	.LBE8:
 404 004c 0493     		str	r3, [sp, #16]
 122:blockwise.c   ****     xor_bb(outb, inb, partial + offset, taken);
 405              		.loc 2 122 0
 406 004e 039A     		ldr	r2, [sp, #12]
 407 0050 079B     		ldr	r3, [sp, #28]
 408 0052 D218     		adds	r2, r2, r3
 409 0054 049B     		ldr	r3, [sp, #16]
 410 0056 0999     		ldr	r1, [sp, #36]
 411 0058 0898     		ldr	r0, [sp, #32]
 412 005a FFF7FEFF 		bl	xor_bb
 123:blockwise.c   ****     *npartial -= taken;
ARM GAS  C:\Users\andrew\AppData\Local\Temp\ccgmRN8w.s 			page 13


 413              		.loc 2 123 0
 414 005e 029B     		ldr	r3, [sp, #8]
 415 0060 1A68     		ldr	r2, [r3]
 416 0062 049B     		ldr	r3, [sp, #16]
 417 0064 D21A     		subs	r2, r2, r3
 418 0066 029B     		ldr	r3, [sp, #8]
 419 0068 1A60     		str	r2, [r3]
 124:blockwise.c   ****     nbytes -= taken;
 420              		.loc 2 124 0
 421 006a 0D9A     		ldr	r2, [sp, #52]
 422 006c 049B     		ldr	r3, [sp, #16]
 423 006e D31A     		subs	r3, r2, r3
 424 0070 0D93     		str	r3, [sp, #52]
 125:blockwise.c   ****     outb += taken;
 425              		.loc 2 125 0
 426 0072 089A     		ldr	r2, [sp, #32]
 427 0074 049B     		ldr	r3, [sp, #16]
 428 0076 D318     		adds	r3, r2, r3
 429 0078 0893     		str	r3, [sp, #32]
 126:blockwise.c   ****     inb += taken;
 430              		.loc 2 126 0
 431 007a 099A     		ldr	r2, [sp, #36]
 432 007c 049B     		ldr	r3, [sp, #16]
 433 007e D318     		adds	r3, r2, r3
 434 0080 0993     		str	r3, [sp, #36]
 435              	.L20:
 436              	.LBE7:
 111:blockwise.c   ****   {
 437              		.loc 2 111 0
 438 0082 0D9B     		ldr	r3, [sp, #52]
 439 0084 002B     		cmp	r3, #0
 440 0086 C6D1     		bne	.L23
 127:blockwise.c   ****   }
 128:blockwise.c   **** }
 441              		.loc 2 128 0
 442 0088 C046     		nop
 443 008a 0BB0     		add	sp, sp, #44
 444              		@ sp needed
 445 008c 00BD     		pop	{pc}
 446              		.cfi_endproc
 447              	.LFE29:
 448              		.size	cf_blockwise_xor, .-cf_blockwise_xor
 449 008e C046     		.section	.text.cf_blockwise_acc_byte,"ax",%progbits
 450              		.align	2
 451              		.global	cf_blockwise_acc_byte
 452              		.code	16
 453              		.thumb_func
 454              		.type	cf_blockwise_acc_byte, %function
 455              	cf_blockwise_acc_byte:
 456              	.LFB30:
 129:blockwise.c   **** 
 130:blockwise.c   **** void cf_blockwise_acc_byte(uint8_t *partial, size_t *npartial,
 131:blockwise.c   ****                            size_t nblock,
 132:blockwise.c   ****                            uint8_t byte, size_t nbytes,
 133:blockwise.c   ****                            cf_blockwise_in_fn process,
 134:blockwise.c   ****                            void *ctx)
 135:blockwise.c   **** {
ARM GAS  C:\Users\andrew\AppData\Local\Temp\ccgmRN8w.s 			page 14


 457              		.loc 2 135 0
 458              		.cfi_startproc
 459              		@ args = 12, pretend = 0, frame = 40
 460              		@ frame_needed = 0, uses_anonymous_args = 0
 461 0000 00B5     		push	{lr}
 462              		.cfi_def_cfa_offset 4
 463              		.cfi_offset 14, -4
 464 0002 8BB0     		sub	sp, sp, #44
 465              		.cfi_def_cfa_offset 48
 466 0004 0390     		str	r0, [sp, #12]
 467 0006 0291     		str	r1, [sp, #8]
 468 0008 0192     		str	r2, [sp, #4]
 469 000a 1A00     		movs	r2, r3
 470 000c 6B46     		mov	r3, sp
 471 000e 0333     		adds	r3, r3, #3
 472 0010 1A70     		strb	r2, [r3]
 136:blockwise.c   ****   /* only memset the whole of the block once */
 137:blockwise.c   ****   int filled = 0;
 473              		.loc 2 137 0
 474 0012 0023     		movs	r3, #0
 475 0014 0993     		str	r3, [sp, #36]
 138:blockwise.c   **** 
 139:blockwise.c   ****   while (nbytes)
 476              		.loc 2 139 0
 477 0016 3DE0     		b	.L25
 478              	.L31:
 479              	.LBB9:
 140:blockwise.c   ****   {
 141:blockwise.c   ****     size_t start = *npartial;
 480              		.loc 2 141 0
 481 0018 029B     		ldr	r3, [sp, #8]
 482 001a 1B68     		ldr	r3, [r3]
 483 001c 0893     		str	r3, [sp, #32]
 484              	.LBB10:
 142:blockwise.c   ****     size_t count = MIN(nbytes, nblock - start);
 485              		.loc 2 142 0
 486 001e 0C9B     		ldr	r3, [sp, #48]
 487 0020 0793     		str	r3, [sp, #28]
 488 0022 019A     		ldr	r2, [sp, #4]
 489 0024 089B     		ldr	r3, [sp, #32]
 490 0026 D31A     		subs	r3, r2, r3
 491 0028 0693     		str	r3, [sp, #24]
 492 002a 079A     		ldr	r2, [sp, #28]
 493 002c 069B     		ldr	r3, [sp, #24]
 494 002e 9342     		cmp	r3, r2
 495 0030 00D9     		bls	.L26
 496 0032 1300     		movs	r3, r2
 497              	.L26:
 498              	.LBE10:
 499 0034 0593     		str	r3, [sp, #20]
 143:blockwise.c   **** 
 144:blockwise.c   ****     if (!filled)
 500              		.loc 2 144 0
 501 0036 099B     		ldr	r3, [sp, #36]
 502 0038 002B     		cmp	r3, #0
 503 003a 09D1     		bne	.L27
 145:blockwise.c   ****       memset(partial + start, byte, count);
ARM GAS  C:\Users\andrew\AppData\Local\Temp\ccgmRN8w.s 			page 15


 504              		.loc 2 145 0
 505 003c 039A     		ldr	r2, [sp, #12]
 506 003e 089B     		ldr	r3, [sp, #32]
 507 0040 D018     		adds	r0, r2, r3
 508 0042 6B46     		mov	r3, sp
 509 0044 0333     		adds	r3, r3, #3
 510 0046 1B78     		ldrb	r3, [r3]
 511 0048 059A     		ldr	r2, [sp, #20]
 512 004a 1900     		movs	r1, r3
 513 004c FFF7FEFF 		bl	memset
 514              	.L27:
 146:blockwise.c   **** 
 147:blockwise.c   ****     if (start == 0 && count == nblock)
 515              		.loc 2 147 0
 516 0050 089B     		ldr	r3, [sp, #32]
 517 0052 002B     		cmp	r3, #0
 518 0054 05D1     		bne	.L28
 519              		.loc 2 147 0 is_stmt 0 discriminator 1
 520 0056 059A     		ldr	r2, [sp, #20]
 521 0058 019B     		ldr	r3, [sp, #4]
 522 005a 9A42     		cmp	r2, r3
 523 005c 01D1     		bne	.L28
 148:blockwise.c   ****       filled = 1;
 524              		.loc 2 148 0 is_stmt 1
 525 005e 0123     		movs	r3, #1
 526 0060 0993     		str	r3, [sp, #36]
 527              	.L28:
 149:blockwise.c   **** 
 150:blockwise.c   ****     if (start + count == nblock)
 528              		.loc 2 150 0
 529 0062 089A     		ldr	r2, [sp, #32]
 530 0064 059B     		ldr	r3, [sp, #20]
 531 0066 D218     		adds	r2, r2, r3
 532 0068 019B     		ldr	r3, [sp, #4]
 533 006a 9A42     		cmp	r2, r3
 534 006c 08D1     		bne	.L29
 151:blockwise.c   ****     {
 152:blockwise.c   ****       process(ctx, partial);
 535              		.loc 2 152 0
 536 006e 0399     		ldr	r1, [sp, #12]
 537 0070 0E9A     		ldr	r2, [sp, #56]
 538 0072 0D9B     		ldr	r3, [sp, #52]
 539 0074 1000     		movs	r0, r2
 540 0076 9847     		blx	r3
 153:blockwise.c   ****       *npartial = 0;
 541              		.loc 2 153 0
 542 0078 029B     		ldr	r3, [sp, #8]
 543 007a 0022     		movs	r2, #0
 544 007c 1A60     		str	r2, [r3]
 545 007e 05E0     		b	.L30
 546              	.L29:
 154:blockwise.c   ****     } else {
 155:blockwise.c   ****       *npartial += count;
 547              		.loc 2 155 0
 548 0080 029B     		ldr	r3, [sp, #8]
 549 0082 1A68     		ldr	r2, [r3]
 550 0084 059B     		ldr	r3, [sp, #20]
ARM GAS  C:\Users\andrew\AppData\Local\Temp\ccgmRN8w.s 			page 16


 551 0086 D218     		adds	r2, r2, r3
 552 0088 029B     		ldr	r3, [sp, #8]
 553 008a 1A60     		str	r2, [r3]
 554              	.L30:
 156:blockwise.c   ****     }
 157:blockwise.c   **** 
 158:blockwise.c   ****     nbytes -= count;
 555              		.loc 2 158 0
 556 008c 0C9A     		ldr	r2, [sp, #48]
 557 008e 059B     		ldr	r3, [sp, #20]
 558 0090 D31A     		subs	r3, r2, r3
 559 0092 0C93     		str	r3, [sp, #48]
 560              	.L25:
 561              	.LBE9:
 139:blockwise.c   ****   {
 562              		.loc 2 139 0
 563 0094 0C9B     		ldr	r3, [sp, #48]
 564 0096 002B     		cmp	r3, #0
 565 0098 BED1     		bne	.L31
 159:blockwise.c   ****   }
 160:blockwise.c   **** }
 566              		.loc 2 160 0
 567 009a C046     		nop
 568 009c 0BB0     		add	sp, sp, #44
 569              		@ sp needed
 570 009e 00BD     		pop	{pc}
 571              		.cfi_endproc
 572              	.LFE30:
 573              		.size	cf_blockwise_acc_byte, .-cf_blockwise_acc_byte
 574              		.section	.text.cf_blockwise_acc_pad,"ax",%progbits
 575              		.align	2
 576              		.global	cf_blockwise_acc_pad
 577              		.code	16
 578              		.thumb_func
 579              		.type	cf_blockwise_acc_pad, %function
 580              	cf_blockwise_acc_pad:
 581              	.LFB31:
 161:blockwise.c   **** 
 162:blockwise.c   **** void cf_blockwise_acc_pad(uint8_t *partial, size_t *npartial,
 163:blockwise.c   ****                           size_t nblock,
 164:blockwise.c   ****                           uint8_t fbyte, uint8_t mbyte, uint8_t lbyte,
 165:blockwise.c   ****                           size_t nbytes,
 166:blockwise.c   ****                           cf_blockwise_in_fn process,
 167:blockwise.c   ****                           void *ctx)
 168:blockwise.c   **** {
 582              		.loc 2 168 0
 583              		.cfi_startproc
 584              		@ args = 20, pretend = 0, frame = 16
 585              		@ frame_needed = 0, uses_anonymous_args = 0
 586 0000 30B5     		push	{r4, r5, lr}
 587              		.cfi_def_cfa_offset 12
 588              		.cfi_offset 4, -12
 589              		.cfi_offset 5, -8
 590              		.cfi_offset 14, -4
 591 0002 89B0     		sub	sp, sp, #36
 592              		.cfi_def_cfa_offset 48
 593 0004 0790     		str	r0, [sp, #28]
ARM GAS  C:\Users\andrew\AppData\Local\Temp\ccgmRN8w.s 			page 17


 594 0006 0691     		str	r1, [sp, #24]
 595 0008 0592     		str	r2, [sp, #20]
 596 000a 1A00     		movs	r2, r3
 597 000c 1323     		movs	r3, #19
 598 000e 6B44     		add	r3, r3, sp
 599 0010 1A70     		strb	r2, [r3]
 169:blockwise.c   **** 
 170:blockwise.c   ****   switch (nbytes)
 600              		.loc 2 170 0
 601 0012 0E9B     		ldr	r3, [sp, #56]
 602 0014 012B     		cmp	r3, #1
 603 0016 04D0     		beq	.L34
 604 0018 00D2     		bcs	.LCB505
 605 001a 7AE0     		b	.L41	@long jump
 606              	.LCB505:
 607 001c 022B     		cmp	r3, #2
 608 001e 19D0     		beq	.L36
 609 0020 34E0     		b	.L40
 610              	.L34:
 171:blockwise.c   ****   {
 172:blockwise.c   ****     case 0: break;
 173:blockwise.c   ****     case 1: fbyte ^= lbyte;
 611              		.loc 2 173 0
 612 0022 1323     		movs	r3, #19
 613 0024 6B44     		add	r3, r3, sp
 614 0026 1A78     		ldrb	r2, [r3]
 615 0028 0DAB     		add	r3, sp, #52
 616 002a 1B78     		ldrb	r3, [r3]
 617 002c 5340     		eors	r3, r2
 618 002e DAB2     		uxtb	r2, r3
 619 0030 1323     		movs	r3, #19
 620 0032 6B44     		add	r3, r3, sp
 621 0034 1A70     		strb	r2, [r3]
 174:blockwise.c   ****             cf_blockwise_accumulate(partial, npartial, nblock, &fbyte, 1, process, ctx);
 622              		.loc 2 174 0
 623 0036 1324     		movs	r4, #19
 624 0038 6C44     		add	r4, r4, sp
 625 003a 059A     		ldr	r2, [sp, #20]
 626 003c 0699     		ldr	r1, [sp, #24]
 627 003e 0798     		ldr	r0, [sp, #28]
 628 0040 109B     		ldr	r3, [sp, #64]
 629 0042 0293     		str	r3, [sp, #8]
 630 0044 0F9B     		ldr	r3, [sp, #60]
 631 0046 0193     		str	r3, [sp, #4]
 632 0048 0123     		movs	r3, #1
 633 004a 0093     		str	r3, [sp]
 634 004c 2300     		movs	r3, r4
 635 004e FFF7FEFF 		bl	cf_blockwise_accumulate
 175:blockwise.c   ****             break;
 636              		.loc 2 175 0
 637 0052 5FE0     		b	.L37
 638              	.L36:
 176:blockwise.c   ****     case 2:
 177:blockwise.c   ****             cf_blockwise_accumulate(partial, npartial, nblock, &fbyte, 1, process, ctx);
 639              		.loc 2 177 0
 640 0054 1324     		movs	r4, #19
 641 0056 6C44     		add	r4, r4, sp
ARM GAS  C:\Users\andrew\AppData\Local\Temp\ccgmRN8w.s 			page 18


 642 0058 059A     		ldr	r2, [sp, #20]
 643 005a 0699     		ldr	r1, [sp, #24]
 644 005c 0798     		ldr	r0, [sp, #28]
 645 005e 109B     		ldr	r3, [sp, #64]
 646 0060 0293     		str	r3, [sp, #8]
 647 0062 0F9B     		ldr	r3, [sp, #60]
 648 0064 0193     		str	r3, [sp, #4]
 649 0066 0123     		movs	r3, #1
 650 0068 0093     		str	r3, [sp]
 651 006a 2300     		movs	r3, r4
 652 006c FFF7FEFF 		bl	cf_blockwise_accumulate
 178:blockwise.c   ****             cf_blockwise_accumulate(partial, npartial, nblock, &lbyte, 1, process, ctx);
 653              		.loc 2 178 0
 654 0070 0DAC     		add	r4, sp, #52
 655 0072 059A     		ldr	r2, [sp, #20]
 656 0074 0699     		ldr	r1, [sp, #24]
 657 0076 0798     		ldr	r0, [sp, #28]
 658 0078 109B     		ldr	r3, [sp, #64]
 659 007a 0293     		str	r3, [sp, #8]
 660 007c 0F9B     		ldr	r3, [sp, #60]
 661 007e 0193     		str	r3, [sp, #4]
 662 0080 0123     		movs	r3, #1
 663 0082 0093     		str	r3, [sp]
 664 0084 2300     		movs	r3, r4
 665 0086 FFF7FEFF 		bl	cf_blockwise_accumulate
 179:blockwise.c   ****             break;
 666              		.loc 2 179 0
 667 008a 43E0     		b	.L37
 668              	.L40:
 180:blockwise.c   ****     default:
 181:blockwise.c   ****             cf_blockwise_accumulate(partial, npartial, nblock, &fbyte, 1, process, ctx);
 669              		.loc 2 181 0
 670 008c 1324     		movs	r4, #19
 671 008e 6C44     		add	r4, r4, sp
 672 0090 059A     		ldr	r2, [sp, #20]
 673 0092 0699     		ldr	r1, [sp, #24]
 674 0094 0798     		ldr	r0, [sp, #28]
 675 0096 109B     		ldr	r3, [sp, #64]
 676 0098 0293     		str	r3, [sp, #8]
 677 009a 0F9B     		ldr	r3, [sp, #60]
 678 009c 0193     		str	r3, [sp, #4]
 679 009e 0123     		movs	r3, #1
 680 00a0 0093     		str	r3, [sp]
 681 00a2 2300     		movs	r3, r4
 682 00a4 FFF7FEFF 		bl	cf_blockwise_accumulate
 182:blockwise.c   **** 
 183:blockwise.c   ****             /* If the middle and last bytes differ, then process the last byte separately.
 184:blockwise.c   ****              * Otherwise, just extend the middle block size. */
 185:blockwise.c   ****             if (lbyte != mbyte)
 683              		.loc 2 185 0
 684 00a8 0DAB     		add	r3, sp, #52
 685 00aa 1B78     		ldrb	r3, [r3]
 686 00ac 0CAA     		add	r2, sp, #48
 687 00ae 1278     		ldrb	r2, [r2]
 688 00b0 9A42     		cmp	r2, r3
 689 00b2 1DD0     		beq	.L38
 186:blockwise.c   ****             {
ARM GAS  C:\Users\andrew\AppData\Local\Temp\ccgmRN8w.s 			page 19


 187:blockwise.c   ****               cf_blockwise_acc_byte(partial, npartial, nblock, mbyte, nbytes - 2, process, ctx);
 690              		.loc 2 187 0
 691 00b4 0E9B     		ldr	r3, [sp, #56]
 692 00b6 023B     		subs	r3, r3, #2
 693 00b8 0CAA     		add	r2, sp, #48
 694 00ba 1578     		ldrb	r5, [r2]
 695 00bc 059C     		ldr	r4, [sp, #20]
 696 00be 0699     		ldr	r1, [sp, #24]
 697 00c0 0798     		ldr	r0, [sp, #28]
 698 00c2 109A     		ldr	r2, [sp, #64]
 699 00c4 0292     		str	r2, [sp, #8]
 700 00c6 0F9A     		ldr	r2, [sp, #60]
 701 00c8 0192     		str	r2, [sp, #4]
 702 00ca 0093     		str	r3, [sp]
 703 00cc 2B00     		movs	r3, r5
 704 00ce 2200     		movs	r2, r4
 705 00d0 FFF7FEFF 		bl	cf_blockwise_acc_byte
 188:blockwise.c   ****               cf_blockwise_accumulate(partial, npartial, nblock, &lbyte, 1, process, ctx);
 706              		.loc 2 188 0
 707 00d4 0DAC     		add	r4, sp, #52
 708 00d6 059A     		ldr	r2, [sp, #20]
 709 00d8 0699     		ldr	r1, [sp, #24]
 710 00da 0798     		ldr	r0, [sp, #28]
 711 00dc 109B     		ldr	r3, [sp, #64]
 712 00de 0293     		str	r3, [sp, #8]
 713 00e0 0F9B     		ldr	r3, [sp, #60]
 714 00e2 0193     		str	r3, [sp, #4]
 715 00e4 0123     		movs	r3, #1
 716 00e6 0093     		str	r3, [sp]
 717 00e8 2300     		movs	r3, r4
 718 00ea FFF7FEFF 		bl	cf_blockwise_accumulate
 189:blockwise.c   ****             } else {
 190:blockwise.c   ****               cf_blockwise_acc_byte(partial, npartial, nblock, mbyte, nbytes - 1, process, ctx);
 191:blockwise.c   ****             }
 192:blockwise.c   **** 
 193:blockwise.c   ****             break;
 719              		.loc 2 193 0
 720 00ee 11E0     		b	.L37
 721              	.L38:
 190:blockwise.c   ****             }
 722              		.loc 2 190 0
 723 00f0 0E9B     		ldr	r3, [sp, #56]
 724 00f2 013B     		subs	r3, r3, #1
 725 00f4 0CAA     		add	r2, sp, #48
 726 00f6 1578     		ldrb	r5, [r2]
 727 00f8 059C     		ldr	r4, [sp, #20]
 728 00fa 0699     		ldr	r1, [sp, #24]
 729 00fc 0798     		ldr	r0, [sp, #28]
 730 00fe 109A     		ldr	r2, [sp, #64]
 731 0100 0292     		str	r2, [sp, #8]
 732 0102 0F9A     		ldr	r2, [sp, #60]
 733 0104 0192     		str	r2, [sp, #4]
 734 0106 0093     		str	r3, [sp]
 735 0108 2B00     		movs	r3, r5
 736 010a 2200     		movs	r2, r4
 737 010c FFF7FEFF 		bl	cf_blockwise_acc_byte
 738              		.loc 2 193 0
ARM GAS  C:\Users\andrew\AppData\Local\Temp\ccgmRN8w.s 			page 20


 739 0110 00E0     		b	.L37
 740              	.L41:
 172:blockwise.c   ****     case 1: fbyte ^= lbyte;
 741              		.loc 2 172 0
 742 0112 C046     		nop
 743              	.L37:
 194:blockwise.c   ****   }
 195:blockwise.c   **** }
 744              		.loc 2 195 0
 745 0114 C046     		nop
 746 0116 09B0     		add	sp, sp, #36
 747              		@ sp needed
 748 0118 30BD     		pop	{r4, r5, pc}
 749              		.cfi_endproc
 750              	.LFE31:
 751              		.size	cf_blockwise_acc_pad, .-cf_blockwise_acc_pad
 752 011a C046     		.text
 753              	.Letext0:
 754              		.file 3 "c:\\program files (x86)\\cypress\\psoc creator\\4.1\\psoc creator\\import\\gnu\\arm\\5.4.
 755              		.file 4 "c:\\program files (x86)\\cypress\\psoc creator\\4.1\\psoc creator\\import\\gnu\\arm\\5.4.
 756              		.file 5 "c:\\program files (x86)\\cypress\\psoc creator\\4.1\\psoc creator\\import\\gnu\\arm\\5.4.
 757              		.file 6 "blockwise.h"