ARM GAS  C:\Users\andrew\AppData\Local\Temp\ccsQDndW.s 			page 1


   1              		.syntax unified
   2              		.cpu cortex-m0
   3              		.fpu softvfp
   4              		.eabi_attribute 20, 1
   5              		.eabi_attribute 21, 1
   6              		.eabi_attribute 23, 3
   7              		.eabi_attribute 24, 1
   8              		.eabi_attribute 25, 1
   9              		.eabi_attribute 26, 1
  10              		.eabi_attribute 30, 6
  11              		.eabi_attribute 34, 0
  12              		.eabi_attribute 18, 4
  13              		.thumb
  14              		.syntax unified
  15              		.file	"cbcmac.c"
  16              		.text
  17              	.Ltext0:
  18              		.cfi_sections	.debug_frame
  19              		.section	.text.mem_clean,"ax",%progbits
  20              		.align	2
  21              		.code	16
  22              		.thumb_func
  23              		.type	mem_clean, %function
  24              	mem_clean:
  25              	.LFB0:
  26              		.file 1 "handy.h"
   1:handy.h       **** #ifndef HANDY_H
   2:handy.h       **** #define HANDY_H
   3:handy.h       **** 
   4:handy.h       **** #include <stddef.h>
   5:handy.h       **** #include <stdint.h>
   6:handy.h       **** #include <string.h>
   7:handy.h       **** 
   8:handy.h       **** /*
   9:handy.h       ****  * Handy CPP defines and C inline functions.
  10:handy.h       ****  */
  11:handy.h       **** 
  12:handy.h       **** /* Evaluates to the number of items in array-type variable arr. */
  13:handy.h       **** #define ARRAYCOUNT(arr) (sizeof arr / sizeof arr[0])
  14:handy.h       **** 
  15:handy.h       **** /* Normal MIN/MAX macros.  Evaluate argument expressions only once. */
  16:handy.h       **** #ifndef MIN
  17:handy.h       ****   #define MIN(x, y) \
  18:handy.h       ****     ({ typeof (x) __x = (x); \
  19:handy.h       ****        typeof (y) __y = (y); \
  20:handy.h       ****        __x < __y ? __x : __y; })
  21:handy.h       **** #endif
  22:handy.h       **** #ifndef MAX
  23:handy.h       ****   #define MAX(x, y) \
  24:handy.h       ****     ({ typeof (x) __x = (x); \
  25:handy.h       ****        typeof (y) __y = (y); \
  26:handy.h       ****        __x > __y ? __x : __y; })
  27:handy.h       **** #endif
  28:handy.h       **** 
  29:handy.h       **** /* Swap two values.  Uses GCC type inference magic. */
  30:handy.h       **** #ifndef SWAP
  31:handy.h       ****   #define SWAP(x, y) \
ARM GAS  C:\Users\andrew\AppData\Local\Temp\ccsQDndW.s 			page 2


  32:handy.h       ****     do { \
  33:handy.h       ****       typeof (x) __tmp = (x); \
  34:handy.h       ****       (x) = (y); \
  35:handy.h       ****       (y) = __tmp; \
  36:handy.h       ****     } while (0)
  37:handy.h       **** #endif
  38:handy.h       **** 
  39:handy.h       **** /** Stringify its argument. */
  40:handy.h       **** #define STRINGIFY(x) STRINGIFY_(x)
  41:handy.h       **** #define STRINGIFY_(x) #x
  42:handy.h       **** 
  43:handy.h       **** /* Error handling macros.
  44:handy.h       ****  *
  45:handy.h       ****  * These expect a zero = success, non-zero = error convention.
  46:handy.h       ****  */
  47:handy.h       **** 
  48:handy.h       **** /** Error: return. 
  49:handy.h       ****  *  
  50:handy.h       ****  *  If the expression fails, return the error from this function. */
  51:handy.h       **** #define ER(expr) do { typeof (expr) err_ = (expr); if (err_) return err_; } while (0)
  52:handy.h       **** 
  53:handy.h       **** /** Error: goto.
  54:handy.h       ****  *
  55:handy.h       ****  *  If the expression fails, goto x_err.  Assumes defn of label
  56:handy.h       ****  *  x_err and 'error_type err'. */
  57:handy.h       **** #define EG(expr) do { err = (expr); if (err) goto x_err; } while (0)
  58:handy.h       **** 
  59:handy.h       **** /** Like memset(ptr, 0, len), but not allowed to be removed by
  60:handy.h       ****  *  compilers. */
  61:handy.h       **** static inline void mem_clean(volatile void *v, size_t len)
  62:handy.h       **** {
  27              		.loc 1 62 0
  28              		.cfi_startproc
  29              		@ args = 0, pretend = 0, frame = 8
  30              		@ frame_needed = 0, uses_anonymous_args = 0
  31 0000 00B5     		push	{lr}
  32              		.cfi_def_cfa_offset 4
  33              		.cfi_offset 14, -4
  34 0002 83B0     		sub	sp, sp, #12
  35              		.cfi_def_cfa_offset 16
  36 0004 0190     		str	r0, [sp, #4]
  37 0006 0091     		str	r1, [sp]
  63:handy.h       ****   if (len)
  38              		.loc 1 63 0
  39 0008 009B     		ldr	r3, [sp]
  40 000a 002B     		cmp	r3, #0
  41 000c 07D0     		beq	.L3
  64:handy.h       ****   {
  65:handy.h       ****     memset((void *) v, 0, len);
  42              		.loc 1 65 0
  43 000e 009A     		ldr	r2, [sp]
  44 0010 019B     		ldr	r3, [sp, #4]
  45 0012 0021     		movs	r1, #0
  46 0014 1800     		movs	r0, r3
  47 0016 FFF7FEFF 		bl	memset
  66:handy.h       ****     (void) *((volatile uint8_t *) v);
  48              		.loc 1 66 0
ARM GAS  C:\Users\andrew\AppData\Local\Temp\ccsQDndW.s 			page 3


  49 001a 019B     		ldr	r3, [sp, #4]
  50 001c 1B78     		ldrb	r3, [r3]
  51              	.L3:
  67:handy.h       ****   }
  68:handy.h       **** }
  52              		.loc 1 68 0
  53 001e C046     		nop
  54 0020 03B0     		add	sp, sp, #12
  55              		@ sp needed
  56 0022 00BD     		pop	{pc}
  57              		.cfi_endproc
  58              	.LFE0:
  59              		.size	mem_clean, .-mem_clean
  60              		.section	.text.cf_cbcmac_stream_init,"ax",%progbits
  61              		.align	2
  62              		.global	cf_cbcmac_stream_init
  63              		.code	16
  64              		.thumb_func
  65              		.type	cf_cbcmac_stream_init, %function
  66              	cf_cbcmac_stream_init:
  67              	.LFB27:
  68              		.file 2 "cbcmac.c"
   1:cbcmac.c      **** /*
   2:cbcmac.c      ****  * cifra - embedded cryptography library
   3:cbcmac.c      ****  * Written in 2014 by Joseph Birr-Pixton <jpixton@gmail.com>
   4:cbcmac.c      ****  *
   5:cbcmac.c      ****  * To the extent possible under law, the author(s) have dedicated all
   6:cbcmac.c      ****  * copyright and related and neighboring rights to this software to the
   7:cbcmac.c      ****  * public domain worldwide. This software is distributed without any
   8:cbcmac.c      ****  * warranty.
   9:cbcmac.c      ****  *
  10:cbcmac.c      ****  * You should have received a copy of the CC0 Public Domain Dedication
  11:cbcmac.c      ****  * along with this software. If not, see
  12:cbcmac.c      ****  * <http://creativecommons.org/publicdomain/zero/1.0/>.
  13:cbcmac.c      ****  */
  14:cbcmac.c      **** 
  15:cbcmac.c      **** #include "handy.h"
  16:cbcmac.c      **** #include "prp.h"
  17:cbcmac.c      **** #include "modes.h"
  18:cbcmac.c      **** #include "bitops.h"
  19:cbcmac.c      **** #include "blockwise.h"
  20:cbcmac.c      **** #include "gf128.h"
  21:cbcmac.c      **** #include "tassert.h"
  22:cbcmac.c      **** 
  23:cbcmac.c      **** #include <string.h>
  24:cbcmac.c      **** 
  25:cbcmac.c      **** void cf_cbcmac_stream_init(cf_cbcmac_stream *ctx, const cf_prp *prp, void *prpctx)
  26:cbcmac.c      **** {
  69              		.loc 2 26 0
  70              		.cfi_startproc
  71              		@ args = 0, pretend = 0, frame = 16
  72              		@ frame_needed = 0, uses_anonymous_args = 0
  73 0000 00B5     		push	{lr}
  74              		.cfi_def_cfa_offset 4
  75              		.cfi_offset 14, -4
  76 0002 85B0     		sub	sp, sp, #20
  77              		.cfi_def_cfa_offset 24
ARM GAS  C:\Users\andrew\AppData\Local\Temp\ccsQDndW.s 			page 4


  78 0004 0390     		str	r0, [sp, #12]
  79 0006 0291     		str	r1, [sp, #8]
  80 0008 0192     		str	r2, [sp, #4]
  27:cbcmac.c      ****   memset(ctx, 0, sizeof *ctx);
  81              		.loc 2 27 0
  82 000a 039B     		ldr	r3, [sp, #12]
  83 000c 3422     		movs	r2, #52
  84 000e 0021     		movs	r1, #0
  85 0010 1800     		movs	r0, r3
  86 0012 FFF7FEFF 		bl	memset
  28:cbcmac.c      ****   ctx->prp = prp;
  87              		.loc 2 28 0
  88 0016 039B     		ldr	r3, [sp, #12]
  89 0018 029A     		ldr	r2, [sp, #8]
  90 001a 1A60     		str	r2, [r3]
  29:cbcmac.c      ****   ctx->prpctx = prpctx;
  91              		.loc 2 29 0
  92 001c 039B     		ldr	r3, [sp, #12]
  93 001e 019A     		ldr	r2, [sp, #4]
  94 0020 5A60     		str	r2, [r3, #4]
  30:cbcmac.c      ****   cf_cbcmac_stream_reset(ctx);
  95              		.loc 2 30 0
  96 0022 039B     		ldr	r3, [sp, #12]
  97 0024 1800     		movs	r0, r3
  98 0026 FFF7FEFF 		bl	cf_cbcmac_stream_reset
  31:cbcmac.c      **** }
  99              		.loc 2 31 0
 100 002a C046     		nop
 101 002c 05B0     		add	sp, sp, #20
 102              		@ sp needed
 103 002e 00BD     		pop	{pc}
 104              		.cfi_endproc
 105              	.LFE27:
 106              		.size	cf_cbcmac_stream_init, .-cf_cbcmac_stream_init
 107              		.section	.text.cf_cbcmac_stream_reset,"ax",%progbits
 108              		.align	2
 109              		.global	cf_cbcmac_stream_reset
 110              		.code	16
 111              		.thumb_func
 112              		.type	cf_cbcmac_stream_reset, %function
 113              	cf_cbcmac_stream_reset:
 114              	.LFB28:
  32:cbcmac.c      **** 
  33:cbcmac.c      **** void cf_cbcmac_stream_reset(cf_cbcmac_stream *ctx)
  34:cbcmac.c      **** {
 115              		.loc 2 34 0
 116              		.cfi_startproc
 117              		@ args = 0, pretend = 0, frame = 24
 118              		@ frame_needed = 0, uses_anonymous_args = 0
 119 0000 00B5     		push	{lr}
 120              		.cfi_def_cfa_offset 4
 121              		.cfi_offset 14, -4
 122 0002 87B0     		sub	sp, sp, #28
 123              		.cfi_def_cfa_offset 32
 124 0004 0190     		str	r0, [sp, #4]
  35:cbcmac.c      ****   uint8_t iv_zero[CF_MAXBLOCK] = { 0 };
 125              		.loc 2 35 0
ARM GAS  C:\Users\andrew\AppData\Local\Temp\ccsQDndW.s 			page 5


 126 0006 02AB     		add	r3, sp, #8
 127 0008 1800     		movs	r0, r3
 128 000a 1023     		movs	r3, #16
 129 000c 1A00     		movs	r2, r3
 130 000e 0021     		movs	r1, #0
 131 0010 FFF7FEFF 		bl	memset
  36:cbcmac.c      ****   cf_cbc_init(&ctx->cbc, ctx->prp, ctx->prpctx, iv_zero);
 132              		.loc 2 36 0
 133 0014 019B     		ldr	r3, [sp, #4]
 134 0016 0833     		adds	r3, r3, #8
 135 0018 1800     		movs	r0, r3
 136 001a 019B     		ldr	r3, [sp, #4]
 137 001c 1968     		ldr	r1, [r3]
 138 001e 019B     		ldr	r3, [sp, #4]
 139 0020 5A68     		ldr	r2, [r3, #4]
 140 0022 02AB     		add	r3, sp, #8
 141 0024 FFF7FEFF 		bl	cf_cbc_init
  37:cbcmac.c      ****   mem_clean(ctx->buffer, sizeof ctx->buffer);
 142              		.loc 2 37 0
 143 0028 019B     		ldr	r3, [sp, #4]
 144 002a 2033     		adds	r3, r3, #32
 145 002c 1021     		movs	r1, #16
 146 002e 1800     		movs	r0, r3
 147 0030 FFF7FEFF 		bl	mem_clean
  38:cbcmac.c      ****   ctx->used = 0;
 148              		.loc 2 38 0
 149 0034 019B     		ldr	r3, [sp, #4]
 150 0036 0022     		movs	r2, #0
 151 0038 1A63     		str	r2, [r3, #48]
  39:cbcmac.c      **** }
 152              		.loc 2 39 0
 153 003a C046     		nop
 154 003c 07B0     		add	sp, sp, #28
 155              		@ sp needed
 156 003e 00BD     		pop	{pc}
 157              		.cfi_endproc
 158              	.LFE28:
 159              		.size	cf_cbcmac_stream_reset, .-cf_cbcmac_stream_reset
 160              		.section	.text.cbcmac_process,"ax",%progbits
 161              		.align	2
 162              		.code	16
 163              		.thumb_func
 164              		.type	cbcmac_process, %function
 165              	cbcmac_process:
 166              	.LFB29:
  40:cbcmac.c      **** 
  41:cbcmac.c      **** static void cbcmac_process(void *vctx, const uint8_t *block)
  42:cbcmac.c      **** {
 167              		.loc 2 42 0
 168              		.cfi_startproc
 169              		@ args = 0, pretend = 0, frame = 32
 170              		@ frame_needed = 0, uses_anonymous_args = 0
 171 0000 00B5     		push	{lr}
 172              		.cfi_def_cfa_offset 4
 173              		.cfi_offset 14, -4
 174 0002 89B0     		sub	sp, sp, #36
 175              		.cfi_def_cfa_offset 40
ARM GAS  C:\Users\andrew\AppData\Local\Temp\ccsQDndW.s 			page 6


 176 0004 0190     		str	r0, [sp, #4]
 177 0006 0091     		str	r1, [sp]
  43:cbcmac.c      ****   cf_cbcmac_stream *ctx = vctx;
 178              		.loc 2 43 0
 179 0008 019B     		ldr	r3, [sp, #4]
 180 000a 0793     		str	r3, [sp, #28]
  44:cbcmac.c      ****   uint8_t output[CF_MAXBLOCK];
  45:cbcmac.c      ****   cf_cbc_encrypt(&ctx->cbc, block, output, 1);
 181              		.loc 2 45 0
 182 000c 079B     		ldr	r3, [sp, #28]
 183 000e 0833     		adds	r3, r3, #8
 184 0010 1800     		movs	r0, r3
 185 0012 03AA     		add	r2, sp, #12
 186 0014 0099     		ldr	r1, [sp]
 187 0016 0123     		movs	r3, #1
 188 0018 FFF7FEFF 		bl	cf_cbc_encrypt
  46:cbcmac.c      **** }
 189              		.loc 2 46 0
 190 001c C046     		nop
 191 001e 09B0     		add	sp, sp, #36
 192              		@ sp needed
 193 0020 00BD     		pop	{pc}
 194              		.cfi_endproc
 195              	.LFE29:
 196              		.size	cbcmac_process, .-cbcmac_process
 197 0022 C046     		.section	.text.cf_cbcmac_stream_update,"ax",%progbits
 198              		.align	2
 199              		.global	cf_cbcmac_stream_update
 200              		.code	16
 201              		.thumb_func
 202              		.type	cf_cbcmac_stream_update, %function
 203              	cf_cbcmac_stream_update:
 204              	.LFB30:
  47:cbcmac.c      **** 
  48:cbcmac.c      **** void cf_cbcmac_stream_update(cf_cbcmac_stream *ctx, const uint8_t *data, size_t len)
  49:cbcmac.c      **** {
 205              		.loc 2 49 0
 206              		.cfi_startproc
 207              		@ args = 0, pretend = 0, frame = 16
 208              		@ frame_needed = 0, uses_anonymous_args = 0
 209 0000 10B5     		push	{r4, lr}
 210              		.cfi_def_cfa_offset 8
 211              		.cfi_offset 4, -8
 212              		.cfi_offset 14, -4
 213 0002 88B0     		sub	sp, sp, #32
 214              		.cfi_def_cfa_offset 40
 215 0004 0790     		str	r0, [sp, #28]
 216 0006 0691     		str	r1, [sp, #24]
 217 0008 0592     		str	r2, [sp, #20]
  50:cbcmac.c      ****   cf_blockwise_accumulate(ctx->buffer, &ctx->used, ctx->prp->blocksz,
 218              		.loc 2 50 0
 219 000a 079B     		ldr	r3, [sp, #28]
 220 000c 2033     		adds	r3, r3, #32
 221 000e 1800     		movs	r0, r3
 222 0010 079B     		ldr	r3, [sp, #28]
 223 0012 3033     		adds	r3, r3, #48
 224 0014 1900     		movs	r1, r3
ARM GAS  C:\Users\andrew\AppData\Local\Temp\ccsQDndW.s 			page 7


 225 0016 079B     		ldr	r3, [sp, #28]
 226 0018 1B68     		ldr	r3, [r3]
 227 001a 1A68     		ldr	r2, [r3]
 228 001c 069C     		ldr	r4, [sp, #24]
 229 001e 079B     		ldr	r3, [sp, #28]
 230 0020 0293     		str	r3, [sp, #8]
 231 0022 054B     		ldr	r3, .L8
 232 0024 0193     		str	r3, [sp, #4]
 233 0026 059B     		ldr	r3, [sp, #20]
 234 0028 0093     		str	r3, [sp]
 235 002a 2300     		movs	r3, r4
 236 002c FFF7FEFF 		bl	cf_blockwise_accumulate
  51:cbcmac.c      ****                           data, len,
  52:cbcmac.c      ****                           cbcmac_process,
  53:cbcmac.c      ****                           ctx);
  54:cbcmac.c      **** }
 237              		.loc 2 54 0
 238 0030 C046     		nop
 239 0032 08B0     		add	sp, sp, #32
 240              		@ sp needed
 241 0034 10BD     		pop	{r4, pc}
 242              	.L9:
 243 0036 C046     		.align	2
 244              	.L8:
 245 0038 00000000 		.word	cbcmac_process
 246              		.cfi_endproc
 247              	.LFE30:
 248              		.size	cf_cbcmac_stream_update, .-cf_cbcmac_stream_update
 249              		.section	.text.cf_cbcmac_stream_finish_block_zero,"ax",%progbits
 250              		.align	2
 251              		.global	cf_cbcmac_stream_finish_block_zero
 252              		.code	16
 253              		.thumb_func
 254              		.type	cf_cbcmac_stream_finish_block_zero, %function
 255              	cf_cbcmac_stream_finish_block_zero:
 256              	.LFB31:
  55:cbcmac.c      **** 
  56:cbcmac.c      **** void cf_cbcmac_stream_finish_block_zero(cf_cbcmac_stream *ctx)
  57:cbcmac.c      **** {
 257              		.loc 2 57 0
 258              		.cfi_startproc
 259              		@ args = 0, pretend = 0, frame = 8
 260              		@ frame_needed = 0, uses_anonymous_args = 0
 261 0000 00B5     		push	{lr}
 262              		.cfi_def_cfa_offset 4
 263              		.cfi_offset 14, -4
 264 0002 83B0     		sub	sp, sp, #12
 265              		.cfi_def_cfa_offset 16
 266 0004 0190     		str	r0, [sp, #4]
  58:cbcmac.c      ****   if (ctx->used == 0)
 267              		.loc 2 58 0
 268 0006 019B     		ldr	r3, [sp, #4]
 269 0008 1B6B     		ldr	r3, [r3, #48]
 270 000a 002B     		cmp	r3, #0
 271 000c 1BD0     		beq	.L13
  59:cbcmac.c      ****     return;
  60:cbcmac.c      **** 
ARM GAS  C:\Users\andrew\AppData\Local\Temp\ccsQDndW.s 			page 8


  61:cbcmac.c      ****   memset(ctx->buffer + ctx->used, 0, ctx->prp->blocksz - ctx->used);
 272              		.loc 2 61 0
 273 000e 019B     		ldr	r3, [sp, #4]
 274 0010 2033     		adds	r3, r3, #32
 275 0012 1A00     		movs	r2, r3
 276 0014 019B     		ldr	r3, [sp, #4]
 277 0016 1B6B     		ldr	r3, [r3, #48]
 278 0018 D018     		adds	r0, r2, r3
 279 001a 019B     		ldr	r3, [sp, #4]
 280 001c 1B68     		ldr	r3, [r3]
 281 001e 1A68     		ldr	r2, [r3]
 282 0020 019B     		ldr	r3, [sp, #4]
 283 0022 1B6B     		ldr	r3, [r3, #48]
 284 0024 D31A     		subs	r3, r2, r3
 285 0026 1A00     		movs	r2, r3
 286 0028 0021     		movs	r1, #0
 287 002a FFF7FEFF 		bl	memset
  62:cbcmac.c      ****   cbcmac_process(ctx, ctx->buffer);
 288              		.loc 2 62 0
 289 002e 019B     		ldr	r3, [sp, #4]
 290 0030 2033     		adds	r3, r3, #32
 291 0032 1A00     		movs	r2, r3
 292 0034 019B     		ldr	r3, [sp, #4]
 293 0036 1100     		movs	r1, r2
 294 0038 1800     		movs	r0, r3
 295 003a FFF7FEFF 		bl	cbcmac_process
  63:cbcmac.c      ****   ctx->used = 0;
 296              		.loc 2 63 0
 297 003e 019B     		ldr	r3, [sp, #4]
 298 0040 0022     		movs	r2, #0
 299 0042 1A63     		str	r2, [r3, #48]
 300 0044 00E0     		b	.L10
 301              	.L13:
  59:cbcmac.c      ****     return;
 302              		.loc 2 59 0
 303 0046 C046     		nop
 304              	.L10:
  64:cbcmac.c      **** }
 305              		.loc 2 64 0
 306 0048 03B0     		add	sp, sp, #12
 307              		@ sp needed
 308 004a 00BD     		pop	{pc}
 309              		.cfi_endproc
 310              	.LFE31:
 311              		.size	cf_cbcmac_stream_finish_block_zero, .-cf_cbcmac_stream_finish_block_zero
 312              		.section	.text.cf_cbcmac_stream_nopad_final,"ax",%progbits
 313              		.align	2
 314              		.global	cf_cbcmac_stream_nopad_final
 315              		.code	16
 316              		.thumb_func
 317              		.type	cf_cbcmac_stream_nopad_final, %function
 318              	cf_cbcmac_stream_nopad_final:
 319              	.LFB32:
  65:cbcmac.c      **** 
  66:cbcmac.c      **** void cf_cbcmac_stream_nopad_final(cf_cbcmac_stream *ctx, uint8_t out[CF_MAXBLOCK])
  67:cbcmac.c      **** {
 320              		.loc 2 67 0
ARM GAS  C:\Users\andrew\AppData\Local\Temp\ccsQDndW.s 			page 9


 321              		.cfi_startproc
 322              		@ args = 0, pretend = 0, frame = 8
 323              		@ frame_needed = 0, uses_anonymous_args = 0
 324 0000 00B5     		push	{lr}
 325              		.cfi_def_cfa_offset 4
 326              		.cfi_offset 14, -4
 327 0002 83B0     		sub	sp, sp, #12
 328              		.cfi_def_cfa_offset 16
 329 0004 0190     		str	r0, [sp, #4]
 330 0006 0091     		str	r1, [sp]
  68:cbcmac.c      ****   assert(ctx->used == 0);
  69:cbcmac.c      ****   memcpy(out, ctx->cbc.block, ctx->prp->blocksz);
 331              		.loc 2 69 0
 332 0008 019B     		ldr	r3, [sp, #4]
 333 000a 1033     		adds	r3, r3, #16
 334 000c 1900     		movs	r1, r3
 335 000e 019B     		ldr	r3, [sp, #4]
 336 0010 1B68     		ldr	r3, [r3]
 337 0012 1A68     		ldr	r2, [r3]
 338 0014 009B     		ldr	r3, [sp]
 339 0016 1800     		movs	r0, r3
 340 0018 FFF7FEFF 		bl	memcpy
  70:cbcmac.c      **** }
 341              		.loc 2 70 0
 342 001c C046     		nop
 343 001e 03B0     		add	sp, sp, #12
 344              		@ sp needed
 345 0020 00BD     		pop	{pc}
 346              		.cfi_endproc
 347              	.LFE32:
 348              		.size	cf_cbcmac_stream_nopad_final, .-cf_cbcmac_stream_nopad_final
 349 0022 C046     		.section	.text.cf_cbcmac_stream_pad_final,"ax",%progbits
 350              		.align	2
 351              		.global	cf_cbcmac_stream_pad_final
 352              		.code	16
 353              		.thumb_func
 354              		.type	cf_cbcmac_stream_pad_final, %function
 355              	cf_cbcmac_stream_pad_final:
 356              	.LFB33:
  71:cbcmac.c      **** 
  72:cbcmac.c      **** void cf_cbcmac_stream_pad_final(cf_cbcmac_stream *ctx, uint8_t out[CF_MAXBLOCK])
  73:cbcmac.c      **** {
 357              		.loc 2 73 0
 358              		.cfi_startproc
 359              		@ args = 0, pretend = 0, frame = 16
 360              		@ frame_needed = 0, uses_anonymous_args = 0
 361 0000 30B5     		push	{r4, r5, lr}
 362              		.cfi_def_cfa_offset 12
 363              		.cfi_offset 4, -12
 364              		.cfi_offset 5, -8
 365              		.cfi_offset 14, -4
 366 0002 89B0     		sub	sp, sp, #36
 367              		.cfi_def_cfa_offset 48
 368 0004 0590     		str	r0, [sp, #20]
 369 0006 0491     		str	r1, [sp, #16]
  74:cbcmac.c      ****   uint8_t npad = ctx->prp->blocksz - ctx->used;
 370              		.loc 2 74 0
ARM GAS  C:\Users\andrew\AppData\Local\Temp\ccsQDndW.s 			page 10


 371 0008 059B     		ldr	r3, [sp, #20]
 372 000a 1B68     		ldr	r3, [r3]
 373 000c 1B68     		ldr	r3, [r3]
 374 000e D9B2     		uxtb	r1, r3
 375 0010 059B     		ldr	r3, [sp, #20]
 376 0012 1B6B     		ldr	r3, [r3, #48]
 377 0014 DAB2     		uxtb	r2, r3
 378 0016 1F23     		movs	r3, #31
 379 0018 6B44     		add	r3, r3, sp
 380 001a 8A1A     		subs	r2, r1, r2
 381 001c 1A70     		strb	r2, [r3]
  75:cbcmac.c      ****   cf_blockwise_acc_byte(ctx->buffer, &ctx->used, ctx->prp->blocksz,
 382              		.loc 2 75 0
 383 001e 059B     		ldr	r3, [sp, #20]
 384 0020 2033     		adds	r3, r3, #32
 385 0022 1800     		movs	r0, r3
 386 0024 059B     		ldr	r3, [sp, #20]
 387 0026 3033     		adds	r3, r3, #48
 388 0028 1900     		movs	r1, r3
 389 002a 059B     		ldr	r3, [sp, #20]
 390 002c 1B68     		ldr	r3, [r3]
 391 002e 1C68     		ldr	r4, [r3]
 392 0030 1F23     		movs	r3, #31
 393 0032 6B44     		add	r3, r3, sp
 394 0034 1B78     		ldrb	r3, [r3]
 395 0036 1F22     		movs	r2, #31
 396 0038 6A44     		add	r2, r2, sp
 397 003a 1578     		ldrb	r5, [r2]
 398 003c 059A     		ldr	r2, [sp, #20]
 399 003e 0292     		str	r2, [sp, #8]
 400 0040 074A     		ldr	r2, .L16
 401 0042 0192     		str	r2, [sp, #4]
 402 0044 0093     		str	r3, [sp]
 403 0046 2B00     		movs	r3, r5
 404 0048 2200     		movs	r2, r4
 405 004a FFF7FEFF 		bl	cf_blockwise_acc_byte
  76:cbcmac.c      ****                         npad, npad,
  77:cbcmac.c      ****                         cbcmac_process, ctx);
  78:cbcmac.c      ****   cf_cbcmac_stream_nopad_final(ctx, out);
 406              		.loc 2 78 0
 407 004e 049A     		ldr	r2, [sp, #16]
 408 0050 059B     		ldr	r3, [sp, #20]
 409 0052 1100     		movs	r1, r2
 410 0054 1800     		movs	r0, r3
 411 0056 FFF7FEFF 		bl	cf_cbcmac_stream_nopad_final
  79:cbcmac.c      **** }
 412              		.loc 2 79 0
 413 005a C046     		nop
 414 005c 09B0     		add	sp, sp, #36
 415              		@ sp needed
 416 005e 30BD     		pop	{r4, r5, pc}
 417              	.L17:
 418              		.align	2
 419              	.L16:
 420 0060 00000000 		.word	cbcmac_process
 421              		.cfi_endproc
 422              	.LFE33:
ARM GAS  C:\Users\andrew\AppData\Local\Temp\ccsQDndW.s 			page 11


 423              		.size	cf_cbcmac_stream_pad_final, .-cf_cbcmac_stream_pad_final
 424              		.text
 425              	.Letext0:
 426              		.file 3 "c:\\program files (x86)\\cypress\\psoc creator\\4.1\\psoc creator\\import\\gnu\\arm\\5.4.
 427              		.file 4 "c:\\program files (x86)\\cypress\\psoc creator\\4.1\\psoc creator\\import\\gnu\\arm\\5.4.
 428              		.file 5 "c:\\program files (x86)\\cypress\\psoc creator\\4.1\\psoc creator\\import\\gnu\\arm\\5.4.
 429              		.file 6 "prp.h"
 430              		.file 7 "modes.h"