ARM GAS  C:\Users\andrew\AppData\Local\Temp\ccfIf1XJ.s 			page 1


   1              		.syntax unified
   2              		.cpu cortex-m0
   3              		.fpu softvfp
   4              		.eabi_attribute 20, 1
   5              		.eabi_attribute 21, 1
   6              		.eabi_attribute 23, 3
   7              		.eabi_attribute 24, 1
   8              		.eabi_attribute 25, 1
   9              		.eabi_attribute 26, 1
  10              		.eabi_attribute 30, 6
  11              		.eabi_attribute 34, 0
  12              		.eabi_attribute 18, 4
  13              		.thumb
  14              		.syntax unified
  15              		.file	"ccm.c"
  16              		.text
  17              	.Ltext0:
  18              		.cfi_sections	.debug_frame
  19              		.section	.text.mem_clean,"ax",%progbits
  20              		.align	2
  21              		.code	16
  22              		.thumb_func
  23              		.type	mem_clean, %function
  24              	mem_clean:
  25              	.LFB0:
  26              		.file 1 "handy.h"
   1:handy.h       **** #ifndef HANDY_H
   2:handy.h       **** #define HANDY_H
   3:handy.h       **** 
   4:handy.h       **** #include <stddef.h>
   5:handy.h       **** #include <stdint.h>
   6:handy.h       **** #include <string.h>
   7:handy.h       **** 
   8:handy.h       **** /*
   9:handy.h       ****  * Handy CPP defines and C inline functions.
  10:handy.h       ****  */
  11:handy.h       **** 
  12:handy.h       **** /* Evaluates to the number of items in array-type variable arr. */
  13:handy.h       **** #define ARRAYCOUNT(arr) (sizeof arr / sizeof arr[0])
  14:handy.h       **** 
  15:handy.h       **** /* Normal MIN/MAX macros.  Evaluate argument expressions only once. */
  16:handy.h       **** #ifndef MIN
  17:handy.h       ****   #define MIN(x, y) \
  18:handy.h       ****     ({ typeof (x) __x = (x); \
  19:handy.h       ****        typeof (y) __y = (y); \
  20:handy.h       ****        __x < __y ? __x : __y; })
  21:handy.h       **** #endif
  22:handy.h       **** #ifndef MAX
  23:handy.h       ****   #define MAX(x, y) \
  24:handy.h       ****     ({ typeof (x) __x = (x); \
  25:handy.h       ****        typeof (y) __y = (y); \
  26:handy.h       ****        __x > __y ? __x : __y; })
  27:handy.h       **** #endif
  28:handy.h       **** 
  29:handy.h       **** /* Swap two values.  Uses GCC type inference magic. */
  30:handy.h       **** #ifndef SWAP
  31:handy.h       ****   #define SWAP(x, y) \
ARM GAS  C:\Users\andrew\AppData\Local\Temp\ccfIf1XJ.s 			page 2


  32:handy.h       ****     do { \
  33:handy.h       ****       typeof (x) __tmp = (x); \
  34:handy.h       ****       (x) = (y); \
  35:handy.h       ****       (y) = __tmp; \
  36:handy.h       ****     } while (0)
  37:handy.h       **** #endif
  38:handy.h       **** 
  39:handy.h       **** /** Stringify its argument. */
  40:handy.h       **** #define STRINGIFY(x) STRINGIFY_(x)
  41:handy.h       **** #define STRINGIFY_(x) #x
  42:handy.h       **** 
  43:handy.h       **** /* Error handling macros.
  44:handy.h       ****  *
  45:handy.h       ****  * These expect a zero = success, non-zero = error convention.
  46:handy.h       ****  */
  47:handy.h       **** 
  48:handy.h       **** /** Error: return. 
  49:handy.h       ****  *  
  50:handy.h       ****  *  If the expression fails, return the error from this function. */
  51:handy.h       **** #define ER(expr) do { typeof (expr) err_ = (expr); if (err_) return err_; } while (0)
  52:handy.h       **** 
  53:handy.h       **** /** Error: goto.
  54:handy.h       ****  *
  55:handy.h       ****  *  If the expression fails, goto x_err.  Assumes defn of label
  56:handy.h       ****  *  x_err and 'error_type err'. */
  57:handy.h       **** #define EG(expr) do { err = (expr); if (err) goto x_err; } while (0)
  58:handy.h       **** 
  59:handy.h       **** /** Like memset(ptr, 0, len), but not allowed to be removed by
  60:handy.h       ****  *  compilers. */
  61:handy.h       **** static inline void mem_clean(volatile void *v, size_t len)
  62:handy.h       **** {
  27              		.loc 1 62 0
  28              		.cfi_startproc
  29              		@ args = 0, pretend = 0, frame = 8
  30              		@ frame_needed = 0, uses_anonymous_args = 0
  31 0000 00B5     		push	{lr}
  32              		.cfi_def_cfa_offset 4
  33              		.cfi_offset 14, -4
  34 0002 83B0     		sub	sp, sp, #12
  35              		.cfi_def_cfa_offset 16
  36 0004 0190     		str	r0, [sp, #4]
  37 0006 0091     		str	r1, [sp]
  63:handy.h       ****   if (len)
  38              		.loc 1 63 0
  39 0008 009B     		ldr	r3, [sp]
  40 000a 002B     		cmp	r3, #0
  41 000c 07D0     		beq	.L3
  64:handy.h       ****   {
  65:handy.h       ****     memset((void *) v, 0, len);
  42              		.loc 1 65 0
  43 000e 009A     		ldr	r2, [sp]
  44 0010 019B     		ldr	r3, [sp, #4]
  45 0012 0021     		movs	r1, #0
  46 0014 1800     		movs	r0, r3
  47 0016 FFF7FEFF 		bl	memset
  66:handy.h       ****     (void) *((volatile uint8_t *) v);
  48              		.loc 1 66 0
ARM GAS  C:\Users\andrew\AppData\Local\Temp\ccfIf1XJ.s 			page 3


  49 001a 019B     		ldr	r3, [sp, #4]
  50 001c 1B78     		ldrb	r3, [r3]
  51              	.L3:
  67:handy.h       ****   }
  68:handy.h       **** }
  52              		.loc 1 68 0
  53 001e C046     		nop
  54 0020 03B0     		add	sp, sp, #12
  55              		@ sp needed
  56 0022 00BD     		pop	{pc}
  57              		.cfi_endproc
  58              	.LFE0:
  59              		.size	mem_clean, .-mem_clean
  60              		.section	.text.mem_eq,"ax",%progbits
  61              		.align	2
  62              		.code	16
  63              		.thumb_func
  64              		.type	mem_eq, %function
  65              	mem_eq:
  66              	.LFB1:
  69:handy.h       **** 
  70:handy.h       **** /** Returns 1 if len bytes at va equal len bytes at vb, 0 if they do not.
  71:handy.h       ****  *  Does not leak length of common prefix through timing. */
  72:handy.h       **** static inline unsigned mem_eq(const void *va, const void *vb, size_t len)
  73:handy.h       **** {
  67              		.loc 1 73 0
  68              		.cfi_startproc
  69              		@ args = 0, pretend = 0, frame = 32
  70              		@ frame_needed = 0, uses_anonymous_args = 0
  71              		@ link register save eliminated.
  72 0000 88B0     		sub	sp, sp, #32
  73              		.cfi_def_cfa_offset 32
  74 0002 0390     		str	r0, [sp, #12]
  75 0004 0291     		str	r1, [sp, #8]
  76 0006 0192     		str	r2, [sp, #4]
  74:handy.h       ****   const volatile uint8_t *a = va;
  77              		.loc 1 74 0
  78 0008 039B     		ldr	r3, [sp, #12]
  79 000a 0793     		str	r3, [sp, #28]
  75:handy.h       ****   const volatile uint8_t *b = vb;
  80              		.loc 1 75 0
  81 000c 029B     		ldr	r3, [sp, #8]
  82 000e 0693     		str	r3, [sp, #24]
  76:handy.h       ****   uint8_t diff = 0;
  83              		.loc 1 76 0
  84 0010 1723     		movs	r3, #23
  85 0012 6B44     		add	r3, r3, sp
  86 0014 0022     		movs	r2, #0
  87 0016 1A70     		strb	r2, [r3]
  77:handy.h       **** 
  78:handy.h       ****   while (len--)
  88              		.loc 1 78 0
  89 0018 15E0     		b	.L5
  90              	.L6:
  79:handy.h       ****   {
  80:handy.h       ****     diff |= *a++ ^ *b++;
  91              		.loc 1 80 0
ARM GAS  C:\Users\andrew\AppData\Local\Temp\ccfIf1XJ.s 			page 4


  92 001a 079B     		ldr	r3, [sp, #28]
  93 001c 5A1C     		adds	r2, r3, #1
  94 001e 0792     		str	r2, [sp, #28]
  95 0020 1B78     		ldrb	r3, [r3]
  96 0022 DAB2     		uxtb	r2, r3
  97 0024 069B     		ldr	r3, [sp, #24]
  98 0026 591C     		adds	r1, r3, #1
  99 0028 0691     		str	r1, [sp, #24]
 100 002a 1B78     		ldrb	r3, [r3]
 101 002c DBB2     		uxtb	r3, r3
 102 002e 5340     		eors	r3, r2
 103 0030 DBB2     		uxtb	r3, r3
 104 0032 5AB2     		sxtb	r2, r3
 105 0034 1723     		movs	r3, #23
 106 0036 6B44     		add	r3, r3, sp
 107 0038 1B78     		ldrb	r3, [r3]
 108 003a 5BB2     		sxtb	r3, r3
 109 003c 1343     		orrs	r3, r2
 110 003e 5AB2     		sxtb	r2, r3
 111 0040 1723     		movs	r3, #23
 112 0042 6B44     		add	r3, r3, sp
 113 0044 1A70     		strb	r2, [r3]
 114              	.L5:
  78:handy.h       ****   {
 115              		.loc 1 78 0
 116 0046 019B     		ldr	r3, [sp, #4]
 117 0048 5A1E     		subs	r2, r3, #1
 118 004a 0192     		str	r2, [sp, #4]
 119 004c 002B     		cmp	r3, #0
 120 004e E4D1     		bne	.L6
  81:handy.h       ****   }
  82:handy.h       **** 
  83:handy.h       ****   return !diff;
 121              		.loc 1 83 0
 122 0050 1723     		movs	r3, #23
 123 0052 6B44     		add	r3, r3, sp
 124 0054 1B78     		ldrb	r3, [r3]
 125 0056 5A42     		rsbs	r2, r3, #0
 126 0058 5341     		adcs	r3, r3, r2
 127 005a DBB2     		uxtb	r3, r3
  84:handy.h       **** }
 128              		.loc 1 84 0
 129 005c 1800     		movs	r0, r3
 130 005e 08B0     		add	sp, sp, #32
 131              		@ sp needed
 132 0060 7047     		bx	lr
 133              		.cfi_endproc
 134              	.LFE1:
 135              		.size	mem_eq, .-mem_eq
 136 0062 C046     		.section	.text.write_be,"ax",%progbits
 137              		.align	2
 138              		.code	16
 139              		.thumb_func
 140              		.type	write_be, %function
 141              	write_be:
 142              	.LFB2:
 143              		.file 2 "ccm.c"
ARM GAS  C:\Users\andrew\AppData\Local\Temp\ccfIf1XJ.s 			page 5


   1:ccm.c         **** /*
   2:ccm.c         ****  * cifra - embedded cryptography library
   3:ccm.c         ****  * Written in 2014 by Joseph Birr-Pixton <jpixton@gmail.com>
   4:ccm.c         ****  *
   5:ccm.c         ****  * To the extent possible under law, the author(s) have dedicated all
   6:ccm.c         ****  * copyright and related and neighboring rights to this software to the
   7:ccm.c         ****  * public domain worldwide. This software is distributed without any
   8:ccm.c         ****  * warranty.
   9:ccm.c         ****  *
  10:ccm.c         ****  * You should have received a copy of the CC0 Public Domain Dedication
  11:ccm.c         ****  * along with this software. If not, see
  12:ccm.c         ****  * <http://creativecommons.org/publicdomain/zero/1.0/>.
  13:ccm.c         ****  */
  14:ccm.c         **** 
  15:ccm.c         **** #include "handy.h"
  16:ccm.c         **** #include "prp.h"
  17:ccm.c         **** #include "modes.h"
  18:ccm.c         **** #include "tassert.h"
  19:ccm.c         **** 
  20:ccm.c         **** #include <string.h>
  21:ccm.c         **** 
  22:ccm.c         **** #define CCM_ADATA_PRESENT 0x40
  23:ccm.c         **** 
  24:ccm.c         **** static void write_be(uint8_t *out, size_t value, size_t bytes)
  25:ccm.c         **** {
 144              		.loc 2 25 0
 145              		.cfi_startproc
 146              		@ args = 0, pretend = 0, frame = 16
 147              		@ frame_needed = 0, uses_anonymous_args = 0
 148 0000 00B5     		push	{lr}
 149              		.cfi_def_cfa_offset 4
 150              		.cfi_offset 14, -4
 151 0002 85B0     		sub	sp, sp, #20
 152              		.cfi_def_cfa_offset 24
 153 0004 0390     		str	r0, [sp, #12]
 154 0006 0291     		str	r1, [sp, #8]
 155 0008 0192     		str	r2, [sp, #4]
  26:ccm.c         ****   while (bytes)
 156              		.loc 2 26 0
 157 000a 0CE0     		b	.L9
 158              	.L10:
  27:ccm.c         ****   {
  28:ccm.c         ****     out[bytes - 1] = value & 0xff;
 159              		.loc 2 28 0
 160 000c 019B     		ldr	r3, [sp, #4]
 161 000e 013B     		subs	r3, r3, #1
 162 0010 039A     		ldr	r2, [sp, #12]
 163 0012 D318     		adds	r3, r2, r3
 164 0014 029A     		ldr	r2, [sp, #8]
 165 0016 D2B2     		uxtb	r2, r2
 166 0018 1A70     		strb	r2, [r3]
  29:ccm.c         ****     value >>= 8;
 167              		.loc 2 29 0
 168 001a 029B     		ldr	r3, [sp, #8]
 169 001c 1B0A     		lsrs	r3, r3, #8
 170 001e 0293     		str	r3, [sp, #8]
  30:ccm.c         ****     bytes--;
ARM GAS  C:\Users\andrew\AppData\Local\Temp\ccfIf1XJ.s 			page 6


 171              		.loc 2 30 0
 172 0020 019B     		ldr	r3, [sp, #4]
 173 0022 013B     		subs	r3, r3, #1
 174 0024 0193     		str	r3, [sp, #4]
 175              	.L9:
  26:ccm.c         ****   {
 176              		.loc 2 26 0
 177 0026 019B     		ldr	r3, [sp, #4]
 178 0028 002B     		cmp	r3, #0
 179 002a EFD1     		bne	.L10
  31:ccm.c         ****   }
  32:ccm.c         **** 
  33:ccm.c         ****   assert(value == 0); /* or we couldn't encode the value. */
 180              		.loc 2 33 0
 181 002c 029B     		ldr	r3, [sp, #8]
 182 002e 002B     		cmp	r3, #0
 183 0030 01D0     		beq	.L12
 184              		.loc 2 33 0 is_stmt 0 discriminator 1
 185 0032 FFF7FEFF 		bl	abort
 186              	.L12:
  34:ccm.c         **** }
 187              		.loc 2 34 0 is_stmt 1
 188 0036 C046     		nop
 189 0038 05B0     		add	sp, sp, #20
 190              		@ sp needed
 191 003a 00BD     		pop	{pc}
 192              		.cfi_endproc
 193              	.LFE2:
 194              		.size	write_be, .-write_be
 195              		.section	.text.zero_pad,"ax",%progbits
 196              		.align	2
 197              		.code	16
 198              		.thumb_func
 199              		.type	zero_pad, %function
 200              	zero_pad:
 201              	.LFB3:
  35:ccm.c         **** 
  36:ccm.c         **** static void zero_pad(cf_cbcmac_stream *cm)
  37:ccm.c         **** {
 202              		.loc 2 37 0
 203              		.cfi_startproc
 204              		@ args = 0, pretend = 0, frame = 8
 205              		@ frame_needed = 0, uses_anonymous_args = 0
 206 0000 00B5     		push	{lr}
 207              		.cfi_def_cfa_offset 4
 208              		.cfi_offset 14, -4
 209 0002 83B0     		sub	sp, sp, #12
 210              		.cfi_def_cfa_offset 16
 211 0004 0190     		str	r0, [sp, #4]
  38:ccm.c         ****   cf_cbcmac_stream_finish_block_zero(cm);
 212              		.loc 2 38 0
 213 0006 019B     		ldr	r3, [sp, #4]
 214 0008 1800     		movs	r0, r3
 215 000a FFF7FEFF 		bl	cf_cbcmac_stream_finish_block_zero
  39:ccm.c         **** }
 216              		.loc 2 39 0
 217 000e C046     		nop
ARM GAS  C:\Users\andrew\AppData\Local\Temp\ccfIf1XJ.s 			page 7


 218 0010 03B0     		add	sp, sp, #12
 219              		@ sp needed
 220 0012 00BD     		pop	{pc}
 221              		.cfi_endproc
 222              	.LFE3:
 223              		.size	zero_pad, .-zero_pad
 224              		.section	.text.add_aad,"ax",%progbits
 225              		.align	2
 226              		.code	16
 227              		.thumb_func
 228              		.type	add_aad, %function
 229              	add_aad:
 230              	.LFB4:
  40:ccm.c         **** 
  41:ccm.c         **** /* nb. block is general workspace. */
  42:ccm.c         **** static void add_aad(cf_cbcmac_stream *cm, uint8_t block[CF_MAXBLOCK],
  43:ccm.c         ****                     const uint8_t *header, size_t nheader)
  44:ccm.c         **** {
 231              		.loc 2 44 0
 232              		.cfi_startproc
 233              		@ args = 0, pretend = 0, frame = 16
 234              		@ frame_needed = 0, uses_anonymous_args = 0
 235 0000 00B5     		push	{lr}
 236              		.cfi_def_cfa_offset 4
 237              		.cfi_offset 14, -4
 238 0002 85B0     		sub	sp, sp, #20
 239              		.cfi_def_cfa_offset 24
 240 0004 0390     		str	r0, [sp, #12]
 241 0006 0291     		str	r1, [sp, #8]
 242 0008 0192     		str	r2, [sp, #4]
 243 000a 0093     		str	r3, [sp]
  45:ccm.c         ****   assert(nheader <= 0xffffffff); /* we don't support 64 bit lengths. */
  46:ccm.c         **** 
  47:ccm.c         ****   /* Add length using stupidly complicated rules. */
  48:ccm.c         ****   if (nheader < 0xff00)
 244              		.loc 2 48 0
 245 000c 009B     		ldr	r3, [sp]
 246 000e 184A     		ldr	r2, .L17
 247 0010 9342     		cmp	r3, r2
 248 0012 0CD8     		bhi	.L15
  49:ccm.c         ****   {
  50:ccm.c         ****     write_be(block, nheader, 2);
 249              		.loc 2 50 0
 250 0014 0099     		ldr	r1, [sp]
 251 0016 029B     		ldr	r3, [sp, #8]
 252 0018 0222     		movs	r2, #2
 253 001a 1800     		movs	r0, r3
 254 001c FFF7FEFF 		bl	write_be
  51:ccm.c         ****     cf_cbcmac_stream_update(cm, block, 2);
 255              		.loc 2 51 0
 256 0020 0299     		ldr	r1, [sp, #8]
 257 0022 039B     		ldr	r3, [sp, #12]
 258 0024 0222     		movs	r2, #2
 259 0026 1800     		movs	r0, r3
 260 0028 FFF7FEFF 		bl	cf_cbcmac_stream_update
 261 002c 12E0     		b	.L16
 262              	.L15:
ARM GAS  C:\Users\andrew\AppData\Local\Temp\ccfIf1XJ.s 			page 8


  52:ccm.c         ****   } else {
  53:ccm.c         ****     write_be(block, 0xfffe, 2);
 263              		.loc 2 53 0
 264 002e 1149     		ldr	r1, .L17+4
 265 0030 029B     		ldr	r3, [sp, #8]
 266 0032 0222     		movs	r2, #2
 267 0034 1800     		movs	r0, r3
 268 0036 FFF7FEFF 		bl	write_be
  54:ccm.c         ****     write_be(block + 2, nheader, 4);
 269              		.loc 2 54 0
 270 003a 029B     		ldr	r3, [sp, #8]
 271 003c 0233     		adds	r3, r3, #2
 272 003e 0099     		ldr	r1, [sp]
 273 0040 0422     		movs	r2, #4
 274 0042 1800     		movs	r0, r3
 275 0044 FFF7FEFF 		bl	write_be
  55:ccm.c         ****     cf_cbcmac_stream_update(cm, block, 6);
 276              		.loc 2 55 0
 277 0048 0299     		ldr	r1, [sp, #8]
 278 004a 039B     		ldr	r3, [sp, #12]
 279 004c 0622     		movs	r2, #6
 280 004e 1800     		movs	r0, r3
 281 0050 FFF7FEFF 		bl	cf_cbcmac_stream_update
 282              	.L16:
  56:ccm.c         ****   }
  57:ccm.c         **** 
  58:ccm.c         ****   cf_cbcmac_stream_update(cm, header, nheader);
 283              		.loc 2 58 0
 284 0054 009A     		ldr	r2, [sp]
 285 0056 0199     		ldr	r1, [sp, #4]
 286 0058 039B     		ldr	r3, [sp, #12]
 287 005a 1800     		movs	r0, r3
 288 005c FFF7FEFF 		bl	cf_cbcmac_stream_update
  59:ccm.c         ****   zero_pad(cm);
 289              		.loc 2 59 0
 290 0060 039B     		ldr	r3, [sp, #12]
 291 0062 1800     		movs	r0, r3
 292 0064 FFF7FEFF 		bl	zero_pad
  60:ccm.c         **** }
 293              		.loc 2 60 0
 294 0068 C046     		nop
 295 006a 05B0     		add	sp, sp, #20
 296              		@ sp needed
 297 006c 00BD     		pop	{pc}
 298              	.L18:
 299 006e C046     		.align	2
 300              	.L17:
 301 0070 FFFE0000 		.word	65279
 302 0074 FEFF0000 		.word	65534
 303              		.cfi_endproc
 304              	.LFE4:
 305              		.size	add_aad, .-add_aad
 306              		.section	.text.add_block0,"ax",%progbits
 307              		.align	2
 308              		.code	16
 309              		.thumb_func
 310              		.type	add_block0, %function
ARM GAS  C:\Users\andrew\AppData\Local\Temp\ccfIf1XJ.s 			page 9


 311              	add_block0:
 312              	.LFB5:
  61:ccm.c         **** 
  62:ccm.c         **** static void add_block0(cf_cbcmac_stream *cm,
  63:ccm.c         ****                        uint8_t block[CF_MAXBLOCK], size_t nblock,
  64:ccm.c         ****                        const uint8_t *nonce, size_t nnonce,
  65:ccm.c         ****                        size_t L, size_t nplain,
  66:ccm.c         ****                        size_t nheader, size_t ntag)
  67:ccm.c         **** {
 313              		.loc 2 67 0
 314              		.cfi_startproc
 315              		@ args = 20, pretend = 0, frame = 16
 316              		@ frame_needed = 0, uses_anonymous_args = 0
 317 0000 00B5     		push	{lr}
 318              		.cfi_def_cfa_offset 4
 319              		.cfi_offset 14, -4
 320 0002 85B0     		sub	sp, sp, #20
 321              		.cfi_def_cfa_offset 24
 322 0004 0390     		str	r0, [sp, #12]
 323 0006 0291     		str	r1, [sp, #8]
 324 0008 0192     		str	r2, [sp, #4]
 325 000a 0093     		str	r3, [sp]
  68:ccm.c         ****   /* Construct first block B_0. */
  69:ccm.c         ****   block[0] = ((nheader == 0) ? 0x00 : CCM_ADATA_PRESENT) |
 326              		.loc 2 69 0
 327 000c 099B     		ldr	r3, [sp, #36]
 328 000e 002B     		cmp	r3, #0
 329 0010 01D1     		bne	.L20
 330              		.loc 2 69 0 is_stmt 0 discriminator 1
 331 0012 0023     		movs	r3, #0
 332 0014 00E0     		b	.L21
 333              	.L20:
 334              		.loc 2 69 0 discriminator 2
 335 0016 4023     		movs	r3, #64
 336              	.L21:
  70:ccm.c         ****              ((ntag - 2) / 2) << 3 |
 337              		.loc 2 70 0 is_stmt 1
 338 0018 0A9A     		ldr	r2, [sp, #40]
 339 001a 023A     		subs	r2, r2, #2
 340 001c 5208     		lsrs	r2, r2, #1
  69:ccm.c         ****              ((ntag - 2) / 2) << 3 |
 341              		.loc 2 69 0
 342 001e D2B2     		uxtb	r2, r2
 343 0020 D200     		lsls	r2, r2, #3
 344 0022 D2B2     		uxtb	r2, r2
 345 0024 1343     		orrs	r3, r2
 346 0026 DAB2     		uxtb	r2, r3
 347 0028 079B     		ldr	r3, [sp, #28]
 348 002a DBB2     		uxtb	r3, r3
 349 002c 013B     		subs	r3, r3, #1
 350 002e DBB2     		uxtb	r3, r3
 351 0030 1343     		orrs	r3, r2
 352 0032 DAB2     		uxtb	r2, r3
 353 0034 029B     		ldr	r3, [sp, #8]
 354 0036 1A70     		strb	r2, [r3]
  71:ccm.c         ****              (L - 1);
  72:ccm.c         ****   memcpy(block + 1, nonce, nnonce);
ARM GAS  C:\Users\andrew\AppData\Local\Temp\ccfIf1XJ.s 			page 10


 355              		.loc 2 72 0
 356 0038 029B     		ldr	r3, [sp, #8]
 357 003a 0133     		adds	r3, r3, #1
 358 003c 069A     		ldr	r2, [sp, #24]
 359 003e 0099     		ldr	r1, [sp]
 360 0040 1800     		movs	r0, r3
 361 0042 FFF7FEFF 		bl	memcpy
  73:ccm.c         ****   write_be(block + 1 + nnonce, nplain, L);
 362              		.loc 2 73 0
 363 0046 069B     		ldr	r3, [sp, #24]
 364 0048 0133     		adds	r3, r3, #1
 365 004a 029A     		ldr	r2, [sp, #8]
 366 004c D318     		adds	r3, r2, r3
 367 004e 079A     		ldr	r2, [sp, #28]
 368 0050 0899     		ldr	r1, [sp, #32]
 369 0052 1800     		movs	r0, r3
 370 0054 FFF7FEFF 		bl	write_be
  74:ccm.c         **** 
  75:ccm.c         ****   cf_cbcmac_stream_update(cm, block, nblock);
 371              		.loc 2 75 0
 372 0058 019A     		ldr	r2, [sp, #4]
 373 005a 0299     		ldr	r1, [sp, #8]
 374 005c 039B     		ldr	r3, [sp, #12]
 375 005e 1800     		movs	r0, r3
 376 0060 FFF7FEFF 		bl	cf_cbcmac_stream_update
  76:ccm.c         **** }
 377              		.loc 2 76 0
 378 0064 C046     		nop
 379 0066 05B0     		add	sp, sp, #20
 380              		@ sp needed
 381 0068 00BD     		pop	{pc}
 382              		.cfi_endproc
 383              	.LFE5:
 384              		.size	add_block0, .-add_block0
 385 006a C046     		.section	.text.build_ctr_nonce,"ax",%progbits
 386              		.align	2
 387              		.code	16
 388              		.thumb_func
 389              		.type	build_ctr_nonce, %function
 390              	build_ctr_nonce:
 391              	.LFB6:
  77:ccm.c         **** 
  78:ccm.c         **** static void build_ctr_nonce(uint8_t ctr_nonce[CF_MAXBLOCK],
  79:ccm.c         ****                             size_t L,
  80:ccm.c         ****                             const uint8_t *nonce, size_t nnonce)
  81:ccm.c         **** {
 392              		.loc 2 81 0
 393              		.cfi_startproc
 394              		@ args = 0, pretend = 0, frame = 16
 395              		@ frame_needed = 0, uses_anonymous_args = 0
 396 0000 00B5     		push	{lr}
 397              		.cfi_def_cfa_offset 4
 398              		.cfi_offset 14, -4
 399 0002 85B0     		sub	sp, sp, #20
 400              		.cfi_def_cfa_offset 24
 401 0004 0390     		str	r0, [sp, #12]
 402 0006 0291     		str	r1, [sp, #8]
ARM GAS  C:\Users\andrew\AppData\Local\Temp\ccfIf1XJ.s 			page 11


 403 0008 0192     		str	r2, [sp, #4]
 404 000a 0093     		str	r3, [sp]
  82:ccm.c         ****   ctr_nonce[0] = (L - 1);
 405              		.loc 2 82 0
 406 000c 029B     		ldr	r3, [sp, #8]
 407 000e DBB2     		uxtb	r3, r3
 408 0010 013B     		subs	r3, r3, #1
 409 0012 DAB2     		uxtb	r2, r3
 410 0014 039B     		ldr	r3, [sp, #12]
 411 0016 1A70     		strb	r2, [r3]
  83:ccm.c         ****   memcpy(ctr_nonce + 1, nonce, nnonce);
 412              		.loc 2 83 0
 413 0018 039B     		ldr	r3, [sp, #12]
 414 001a 0133     		adds	r3, r3, #1
 415 001c 009A     		ldr	r2, [sp]
 416 001e 0199     		ldr	r1, [sp, #4]
 417 0020 1800     		movs	r0, r3
 418 0022 FFF7FEFF 		bl	memcpy
  84:ccm.c         ****   memset(ctr_nonce + 1 + nnonce, 0, L);
 419              		.loc 2 84 0
 420 0026 009B     		ldr	r3, [sp]
 421 0028 0133     		adds	r3, r3, #1
 422 002a 039A     		ldr	r2, [sp, #12]
 423 002c D318     		adds	r3, r2, r3
 424 002e 029A     		ldr	r2, [sp, #8]
 425 0030 0021     		movs	r1, #0
 426 0032 1800     		movs	r0, r3
 427 0034 FFF7FEFF 		bl	memset
  85:ccm.c         **** }
 428              		.loc 2 85 0
 429 0038 C046     		nop
 430 003a 05B0     		add	sp, sp, #20
 431              		@ sp needed
 432 003c 00BD     		pop	{pc}
 433              		.cfi_endproc
 434              	.LFE6:
 435              		.size	build_ctr_nonce, .-build_ctr_nonce
 436 003e C046     		.section	.text.cf_ccm_encrypt,"ax",%progbits
 437              		.align	2
 438              		.global	cf_ccm_encrypt
 439              		.code	16
 440              		.thumb_func
 441              		.type	cf_ccm_encrypt, %function
 442              	cf_ccm_encrypt:
 443              	.LFB7:
  86:ccm.c         **** 
  87:ccm.c         **** void cf_ccm_encrypt(const cf_prp *prp, void *prpctx,
  88:ccm.c         ****                     const uint8_t *plain, size_t nplain, size_t L,
  89:ccm.c         ****                     const uint8_t *header, size_t nheader,
  90:ccm.c         ****                     const uint8_t *nonce, size_t nnonce,
  91:ccm.c         ****                     uint8_t *cipher,
  92:ccm.c         ****                     uint8_t *tag, size_t ntag)
  93:ccm.c         **** {
 444              		.loc 2 93 0
 445              		.cfi_startproc
 446              		@ args = 32, pretend = 0, frame = 152
 447              		@ frame_needed = 0, uses_anonymous_args = 0
ARM GAS  C:\Users\andrew\AppData\Local\Temp\ccfIf1XJ.s 			page 12


 448 0000 10B5     		push	{r4, lr}
 449              		.cfi_def_cfa_offset 8
 450              		.cfi_offset 4, -8
 451              		.cfi_offset 14, -4
 452 0002 ACB0     		sub	sp, sp, #176
 453              		.cfi_def_cfa_offset 184
 454 0004 0990     		str	r0, [sp, #36]
 455 0006 0891     		str	r1, [sp, #32]
 456 0008 0792     		str	r2, [sp, #28]
 457 000a 0693     		str	r3, [sp, #24]
  94:ccm.c         ****   uint8_t block[CF_MAXBLOCK];
  95:ccm.c         **** 
  96:ccm.c         ****   assert(ntag >= 4 && ntag <= 16 && ntag % 2 == 0);
 458              		.loc 2 96 0
 459 000c 359B     		ldr	r3, [sp, #212]
 460 000e 032B     		cmp	r3, #3
 461 0010 06D9     		bls	.L24
 462              		.loc 2 96 0 is_stmt 0 discriminator 2
 463 0012 359B     		ldr	r3, [sp, #212]
 464 0014 102B     		cmp	r3, #16
 465 0016 03D8     		bhi	.L24
 466              		.loc 2 96 0 discriminator 4
 467 0018 359B     		ldr	r3, [sp, #212]
 468 001a 0122     		movs	r2, #1
 469 001c 1340     		ands	r3, r2
 470 001e 01D0     		beq	.L25
 471              	.L24:
 472              		.loc 2 96 0 discriminator 5
 473 0020 FFF7FEFF 		bl	abort
 474              	.L25:
  97:ccm.c         ****   assert(L >= 2 && L <= 8);
 475              		.loc 2 97 0 is_stmt 1
 476 0024 2E9B     		ldr	r3, [sp, #184]
 477 0026 012B     		cmp	r3, #1
 478 0028 02D9     		bls	.L26
 479              		.loc 2 97 0 is_stmt 0 discriminator 2
 480 002a 2E9B     		ldr	r3, [sp, #184]
 481 002c 082B     		cmp	r3, #8
 482 002e 01D9     		bls	.L27
 483              	.L26:
 484              		.loc 2 97 0 discriminator 3
 485 0030 FFF7FEFF 		bl	abort
 486              	.L27:
  98:ccm.c         ****   assert(nnonce == prp->blocksz - L - 1);
 487              		.loc 2 98 0 is_stmt 1
 488 0034 099B     		ldr	r3, [sp, #36]
 489 0036 1A68     		ldr	r2, [r3]
 490 0038 2E9B     		ldr	r3, [sp, #184]
 491 003a D31A     		subs	r3, r2, r3
 492 003c 5A1E     		subs	r2, r3, #1
 493 003e 329B     		ldr	r3, [sp, #200]
 494 0040 9A42     		cmp	r2, r3
 495 0042 01D0     		beq	.L28
 496              		.loc 2 98 0 is_stmt 0 discriminator 1
 497 0044 FFF7FEFF 		bl	abort
 498              	.L28:
  99:ccm.c         **** 
ARM GAS  C:\Users\andrew\AppData\Local\Temp\ccfIf1XJ.s 			page 13


 100:ccm.c         ****   cf_cbcmac_stream cm;
 101:ccm.c         ****   cf_cbcmac_stream_init(&cm, prp, prpctx);
 499              		.loc 2 101 0 is_stmt 1
 500 0048 089A     		ldr	r2, [sp, #32]
 501 004a 0999     		ldr	r1, [sp, #36]
 502 004c 1BAB     		add	r3, sp, #108
 503 004e 1800     		movs	r0, r3
 504 0050 FFF7FEFF 		bl	cf_cbcmac_stream_init
 102:ccm.c         **** 
 103:ccm.c         ****   /* Add first block. */
 104:ccm.c         ****   add_block0(&cm, block, prp->blocksz,
 505              		.loc 2 104 0
 506 0054 099B     		ldr	r3, [sp, #36]
 507 0056 1A68     		ldr	r2, [r3]
 508 0058 319C     		ldr	r4, [sp, #196]
 509 005a 28A9     		add	r1, sp, #160
 510 005c 1BA8     		add	r0, sp, #108
 511 005e 359B     		ldr	r3, [sp, #212]
 512 0060 0493     		str	r3, [sp, #16]
 513 0062 309B     		ldr	r3, [sp, #192]
 514 0064 0393     		str	r3, [sp, #12]
 515 0066 069B     		ldr	r3, [sp, #24]
 516 0068 0293     		str	r3, [sp, #8]
 517 006a 2E9B     		ldr	r3, [sp, #184]
 518 006c 0193     		str	r3, [sp, #4]
 519 006e 329B     		ldr	r3, [sp, #200]
 520 0070 0093     		str	r3, [sp]
 521 0072 2300     		movs	r3, r4
 522 0074 FFF7FEFF 		bl	add_block0
 105:ccm.c         ****              nonce, nnonce,
 106:ccm.c         ****              L, nplain, nheader, ntag);
 107:ccm.c         **** 
 108:ccm.c         ****   /* Add AAD with length prefix, if present. */
 109:ccm.c         ****   if (nheader)
 523              		.loc 2 109 0
 524 0078 309B     		ldr	r3, [sp, #192]
 525 007a 002B     		cmp	r3, #0
 526 007c 05D0     		beq	.L29
 110:ccm.c         ****     add_aad(&cm, block, header, nheader);
 527              		.loc 2 110 0
 528 007e 309B     		ldr	r3, [sp, #192]
 529 0080 2F9A     		ldr	r2, [sp, #188]
 530 0082 28A9     		add	r1, sp, #160
 531 0084 1BA8     		add	r0, sp, #108
 532 0086 FFF7FEFF 		bl	add_aad
 533              	.L29:
 111:ccm.c         **** 
 112:ccm.c         ****   /* Add message. */
 113:ccm.c         ****   cf_cbcmac_stream_update(&cm, plain, nplain);
 534              		.loc 2 113 0
 535 008a 069A     		ldr	r2, [sp, #24]
 536 008c 0799     		ldr	r1, [sp, #28]
 537 008e 1BAB     		add	r3, sp, #108
 538 0090 1800     		movs	r0, r3
 539 0092 FFF7FEFF 		bl	cf_cbcmac_stream_update
 114:ccm.c         ****   zero_pad(&cm);
 540              		.loc 2 114 0
ARM GAS  C:\Users\andrew\AppData\Local\Temp\ccfIf1XJ.s 			page 14


 541 0096 1BAB     		add	r3, sp, #108
 542 0098 1800     		movs	r0, r3
 543 009a FFF7FEFF 		bl	zero_pad
 115:ccm.c         **** 
 116:ccm.c         ****   /* Finish tag. */
 117:ccm.c         ****   cf_cbcmac_stream_nopad_final(&cm, block);
 544              		.loc 2 117 0
 545 009e 28AA     		add	r2, sp, #160
 546 00a0 1BAB     		add	r3, sp, #108
 547 00a2 1100     		movs	r1, r2
 548 00a4 1800     		movs	r0, r3
 549 00a6 FFF7FEFF 		bl	cf_cbcmac_stream_nopad_final
 118:ccm.c         **** 
 119:ccm.c         ****   /* Start encryption. */
 120:ccm.c         ****   /* Construct A_0 */
 121:ccm.c         ****   uint8_t ctr_nonce[CF_MAXBLOCK];
 122:ccm.c         ****   build_ctr_nonce(ctr_nonce, L, nonce, nnonce);
 550              		.loc 2 122 0
 551 00aa 329B     		ldr	r3, [sp, #200]
 552 00ac 319A     		ldr	r2, [sp, #196]
 553 00ae 2E99     		ldr	r1, [sp, #184]
 554 00b0 17A8     		add	r0, sp, #92
 555 00b2 FFF7FEFF 		bl	build_ctr_nonce
 123:ccm.c         **** 
 124:ccm.c         ****   cf_ctr ctr;
 125:ccm.c         ****   cf_ctr_init(&ctr, prp, prpctx, ctr_nonce);
 556              		.loc 2 125 0
 557 00b6 17AB     		add	r3, sp, #92
 558 00b8 089A     		ldr	r2, [sp, #32]
 559 00ba 0999     		ldr	r1, [sp, #36]
 560 00bc 0AA8     		add	r0, sp, #40
 561 00be FFF7FEFF 		bl	cf_ctr_init
 126:ccm.c         ****   cf_ctr_custom_counter(&ctr, prp->blocksz - L, L);
 562              		.loc 2 126 0
 563 00c2 099B     		ldr	r3, [sp, #36]
 564 00c4 1A68     		ldr	r2, [r3]
 565 00c6 2E9B     		ldr	r3, [sp, #184]
 566 00c8 D11A     		subs	r1, r2, r3
 567 00ca 2E9A     		ldr	r2, [sp, #184]
 568 00cc 0AAB     		add	r3, sp, #40
 569 00ce 1800     		movs	r0, r3
 570 00d0 FFF7FEFF 		bl	cf_ctr_custom_counter
 127:ccm.c         **** 
 128:ccm.c         ****   /* Encrypt tag first. */
 129:ccm.c         ****   cf_ctr_cipher(&ctr, block, block, prp->blocksz);
 571              		.loc 2 129 0
 572 00d4 099B     		ldr	r3, [sp, #36]
 573 00d6 1B68     		ldr	r3, [r3]
 574 00d8 28AA     		add	r2, sp, #160
 575 00da 28A9     		add	r1, sp, #160
 576 00dc 0AA8     		add	r0, sp, #40
 577 00de FFF7FEFF 		bl	cf_ctr_cipher
 130:ccm.c         ****   memcpy(tag, block, ntag);
 578              		.loc 2 130 0
 579 00e2 359A     		ldr	r2, [sp, #212]
 580 00e4 28A9     		add	r1, sp, #160
 581 00e6 349B     		ldr	r3, [sp, #208]
ARM GAS  C:\Users\andrew\AppData\Local\Temp\ccfIf1XJ.s 			page 15


 582 00e8 1800     		movs	r0, r3
 583 00ea FFF7FEFF 		bl	memcpy
 131:ccm.c         **** 
 132:ccm.c         ****   /* Then encrypt message. */
 133:ccm.c         ****   cf_ctr_cipher(&ctr, plain, cipher, nplain);
 584              		.loc 2 133 0
 585 00ee 069B     		ldr	r3, [sp, #24]
 586 00f0 339A     		ldr	r2, [sp, #204]
 587 00f2 0799     		ldr	r1, [sp, #28]
 588 00f4 0AA8     		add	r0, sp, #40
 589 00f6 FFF7FEFF 		bl	cf_ctr_cipher
 134:ccm.c         **** }
 590              		.loc 2 134 0
 591 00fa C046     		nop
 592 00fc 2CB0     		add	sp, sp, #176
 593              		@ sp needed
 594 00fe 10BD     		pop	{r4, pc}
 595              		.cfi_endproc
 596              	.LFE7:
 597              		.size	cf_ccm_encrypt, .-cf_ccm_encrypt
 598              		.section	.text.cf_ccm_decrypt,"ax",%progbits
 599              		.align	2
 600              		.global	cf_ccm_decrypt
 601              		.code	16
 602              		.thumb_func
 603              		.type	cf_ccm_decrypt, %function
 604              	cf_ccm_decrypt:
 605              	.LFB8:
 135:ccm.c         **** 
 136:ccm.c         **** int cf_ccm_decrypt(const cf_prp *prp, void *prpctx,
 137:ccm.c         ****                    const uint8_t *cipher, size_t ncipher, size_t L,
 138:ccm.c         ****                    const uint8_t *header, size_t nheader,
 139:ccm.c         ****                    const uint8_t *nonce, size_t nnonce,
 140:ccm.c         ****                    const uint8_t *tag, size_t ntag,
 141:ccm.c         ****                    uint8_t *plain)
 142:ccm.c         **** {
 606              		.loc 2 142 0
 607              		.cfi_startproc
 608              		@ args = 32, pretend = 0, frame = 176
 609              		@ frame_needed = 0, uses_anonymous_args = 0
 610 0000 10B5     		push	{r4, lr}
 611              		.cfi_def_cfa_offset 8
 612              		.cfi_offset 4, -8
 613              		.cfi_offset 14, -4
 614 0002 B2B0     		sub	sp, sp, #200
 615              		.cfi_def_cfa_offset 208
 616 0004 0990     		str	r0, [sp, #36]
 617 0006 0891     		str	r1, [sp, #32]
 618 0008 0792     		str	r2, [sp, #28]
 619 000a 0693     		str	r3, [sp, #24]
 143:ccm.c         ****   uint8_t block[CF_MAXBLOCK];
 144:ccm.c         ****   
 145:ccm.c         ****   assert(ntag >= 4 && ntag <= 16 && ntag % 2 == 0);
 620              		.loc 2 145 0
 621 000c 3A9B     		ldr	r3, [sp, #232]
 622 000e 032B     		cmp	r3, #3
 623 0010 06D9     		bls	.L31
ARM GAS  C:\Users\andrew\AppData\Local\Temp\ccfIf1XJ.s 			page 16


 624              		.loc 2 145 0 is_stmt 0 discriminator 2
 625 0012 3A9B     		ldr	r3, [sp, #232]
 626 0014 102B     		cmp	r3, #16
 627 0016 03D8     		bhi	.L31
 628              		.loc 2 145 0 discriminator 4
 629 0018 3A9B     		ldr	r3, [sp, #232]
 630 001a 0122     		movs	r2, #1
 631 001c 1340     		ands	r3, r2
 632 001e 01D0     		beq	.L32
 633              	.L31:
 634              		.loc 2 145 0 discriminator 5
 635 0020 FFF7FEFF 		bl	abort
 636              	.L32:
 146:ccm.c         ****   assert(L >= 2 && L <= 8);
 637              		.loc 2 146 0 is_stmt 1
 638 0024 349B     		ldr	r3, [sp, #208]
 639 0026 012B     		cmp	r3, #1
 640 0028 02D9     		bls	.L33
 641              		.loc 2 146 0 is_stmt 0 discriminator 2
 642 002a 349B     		ldr	r3, [sp, #208]
 643 002c 082B     		cmp	r3, #8
 644 002e 01D9     		bls	.L34
 645              	.L33:
 646              		.loc 2 146 0 discriminator 3
 647 0030 FFF7FEFF 		bl	abort
 648              	.L34:
 147:ccm.c         ****   assert(nnonce == prp->blocksz - L - 1);
 649              		.loc 2 147 0 is_stmt 1
 650 0034 099B     		ldr	r3, [sp, #36]
 651 0036 1A68     		ldr	r2, [r3]
 652 0038 349B     		ldr	r3, [sp, #208]
 653 003a D31A     		subs	r3, r2, r3
 654 003c 5A1E     		subs	r2, r3, #1
 655 003e 389B     		ldr	r3, [sp, #224]
 656 0040 9A42     		cmp	r2, r3
 657 0042 01D0     		beq	.L35
 658              		.loc 2 147 0 is_stmt 0 discriminator 1
 659 0044 FFF7FEFF 		bl	abort
 660              	.L35:
 148:ccm.c         **** 
 149:ccm.c         ****   uint8_t ctr_nonce[CF_MAXBLOCK];
 150:ccm.c         ****   build_ctr_nonce(ctr_nonce, L, nonce, nnonce);
 661              		.loc 2 150 0 is_stmt 1
 662 0048 389B     		ldr	r3, [sp, #224]
 663 004a 379A     		ldr	r2, [sp, #220]
 664 004c 3499     		ldr	r1, [sp, #208]
 665 004e 29A8     		add	r0, sp, #164
 666 0050 FFF7FEFF 		bl	build_ctr_nonce
 151:ccm.c         **** 
 152:ccm.c         ****   cf_ctr ctr;
 153:ccm.c         ****   cf_ctr_init(&ctr, prp, prpctx, ctr_nonce);
 667              		.loc 2 153 0
 668 0054 29AB     		add	r3, sp, #164
 669 0056 089A     		ldr	r2, [sp, #32]
 670 0058 0999     		ldr	r1, [sp, #36]
 671 005a 1CA8     		add	r0, sp, #112
 672 005c FFF7FEFF 		bl	cf_ctr_init
ARM GAS  C:\Users\andrew\AppData\Local\Temp\ccfIf1XJ.s 			page 17


 154:ccm.c         ****   cf_ctr_custom_counter(&ctr, prp->blocksz - L, L);
 673              		.loc 2 154 0
 674 0060 099B     		ldr	r3, [sp, #36]
 675 0062 1A68     		ldr	r2, [r3]
 676 0064 349B     		ldr	r3, [sp, #208]
 677 0066 D11A     		subs	r1, r2, r3
 678 0068 349A     		ldr	r2, [sp, #208]
 679 006a 1CAB     		add	r3, sp, #112
 680 006c 1800     		movs	r0, r3
 681 006e FFF7FEFF 		bl	cf_ctr_custom_counter
 155:ccm.c         **** 
 156:ccm.c         ****   /* Decrypt tag. */
 157:ccm.c         ****   uint8_t plain_tag[CF_MAXBLOCK];
 158:ccm.c         ****   cf_ctr_cipher(&ctr, tag, plain_tag, ntag);
 682              		.loc 2 158 0
 683 0072 3A9B     		ldr	r3, [sp, #232]
 684 0074 18AA     		add	r2, sp, #96
 685 0076 3999     		ldr	r1, [sp, #228]
 686 0078 1CA8     		add	r0, sp, #112
 687 007a FFF7FEFF 		bl	cf_ctr_cipher
 159:ccm.c         ****   cf_ctr_discard_block(&ctr);
 688              		.loc 2 159 0
 689 007e 1CAB     		add	r3, sp, #112
 690 0080 1800     		movs	r0, r3
 691 0082 FFF7FEFF 		bl	cf_ctr_discard_block
 160:ccm.c         **** 
 161:ccm.c         ****   /* Decrypt message. */
 162:ccm.c         ****   cf_ctr_cipher(&ctr, cipher, plain, ncipher);
 692              		.loc 2 162 0
 693 0086 069B     		ldr	r3, [sp, #24]
 694 0088 3B9A     		ldr	r2, [sp, #236]
 695 008a 0799     		ldr	r1, [sp, #28]
 696 008c 1CA8     		add	r0, sp, #112
 697 008e FFF7FEFF 		bl	cf_ctr_cipher
 163:ccm.c         **** 
 164:ccm.c         ****   cf_cbcmac_stream cm;
 165:ccm.c         ****   cf_cbcmac_stream_init(&cm, prp, prpctx);
 698              		.loc 2 165 0
 699 0092 089A     		ldr	r2, [sp, #32]
 700 0094 0999     		ldr	r1, [sp, #36]
 701 0096 0BAB     		add	r3, sp, #44
 702 0098 1800     		movs	r0, r3
 703 009a FFF7FEFF 		bl	cf_cbcmac_stream_init
 166:ccm.c         ****   
 167:ccm.c         ****   /* Add first block. */
 168:ccm.c         ****   add_block0(&cm, block, prp->blocksz,
 704              		.loc 2 168 0
 705 009e 099B     		ldr	r3, [sp, #36]
 706 00a0 1A68     		ldr	r2, [r3]
 707 00a2 379C     		ldr	r4, [sp, #220]
 708 00a4 2DA9     		add	r1, sp, #180
 709 00a6 0BA8     		add	r0, sp, #44
 710 00a8 3A9B     		ldr	r3, [sp, #232]
 711 00aa 0493     		str	r3, [sp, #16]
 712 00ac 369B     		ldr	r3, [sp, #216]
 713 00ae 0393     		str	r3, [sp, #12]
 714 00b0 069B     		ldr	r3, [sp, #24]
ARM GAS  C:\Users\andrew\AppData\Local\Temp\ccfIf1XJ.s 			page 18


 715 00b2 0293     		str	r3, [sp, #8]
 716 00b4 349B     		ldr	r3, [sp, #208]
 717 00b6 0193     		str	r3, [sp, #4]
 718 00b8 389B     		ldr	r3, [sp, #224]
 719 00ba 0093     		str	r3, [sp]
 720 00bc 2300     		movs	r3, r4
 721 00be FFF7FEFF 		bl	add_block0
 169:ccm.c         ****              nonce, nnonce,
 170:ccm.c         ****              L, ncipher, nheader, ntag);
 171:ccm.c         **** 
 172:ccm.c         ****   if (nheader)
 722              		.loc 2 172 0
 723 00c2 369B     		ldr	r3, [sp, #216]
 724 00c4 002B     		cmp	r3, #0
 725 00c6 05D0     		beq	.L36
 173:ccm.c         ****     add_aad(&cm, block, header, nheader);
 726              		.loc 2 173 0
 727 00c8 369B     		ldr	r3, [sp, #216]
 728 00ca 359A     		ldr	r2, [sp, #212]
 729 00cc 2DA9     		add	r1, sp, #180
 730 00ce 0BA8     		add	r0, sp, #44
 731 00d0 FFF7FEFF 		bl	add_aad
 732              	.L36:
 174:ccm.c         ****   
 175:ccm.c         ****   cf_cbcmac_stream_update(&cm, plain, ncipher);
 733              		.loc 2 175 0
 734 00d4 069A     		ldr	r2, [sp, #24]
 735 00d6 3B99     		ldr	r1, [sp, #236]
 736 00d8 0BAB     		add	r3, sp, #44
 737 00da 1800     		movs	r0, r3
 738 00dc FFF7FEFF 		bl	cf_cbcmac_stream_update
 176:ccm.c         ****   zero_pad(&cm);
 739              		.loc 2 176 0
 740 00e0 0BAB     		add	r3, sp, #44
 741 00e2 1800     		movs	r0, r3
 742 00e4 FFF7FEFF 		bl	zero_pad
 177:ccm.c         **** 
 178:ccm.c         ****   /* Finish tag. */
 179:ccm.c         ****   cf_cbcmac_stream_nopad_final(&cm, block);
 743              		.loc 2 179 0
 744 00e8 2DAA     		add	r2, sp, #180
 745 00ea 0BAB     		add	r3, sp, #44
 746 00ec 1100     		movs	r1, r2
 747 00ee 1800     		movs	r0, r3
 748 00f0 FFF7FEFF 		bl	cf_cbcmac_stream_nopad_final
 180:ccm.c         **** 
 181:ccm.c         ****   int err = 0;
 749              		.loc 2 181 0
 750 00f4 0023     		movs	r3, #0
 751 00f6 3193     		str	r3, [sp, #196]
 182:ccm.c         **** 
 183:ccm.c         ****   if (!mem_eq(block, plain_tag, ntag))
 752              		.loc 2 183 0
 753 00f8 3A9A     		ldr	r2, [sp, #232]
 754 00fa 18A9     		add	r1, sp, #96
 755 00fc 2DAB     		add	r3, sp, #180
 756 00fe 1800     		movs	r0, r3
ARM GAS  C:\Users\andrew\AppData\Local\Temp\ccfIf1XJ.s 			page 19


 757 0100 FFF7FEFF 		bl	mem_eq
 758 0104 031E     		subs	r3, r0, #0
 759 0106 07D1     		bne	.L37
 184:ccm.c         ****   {
 185:ccm.c         ****     err = 1;
 760              		.loc 2 185 0
 761 0108 0123     		movs	r3, #1
 762 010a 3193     		str	r3, [sp, #196]
 186:ccm.c         ****     mem_clean(plain, ncipher);
 763              		.loc 2 186 0
 764 010c 069A     		ldr	r2, [sp, #24]
 765 010e 3B9B     		ldr	r3, [sp, #236]
 766 0110 1100     		movs	r1, r2
 767 0112 1800     		movs	r0, r3
 768 0114 FFF7FEFF 		bl	mem_clean
 769              	.L37:
 187:ccm.c         ****   }
 188:ccm.c         **** 
 189:ccm.c         ****   mem_clean(block, sizeof block);
 770              		.loc 2 189 0
 771 0118 2DAB     		add	r3, sp, #180
 772 011a 1021     		movs	r1, #16
 773 011c 1800     		movs	r0, r3
 774 011e FFF7FEFF 		bl	mem_clean
 190:ccm.c         ****   mem_clean(plain_tag, sizeof plain_tag);
 775              		.loc 2 190 0
 776 0122 18AB     		add	r3, sp, #96
 777 0124 1021     		movs	r1, #16
 778 0126 1800     		movs	r0, r3
 779 0128 FFF7FEFF 		bl	mem_clean
 191:ccm.c         ****   return err;
 780              		.loc 2 191 0
 781 012c 319B     		ldr	r3, [sp, #196]
 192:ccm.c         **** }
 782              		.loc 2 192 0
 783 012e 1800     		movs	r0, r3
 784 0130 32B0     		add	sp, sp, #200
 785              		@ sp needed
 786 0132 10BD     		pop	{r4, pc}
 787              		.cfi_endproc
 788              	.LFE8:
 789              		.size	cf_ccm_decrypt, .-cf_ccm_decrypt
 790              		.text
 791              	.Letext0:
 792              		.file 3 "c:\\program files (x86)\\cypress\\psoc creator\\4.1\\psoc creator\\import\\gnu\\arm\\5.4.
 793              		.file 4 "c:\\program files (x86)\\cypress\\psoc creator\\4.1\\psoc creator\\import\\gnu\\arm\\5.4.
 794              		.file 5 "c:\\program files (x86)\\cypress\\psoc creator\\4.1\\psoc creator\\import\\gnu\\arm\\5.4.
 795              		.file 6 "prp.h"
 796              		.file 7 "modes.h"