ARM GAS  C:\Users\andrew\AppData\Local\Temp\cc9ZbmnE.s 			page 1


   1              		.syntax unified
   2              		.cpu cortex-m0
   3              		.fpu softvfp
   4              		.eabi_attribute 20, 1
   5              		.eabi_attribute 21, 1
   6              		.eabi_attribute 23, 3
   7              		.eabi_attribute 24, 1
   8              		.eabi_attribute 25, 1
   9              		.eabi_attribute 26, 1
  10              		.eabi_attribute 30, 6
  11              		.eabi_attribute 34, 0
  12              		.eabi_attribute 18, 4
  13              		.thumb
  14              		.syntax unified
  15              		.file	"chash.c"
  16              		.text
  17              	.Ltext0:
  18              		.cfi_sections	.debug_frame
  19              		.section	.text.mem_clean,"ax",%progbits
  20              		.align	2
  21              		.code	16
  22              		.thumb_func
  23              		.type	mem_clean, %function
  24              	mem_clean:
  25              	.LFB0:
  26              		.file 1 "handy.h"
   1:handy.h       **** #ifndef HANDY_H
   2:handy.h       **** #define HANDY_H
   3:handy.h       **** 
   4:handy.h       **** #include <stddef.h>
   5:handy.h       **** #include <stdint.h>
   6:handy.h       **** #include <string.h>
   7:handy.h       **** 
   8:handy.h       **** /*
   9:handy.h       ****  * Handy CPP defines and C inline functions.
  10:handy.h       ****  */
  11:handy.h       **** 
  12:handy.h       **** /* Evaluates to the number of items in array-type variable arr. */
  13:handy.h       **** #define ARRAYCOUNT(arr) (sizeof arr / sizeof arr[0])
  14:handy.h       **** 
  15:handy.h       **** /* Normal MIN/MAX macros.  Evaluate argument expressions only once. */
  16:handy.h       **** #ifndef MIN
  17:handy.h       ****   #define MIN(x, y) \
  18:handy.h       ****     ({ typeof (x) __x = (x); \
  19:handy.h       ****        typeof (y) __y = (y); \
  20:handy.h       ****        __x < __y ? __x : __y; })
  21:handy.h       **** #endif
  22:handy.h       **** #ifndef MAX
  23:handy.h       ****   #define MAX(x, y) \
  24:handy.h       ****     ({ typeof (x) __x = (x); \
  25:handy.h       ****        typeof (y) __y = (y); \
  26:handy.h       ****        __x > __y ? __x : __y; })
  27:handy.h       **** #endif
  28:handy.h       **** 
  29:handy.h       **** /* Swap two values.  Uses GCC type inference magic. */
  30:handy.h       **** #ifndef SWAP
  31:handy.h       ****   #define SWAP(x, y) \
ARM GAS  C:\Users\andrew\AppData\Local\Temp\cc9ZbmnE.s 			page 2


  32:handy.h       ****     do { \
  33:handy.h       ****       typeof (x) __tmp = (x); \
  34:handy.h       ****       (x) = (y); \
  35:handy.h       ****       (y) = __tmp; \
  36:handy.h       ****     } while (0)
  37:handy.h       **** #endif
  38:handy.h       **** 
  39:handy.h       **** /** Stringify its argument. */
  40:handy.h       **** #define STRINGIFY(x) STRINGIFY_(x)
  41:handy.h       **** #define STRINGIFY_(x) #x
  42:handy.h       **** 
  43:handy.h       **** /* Error handling macros.
  44:handy.h       ****  *
  45:handy.h       ****  * These expect a zero = success, non-zero = error convention.
  46:handy.h       ****  */
  47:handy.h       **** 
  48:handy.h       **** /** Error: return. 
  49:handy.h       ****  *  
  50:handy.h       ****  *  If the expression fails, return the error from this function. */
  51:handy.h       **** #define ER(expr) do { typeof (expr) err_ = (expr); if (err_) return err_; } while (0)
  52:handy.h       **** 
  53:handy.h       **** /** Error: goto.
  54:handy.h       ****  *
  55:handy.h       ****  *  If the expression fails, goto x_err.  Assumes defn of label
  56:handy.h       ****  *  x_err and 'error_type err'. */
  57:handy.h       **** #define EG(expr) do { err = (expr); if (err) goto x_err; } while (0)
  58:handy.h       **** 
  59:handy.h       **** /** Like memset(ptr, 0, len), but not allowed to be removed by
  60:handy.h       ****  *  compilers. */
  61:handy.h       **** static inline void mem_clean(volatile void *v, size_t len)
  62:handy.h       **** {
  27              		.loc 1 62 0
  28              		.cfi_startproc
  29              		@ args = 0, pretend = 0, frame = 8
  30              		@ frame_needed = 0, uses_anonymous_args = 0
  31 0000 00B5     		push	{lr}
  32              		.cfi_def_cfa_offset 4
  33              		.cfi_offset 14, -4
  34 0002 83B0     		sub	sp, sp, #12
  35              		.cfi_def_cfa_offset 16
  36 0004 0190     		str	r0, [sp, #4]
  37 0006 0091     		str	r1, [sp]
  63:handy.h       ****   if (len)
  38              		.loc 1 63 0
  39 0008 009B     		ldr	r3, [sp]
  40 000a 002B     		cmp	r3, #0
  41 000c 07D0     		beq	.L3
  64:handy.h       ****   {
  65:handy.h       ****     memset((void *) v, 0, len);
  42              		.loc 1 65 0
  43 000e 009A     		ldr	r2, [sp]
  44 0010 019B     		ldr	r3, [sp, #4]
  45 0012 0021     		movs	r1, #0
  46 0014 1800     		movs	r0, r3
  47 0016 FFF7FEFF 		bl	memset
  66:handy.h       ****     (void) *((volatile uint8_t *) v);
  48              		.loc 1 66 0
ARM GAS  C:\Users\andrew\AppData\Local\Temp\cc9ZbmnE.s 			page 3


  49 001a 019B     		ldr	r3, [sp, #4]
  50 001c 1B78     		ldrb	r3, [r3]
  51              	.L3:
  67:handy.h       ****   }
  68:handy.h       **** }
  52              		.loc 1 68 0
  53 001e C046     		nop
  54 0020 03B0     		add	sp, sp, #12
  55              		@ sp needed
  56 0022 00BD     		pop	{pc}
  57              		.cfi_endproc
  58              	.LFE0:
  59              		.size	mem_clean, .-mem_clean
  60              		.section	.text.cf_hash,"ax",%progbits
  61              		.align	2
  62              		.global	cf_hash
  63              		.code	16
  64              		.thumb_func
  65              		.type	cf_hash, %function
  66              	cf_hash:
  67              	.LFB2:
  68              		.file 2 "chash.c"
   1:chash.c       **** /*
   2:chash.c       ****  * cifra - embedded cryptography library
   3:chash.c       ****  * Written in 2014 by Joseph Birr-Pixton <jpixton@gmail.com>
   4:chash.c       ****  *
   5:chash.c       ****  * To the extent possible under law, the author(s) have dedicated all
   6:chash.c       ****  * copyright and related and neighboring rights to this software to the
   7:chash.c       ****  * public domain worldwide. This software is distributed without any
   8:chash.c       ****  * warranty.
   9:chash.c       ****  *
  10:chash.c       ****  * You should have received a copy of the CC0 Public Domain Dedication
  11:chash.c       ****  * along with this software. If not, see
  12:chash.c       ****  * <http://creativecommons.org/publicdomain/zero/1.0/>.
  13:chash.c       ****  */
  14:chash.c       **** 
  15:chash.c       **** #include "chash.h"
  16:chash.c       **** #include "handy.h"
  17:chash.c       **** #include "tassert.h"
  18:chash.c       **** 
  19:chash.c       **** void cf_hash(const cf_chash *h, const void *m, size_t nm, uint8_t *out)
  20:chash.c       **** {
  69              		.loc 2 20 0
  70              		.cfi_startproc
  71              		@ args = 0, pretend = 0, frame = 376
  72              		@ frame_needed = 0, uses_anonymous_args = 0
  73 0000 00B5     		push	{lr}
  74              		.cfi_def_cfa_offset 4
  75              		.cfi_offset 14, -4
  76 0002 DFB0     		sub	sp, sp, #380
  77              		.cfi_def_cfa_offset 384
  78 0004 0390     		str	r0, [sp, #12]
  79 0006 0291     		str	r1, [sp, #8]
  80 0008 0192     		str	r2, [sp, #4]
  81 000a 0093     		str	r3, [sp]
  21:chash.c       ****   cf_chash_ctx ctx;
  22:chash.c       ****   assert(h);
ARM GAS  C:\Users\andrew\AppData\Local\Temp\cc9ZbmnE.s 			page 4


  23:chash.c       ****   h->init(&ctx);
  82              		.loc 2 23 0
  83 000c 039B     		ldr	r3, [sp, #12]
  84 000e 9B68     		ldr	r3, [r3, #8]
  85 0010 04AA     		add	r2, sp, #16
  86 0012 1000     		movs	r0, r2
  87 0014 9847     		blx	r3
  24:chash.c       ****   h->update(&ctx, m, nm);
  88              		.loc 2 24 0
  89 0016 039B     		ldr	r3, [sp, #12]
  90 0018 DB68     		ldr	r3, [r3, #12]
  91 001a 019A     		ldr	r2, [sp, #4]
  92 001c 0299     		ldr	r1, [sp, #8]
  93 001e 04A8     		add	r0, sp, #16
  94 0020 9847     		blx	r3
  25:chash.c       ****   h->digest(&ctx, out);
  95              		.loc 2 25 0
  96 0022 039B     		ldr	r3, [sp, #12]
  97 0024 1B69     		ldr	r3, [r3, #16]
  98 0026 0099     		ldr	r1, [sp]
  99 0028 04AA     		add	r2, sp, #16
 100 002a 1000     		movs	r0, r2
 101 002c 9847     		blx	r3
  26:chash.c       ****   mem_clean(&ctx, sizeof ctx);
 102              		.loc 2 26 0
 103 002e B423     		movs	r3, #180
 104 0030 5A00     		lsls	r2, r3, #1
 105 0032 04AB     		add	r3, sp, #16
 106 0034 1100     		movs	r1, r2
 107 0036 1800     		movs	r0, r3
 108 0038 FFF7FEFF 		bl	mem_clean
  27:chash.c       **** }
 109              		.loc 2 27 0
 110 003c C046     		nop
 111 003e 5FB0     		add	sp, sp, #380
 112              		@ sp needed
 113 0040 00BD     		pop	{pc}
 114              		.cfi_endproc
 115              	.LFE2:
 116              		.size	cf_hash, .-cf_hash
 117 0042 C046     		.text
 118              	.Letext0:
 119              		.file 3 "c:\\program files (x86)\\cypress\\psoc creator\\4.1\\psoc creator\\import\\gnu\\arm\\5.4.
 120              		.file 4 "c:\\program files (x86)\\cypress\\psoc creator\\4.1\\psoc creator\\import\\gnu\\arm\\5.4.
 121              		.file 5 "c:\\program files (x86)\\cypress\\psoc creator\\4.1\\psoc creator\\import\\gnu\\arm\\5.4.
 122              		.file 6 "chash.h"