ARM GAS  C:\Users\andrew\AppData\Local\Temp\cc52BSo9.s 			page 1


   1              		.syntax unified
   2              		.cpu cortex-m0
   3              		.fpu softvfp
   4              		.eabi_attribute 20, 1
   5              		.eabi_attribute 21, 1
   6              		.eabi_attribute 23, 3
   7              		.eabi_attribute 24, 1
   8              		.eabi_attribute 25, 1
   9              		.eabi_attribute 26, 1
  10              		.eabi_attribute 30, 6
  11              		.eabi_attribute 34, 0
  12              		.eabi_attribute 18, 4
  13              		.thumb
  14              		.syntax unified
  15              		.file	"CyDMA.c"
  16              		.text
  17              	.Ltext0:
  18              		.cfi_sections	.debug_frame
  19              		.data
  20              		.align	2
  21              		.type	CyDmaInterruptCallback, %object
  22              		.size	CyDmaInterruptCallback, 32
  23              	CyDmaInterruptCallback:
  24 0000 00000000 		.word	CyDmaDefaultInterruptCallback
  25 0004 00000000 		.word	CyDmaDefaultInterruptCallback
  26 0008 00000000 		.word	CyDmaDefaultInterruptCallback
  27 000c 00000000 		.word	CyDmaDefaultInterruptCallback
  28 0010 00000000 		.word	CyDmaDefaultInterruptCallback
  29 0014 00000000 		.word	CyDmaDefaultInterruptCallback
  30 0018 00000000 		.word	CyDmaDefaultInterruptCallback
  31 001c 00000000 		.word	CyDmaDefaultInterruptCallback
  32              		.bss
  33              		.align	2
  34              	CyDmaChannelUsedMask:
  35 0000 00000000 		.space	4
  36              		.section	.text.CyDmaEnable,"ax",%progbits
  37              		.align	2
  38              		.global	CyDmaEnable
  39              		.code	16
  40              		.thumb_func
  41              		.type	CyDmaEnable, %function
  42              	CyDmaEnable:
  43              	.LFB2:
  44              		.file 1 "Generated_Source\\PSoC4\\CyDMA.c"
   1:Generated_Source\PSoC4/CyDMA.c **** /*******************************************************************************
   2:Generated_Source\PSoC4/CyDMA.c **** * File Name: CyDMA.c
   3:Generated_Source\PSoC4/CyDMA.c **** * Version 1.10
   4:Generated_Source\PSoC4/CyDMA.c **** *
   5:Generated_Source\PSoC4/CyDMA.c **** * Description:
   6:Generated_Source\PSoC4/CyDMA.c **** *  This file contains all of the global DMA API functions.
   7:Generated_Source\PSoC4/CyDMA.c **** *
   8:Generated_Source\PSoC4/CyDMA.c **** ********************************************************************************
   9:Generated_Source\PSoC4/CyDMA.c **** * Copyright 2015, Cypress Semiconductor Corporation. All rights reserved.
  10:Generated_Source\PSoC4/CyDMA.c **** * You may use this file only in accordance with the license, terms, conditions,
  11:Generated_Source\PSoC4/CyDMA.c **** * disclaimers, and limitations in the end user license agreement accompanying
  12:Generated_Source\PSoC4/CyDMA.c **** * the software package with which this file was provided.
  13:Generated_Source\PSoC4/CyDMA.c **** *******************************************************************************/
ARM GAS  C:\Users\andrew\AppData\Local\Temp\cc52BSo9.s 			page 2


  14:Generated_Source\PSoC4/CyDMA.c **** 
  15:Generated_Source\PSoC4/CyDMA.c **** #include "CyDMA.h"
  16:Generated_Source\PSoC4/CyDMA.c **** #include "CyLib.h"
  17:Generated_Source\PSoC4/CyDMA.c **** 
  18:Generated_Source\PSoC4/CyDMA.c **** /* Default callback function. It is invoked if the user callback function is
  19:Generated_Source\PSoC4/CyDMA.c **** * undefined.
  20:Generated_Source\PSoC4/CyDMA.c **** */
  21:Generated_Source\PSoC4/CyDMA.c **** static void CyDmaDefaultInterruptCallback(void);
  22:Generated_Source\PSoC4/CyDMA.c **** 
  23:Generated_Source\PSoC4/CyDMA.c **** /* Array of pointers to user defined callback functions to be called
  24:Generated_Source\PSoC4/CyDMA.c **** * from DMA interrupt.
  25:Generated_Source\PSoC4/CyDMA.c **** */
  26:Generated_Source\PSoC4/CyDMA.c **** static cydma_callback_t CyDmaInterruptCallback[CYDMA_CH_NR] = {
  27:Generated_Source\PSoC4/CyDMA.c ****     &CyDmaDefaultInterruptCallback, &CyDmaDefaultInterruptCallback,
  28:Generated_Source\PSoC4/CyDMA.c ****     &CyDmaDefaultInterruptCallback, &CyDmaDefaultInterruptCallback,
  29:Generated_Source\PSoC4/CyDMA.c ****     &CyDmaDefaultInterruptCallback, &CyDmaDefaultInterruptCallback,
  30:Generated_Source\PSoC4/CyDMA.c ****     &CyDmaDefaultInterruptCallback, &CyDmaDefaultInterruptCallback
  31:Generated_Source\PSoC4/CyDMA.c **** };
  32:Generated_Source\PSoC4/CyDMA.c **** 
  33:Generated_Source\PSoC4/CyDMA.c **** /* The live status of all DMA channels usage. Bit i is associated to channel i,
  34:Generated_Source\PSoC4/CyDMA.c **** * with i = 0..CYDMA_CH_NR-1. '0' - channel is free. '1' - channel is in use.
  35:Generated_Source\PSoC4/CyDMA.c **** * All the channels allocated for DMA instances placed on a schematic are in use
  36:Generated_Source\PSoC4/CyDMA.c **** * by default and cannot be freed. 
  37:Generated_Source\PSoC4/CyDMA.c **** * DMA_CHANNELS_USED__MASK is generated during the build time and is a bit field
  38:Generated_Source\PSoC4/CyDMA.c **** * corresponding to the DMA channels placed on a design schematic.
  39:Generated_Source\PSoC4/CyDMA.c **** */
  40:Generated_Source\PSoC4/CyDMA.c **** static uint32 CyDmaChannelUsedMask = DMA_CHANNELS_USED__MASK;
  41:Generated_Source\PSoC4/CyDMA.c **** 
  42:Generated_Source\PSoC4/CyDMA.c **** 
  43:Generated_Source\PSoC4/CyDMA.c **** /*******************************************************************************
  44:Generated_Source\PSoC4/CyDMA.c **** * Function Name: CyDmaEnable
  45:Generated_Source\PSoC4/CyDMA.c **** ********************************************************************************
  46:Generated_Source\PSoC4/CyDMA.c **** *
  47:Generated_Source\PSoC4/CyDMA.c **** * Summary:
  48:Generated_Source\PSoC4/CyDMA.c **** *  Sets the default ISR to be called by the DMA interrupt and enables the DMA
  49:Generated_Source\PSoC4/CyDMA.c **** *  transfer engine.
  50:Generated_Source\PSoC4/CyDMA.c **** *
  51:Generated_Source\PSoC4/CyDMA.c **** * Parameters:
  52:Generated_Source\PSoC4/CyDMA.c **** *  None.
  53:Generated_Source\PSoC4/CyDMA.c **** *                   
  54:Generated_Source\PSoC4/CyDMA.c **** * Return:
  55:Generated_Source\PSoC4/CyDMA.c **** *  None.
  56:Generated_Source\PSoC4/CyDMA.c **** *
  57:Generated_Source\PSoC4/CyDMA.c **** * Side effect:
  58:Generated_Source\PSoC4/CyDMA.c **** *  Does not affect the channel enable status. Overrides the interrupt vector
  59:Generated_Source\PSoC4/CyDMA.c **** *  set prior the first time CyDmaEnable() is called.
  60:Generated_Source\PSoC4/CyDMA.c **** *
  61:Generated_Source\PSoC4/CyDMA.c **** *******************************************************************************/
  62:Generated_Source\PSoC4/CyDMA.c **** void CyDmaEnable(void)
  63:Generated_Source\PSoC4/CyDMA.c **** {
  45              		.loc 1 63 0
  46              		.cfi_startproc
  47              		@ args = 0, pretend = 0, frame = 0
  48              		@ frame_needed = 0, uses_anonymous_args = 0
  49 0000 10B5     		push	{r4, lr}
  50              		.cfi_def_cfa_offset 8
  51              		.cfi_offset 4, -8
ARM GAS  C:\Users\andrew\AppData\Local\Temp\cc52BSo9.s 			page 3


  52              		.cfi_offset 14, -4
  64:Generated_Source\PSoC4/CyDMA.c ****     static uint8 initIntrVector = 0u;
  65:Generated_Source\PSoC4/CyDMA.c **** 
  66:Generated_Source\PSoC4/CyDMA.c ****     if(0u == initIntrVector)
  53              		.loc 1 66 0
  54 0002 0A4B     		ldr	r3, .L3
  55 0004 1B78     		ldrb	r3, [r3]
  56 0006 002B     		cmp	r3, #0
  57 0008 0AD1     		bne	.L2
  67:Generated_Source\PSoC4/CyDMA.c ****     {
  68:Generated_Source\PSoC4/CyDMA.c ****         CyDmaSetInterruptVector(&CyDmaInterrupt);
  58              		.loc 1 68 0
  59 000a 094B     		ldr	r3, .L3+4
  60 000c 1800     		movs	r0, r3
  61 000e FFF7FEFF 		bl	CyDmaSetInterruptVector
  69:Generated_Source\PSoC4/CyDMA.c ****         CyIntSetPriority(CYDMA_INTR_NUMBER, CYDMA_INTR_PRIO);
  62              		.loc 1 69 0
  63 0012 0321     		movs	r1, #3
  64 0014 1520     		movs	r0, #21
  65 0016 FFF7FEFF 		bl	CyIntSetPriority
  70:Generated_Source\PSoC4/CyDMA.c ****         initIntrVector = 1u;
  66              		.loc 1 70 0
  67 001a 044B     		ldr	r3, .L3
  68 001c 0122     		movs	r2, #1
  69 001e 1A70     		strb	r2, [r3]
  70              	.L2:
  71:Generated_Source\PSoC4/CyDMA.c ****     }
  72:Generated_Source\PSoC4/CyDMA.c ****     CYDMA_CTL_REG = CYDMA_ENABLED;
  71              		.loc 1 72 0
  72 0020 044B     		ldr	r3, .L3+8
  73 0022 8022     		movs	r2, #128
  74 0024 1206     		lsls	r2, r2, #24
  75 0026 1A60     		str	r2, [r3]
  73:Generated_Source\PSoC4/CyDMA.c **** }
  76              		.loc 1 73 0
  77 0028 C046     		nop
  78              		@ sp needed
  79 002a 10BD     		pop	{r4, pc}
  80              	.L4:
  81              		.align	2
  82              	.L3:
  83 002c 04000000 		.word	initIntrVector.5011
  84 0030 00000000 		.word	CyDmaInterrupt
  85 0034 00101040 		.word	1074794496
  86              		.cfi_endproc
  87              	.LFE2:
  88              		.size	CyDmaEnable, .-CyDmaEnable
  89              		.section	.text.CyDmaDisable,"ax",%progbits
  90              		.align	2
  91              		.global	CyDmaDisable
  92              		.code	16
  93              		.thumb_func
  94              		.type	CyDmaDisable, %function
  95              	CyDmaDisable:
  96              	.LFB3:
  74:Generated_Source\PSoC4/CyDMA.c **** 
  75:Generated_Source\PSoC4/CyDMA.c **** 
ARM GAS  C:\Users\andrew\AppData\Local\Temp\cc52BSo9.s 			page 4


  76:Generated_Source\PSoC4/CyDMA.c **** /*******************************************************************************
  77:Generated_Source\PSoC4/CyDMA.c **** * Function Name: CyDmaDisable
  78:Generated_Source\PSoC4/CyDMA.c **** ********************************************************************************
  79:Generated_Source\PSoC4/CyDMA.c **** *
  80:Generated_Source\PSoC4/CyDMA.c **** * Summary:
  81:Generated_Source\PSoC4/CyDMA.c **** *  Disables the DMA transfer engine.
  82:Generated_Source\PSoC4/CyDMA.c **** *
  83:Generated_Source\PSoC4/CyDMA.c **** * Parameters:
  84:Generated_Source\PSoC4/CyDMA.c **** *  None.
  85:Generated_Source\PSoC4/CyDMA.c **** *                   
  86:Generated_Source\PSoC4/CyDMA.c **** * Return:
  87:Generated_Source\PSoC4/CyDMA.c **** *  None.
  88:Generated_Source\PSoC4/CyDMA.c **** *
  89:Generated_Source\PSoC4/CyDMA.c **** * Side effect:
  90:Generated_Source\PSoC4/CyDMA.c **** *  Does not affect the channel enable status.
  91:Generated_Source\PSoC4/CyDMA.c **** *
  92:Generated_Source\PSoC4/CyDMA.c **** *******************************************************************************/
  93:Generated_Source\PSoC4/CyDMA.c **** void CyDmaDisable(void)
  94:Generated_Source\PSoC4/CyDMA.c **** {
  97              		.loc 1 94 0
  98              		.cfi_startproc
  99              		@ args = 0, pretend = 0, frame = 0
 100              		@ frame_needed = 0, uses_anonymous_args = 0
 101              		@ link register save eliminated.
  95:Generated_Source\PSoC4/CyDMA.c ****     CYDMA_CTL_REG = (uint32)~CYDMA_ENABLED;
 102              		.loc 1 95 0
 103 0000 024B     		ldr	r3, .L6
 104 0002 034A     		ldr	r2, .L6+4
 105 0004 1A60     		str	r2, [r3]
  96:Generated_Source\PSoC4/CyDMA.c **** }
 106              		.loc 1 96 0
 107 0006 C046     		nop
 108              		@ sp needed
 109 0008 7047     		bx	lr
 110              	.L7:
 111 000a C046     		.align	2
 112              	.L6:
 113 000c 00101040 		.word	1074794496
 114 0010 FFFFFF7F 		.word	2147483647
 115              		.cfi_endproc
 116              	.LFE3:
 117              		.size	CyDmaDisable, .-CyDmaDisable
 118              		.section	.text.CyDmaGetStatus,"ax",%progbits
 119              		.align	2
 120              		.global	CyDmaGetStatus
 121              		.code	16
 122              		.thumb_func
 123              		.type	CyDmaGetStatus, %function
 124              	CyDmaGetStatus:
 125              	.LFB4:
  97:Generated_Source\PSoC4/CyDMA.c **** 
  98:Generated_Source\PSoC4/CyDMA.c **** 
  99:Generated_Source\PSoC4/CyDMA.c **** /*******************************************************************************
 100:Generated_Source\PSoC4/CyDMA.c **** * Function Name: CyDmaGetStatus
 101:Generated_Source\PSoC4/CyDMA.c **** ********************************************************************************
 102:Generated_Source\PSoC4/CyDMA.c **** *
 103:Generated_Source\PSoC4/CyDMA.c **** * Summary:
ARM GAS  C:\Users\andrew\AppData\Local\Temp\cc52BSo9.s 			page 5


 104:Generated_Source\PSoC4/CyDMA.c **** *  Returns the status of the DMA transfer engine.
 105:Generated_Source\PSoC4/CyDMA.c **** *
 106:Generated_Source\PSoC4/CyDMA.c **** * Parameters:
 107:Generated_Source\PSoC4/CyDMA.c **** *  None.
 108:Generated_Source\PSoC4/CyDMA.c **** *                   
 109:Generated_Source\PSoC4/CyDMA.c **** * Return:
 110:Generated_Source\PSoC4/CyDMA.c **** *  The contents of the DMA status register. Refer to the status register bit
 111:Generated_Source\PSoC4/CyDMA.c **** *  definitions in CyDMA_P4.h or the API description in the DMA channel
 112:Generated_Source\PSoC4/CyDMA.c **** *  datasheet.
 113:Generated_Source\PSoC4/CyDMA.c **** *
 114:Generated_Source\PSoC4/CyDMA.c **** * Side effect:
 115:Generated_Source\PSoC4/CyDMA.c **** *  The series of function calls CyDmaGetActiveSrcAddress(),
 116:Generated_Source\PSoC4/CyDMA.c **** *  CyDmaGetActiveDstAddress(), CyDmaGetStatus() are not atomic, the DMA
 117:Generated_Source\PSoC4/CyDMA.c **** *  engine may have advanced after one or more of these function calls. Meaning
 118:Generated_Source\PSoC4/CyDMA.c **** *  the returns from these three functions may not be related to each other.
 119:Generated_Source\PSoC4/CyDMA.c **** *
 120:Generated_Source\PSoC4/CyDMA.c **** *******************************************************************************/
 121:Generated_Source\PSoC4/CyDMA.c **** uint32 CyDmaGetStatus(void)
 122:Generated_Source\PSoC4/CyDMA.c **** {
 126              		.loc 1 122 0
 127              		.cfi_startproc
 128              		@ args = 0, pretend = 0, frame = 0
 129              		@ frame_needed = 0, uses_anonymous_args = 0
 130              		@ link register save eliminated.
 123:Generated_Source\PSoC4/CyDMA.c ****     return (CYDMA_STATUS_REG);
 131              		.loc 1 123 0
 132 0000 014B     		ldr	r3, .L10
 133 0002 1B68     		ldr	r3, [r3]
 124:Generated_Source\PSoC4/CyDMA.c **** }
 134              		.loc 1 124 0
 135 0004 1800     		movs	r0, r3
 136              		@ sp needed
 137 0006 7047     		bx	lr
 138              	.L11:
 139              		.align	2
 140              	.L10:
 141 0008 10101040 		.word	1074794512
 142              		.cfi_endproc
 143              	.LFE4:
 144              		.size	CyDmaGetStatus, .-CyDmaGetStatus
 145              		.section	.text.CyDmaGetActiveChannels,"ax",%progbits
 146              		.align	2
 147              		.global	CyDmaGetActiveChannels
 148              		.code	16
 149              		.thumb_func
 150              		.type	CyDmaGetActiveChannels, %function
 151              	CyDmaGetActiveChannels:
 152              	.LFB5:
 125:Generated_Source\PSoC4/CyDMA.c **** 
 126:Generated_Source\PSoC4/CyDMA.c **** 
 127:Generated_Source\PSoC4/CyDMA.c **** /*******************************************************************************
 128:Generated_Source\PSoC4/CyDMA.c **** * Function Name: CyDmaGetActiveChannels
 129:Generated_Source\PSoC4/CyDMA.c **** ********************************************************************************
 130:Generated_Source\PSoC4/CyDMA.c **** *
 131:Generated_Source\PSoC4/CyDMA.c **** * Summary:
 132:Generated_Source\PSoC4/CyDMA.c **** *  Returns a bit field of all the DMA channels that are either active or
 133:Generated_Source\PSoC4/CyDMA.c **** *  pending.
ARM GAS  C:\Users\andrew\AppData\Local\Temp\cc52BSo9.s 			page 6


 134:Generated_Source\PSoC4/CyDMA.c **** *
 135:Generated_Source\PSoC4/CyDMA.c **** * Parameters:
 136:Generated_Source\PSoC4/CyDMA.c **** *  None.
 137:Generated_Source\PSoC4/CyDMA.c **** *                   
 138:Generated_Source\PSoC4/CyDMA.c **** * Return:
 139:Generated_Source\PSoC4/CyDMA.c **** *  Bit field of active and pending channels. 
 140:Generated_Source\PSoC4/CyDMA.c **** *
 141:Generated_Source\PSoC4/CyDMA.c **** *******************************************************************************/
 142:Generated_Source\PSoC4/CyDMA.c **** uint32 CyDmaGetActiveChannels(void)
 143:Generated_Source\PSoC4/CyDMA.c **** {
 153              		.loc 1 143 0
 154              		.cfi_startproc
 155              		@ args = 0, pretend = 0, frame = 0
 156              		@ frame_needed = 0, uses_anonymous_args = 0
 157              		@ link register save eliminated.
 144:Generated_Source\PSoC4/CyDMA.c ****     return (CYDMA_STATUS_CH_ACT_REG);
 158              		.loc 1 144 0
 159 0000 014B     		ldr	r3, .L14
 160 0002 1B68     		ldr	r3, [r3]
 145:Generated_Source\PSoC4/CyDMA.c **** }
 161              		.loc 1 145 0
 162 0004 1800     		movs	r0, r3
 163              		@ sp needed
 164 0006 7047     		bx	lr
 165              	.L15:
 166              		.align	2
 167              	.L14:
 168 0008 1C101040 		.word	1074794524
 169              		.cfi_endproc
 170              	.LFE5:
 171              		.size	CyDmaGetActiveChannels, .-CyDmaGetActiveChannels
 172              		.section	.text.CyDmaGetActiveSrcAddress,"ax",%progbits
 173              		.align	2
 174              		.global	CyDmaGetActiveSrcAddress
 175              		.code	16
 176              		.thumb_func
 177              		.type	CyDmaGetActiveSrcAddress, %function
 178              	CyDmaGetActiveSrcAddress:
 179              	.LFB6:
 146:Generated_Source\PSoC4/CyDMA.c **** 
 147:Generated_Source\PSoC4/CyDMA.c **** 
 148:Generated_Source\PSoC4/CyDMA.c **** /*******************************************************************************
 149:Generated_Source\PSoC4/CyDMA.c **** * Function Name: CyDmaGetActiveSrcAddress
 150:Generated_Source\PSoC4/CyDMA.c **** ********************************************************************************
 151:Generated_Source\PSoC4/CyDMA.c **** *
 152:Generated_Source\PSoC4/CyDMA.c **** * Summary:
 153:Generated_Source\PSoC4/CyDMA.c **** *  Returns the source address currently being used by the DMA transfer engine.
 154:Generated_Source\PSoC4/CyDMA.c **** *  This function can be used to debug the DMA, or observe where it is at in a
 155:Generated_Source\PSoC4/CyDMA.c **** *  transfer. It will not be used in normal DMA operation.
 156:Generated_Source\PSoC4/CyDMA.c **** *
 157:Generated_Source\PSoC4/CyDMA.c **** * Parameters:
 158:Generated_Source\PSoC4/CyDMA.c **** *  None.
 159:Generated_Source\PSoC4/CyDMA.c **** *                   
 160:Generated_Source\PSoC4/CyDMA.c **** * Return:
 161:Generated_Source\PSoC4/CyDMA.c **** *  Source address currently being used by the DMA transfer engine.
 162:Generated_Source\PSoC4/CyDMA.c **** *
 163:Generated_Source\PSoC4/CyDMA.c **** * Side effect:
ARM GAS  C:\Users\andrew\AppData\Local\Temp\cc52BSo9.s 			page 7


 164:Generated_Source\PSoC4/CyDMA.c **** *  The series of function calls CyDmaGetActiveSrcAddress(),
 165:Generated_Source\PSoC4/CyDMA.c **** *  CyDmaGetActiveDstAddress(), CyDmaGetStatus() are not atomic, the DMA
 166:Generated_Source\PSoC4/CyDMA.c **** *  engine may have advanced after one or more of these function calls. Meaning
 167:Generated_Source\PSoC4/CyDMA.c **** *  the returns from these three functions may not be related to each other.
 168:Generated_Source\PSoC4/CyDMA.c **** *
 169:Generated_Source\PSoC4/CyDMA.c **** *******************************************************************************/
 170:Generated_Source\PSoC4/CyDMA.c **** void * CyDmaGetActiveSrcAddress(void)
 171:Generated_Source\PSoC4/CyDMA.c **** {
 180              		.loc 1 171 0
 181              		.cfi_startproc
 182              		@ args = 0, pretend = 0, frame = 0
 183              		@ frame_needed = 0, uses_anonymous_args = 0
 184              		@ link register save eliminated.
 172:Generated_Source\PSoC4/CyDMA.c ****     return ((void *)CYDMA_STATUS_SRC_ADDR_REG);
 185              		.loc 1 172 0
 186 0000 014B     		ldr	r3, .L18
 187 0002 1B68     		ldr	r3, [r3]
 173:Generated_Source\PSoC4/CyDMA.c **** }
 188              		.loc 1 173 0
 189 0004 1800     		movs	r0, r3
 190              		@ sp needed
 191 0006 7047     		bx	lr
 192              	.L19:
 193              		.align	2
 194              	.L18:
 195 0008 14101040 		.word	1074794516
 196              		.cfi_endproc
 197              	.LFE6:
 198              		.size	CyDmaGetActiveSrcAddress, .-CyDmaGetActiveSrcAddress
 199              		.section	.text.CyDmaGetActiveDstAddress,"ax",%progbits
 200              		.align	2
 201              		.global	CyDmaGetActiveDstAddress
 202              		.code	16
 203              		.thumb_func
 204              		.type	CyDmaGetActiveDstAddress, %function
 205              	CyDmaGetActiveDstAddress:
 206              	.LFB7:
 174:Generated_Source\PSoC4/CyDMA.c **** 
 175:Generated_Source\PSoC4/CyDMA.c **** 
 176:Generated_Source\PSoC4/CyDMA.c **** /*******************************************************************************
 177:Generated_Source\PSoC4/CyDMA.c **** * Function Name: CyDmaGetActiveDstAddress
 178:Generated_Source\PSoC4/CyDMA.c **** ********************************************************************************
 179:Generated_Source\PSoC4/CyDMA.c **** *
 180:Generated_Source\PSoC4/CyDMA.c **** * Summary:
 181:Generated_Source\PSoC4/CyDMA.c **** *  Returns the destination address currently being used by the DMA transfer
 182:Generated_Source\PSoC4/CyDMA.c **** *  engine. This function can be used to debug the DMA, or observe where it is at
 183:Generated_Source\PSoC4/CyDMA.c **** *  in a transfer. It will not be used in normal DMA operation.
 184:Generated_Source\PSoC4/CyDMA.c **** *
 185:Generated_Source\PSoC4/CyDMA.c **** * Parameters:
 186:Generated_Source\PSoC4/CyDMA.c **** *  None.
 187:Generated_Source\PSoC4/CyDMA.c **** *                   
 188:Generated_Source\PSoC4/CyDMA.c **** * Return:
 189:Generated_Source\PSoC4/CyDMA.c **** *  Destination address currently being used by the DMA transfer engine.
 190:Generated_Source\PSoC4/CyDMA.c **** *
 191:Generated_Source\PSoC4/CyDMA.c **** * Side effect:
 192:Generated_Source\PSoC4/CyDMA.c **** *  The series of function calls CyDmaGetActiveSrcAddress(),
 193:Generated_Source\PSoC4/CyDMA.c **** *  CyDmaGetActiveDstAddress(), CyDmaGetStatus() are not atomic, the DMA
ARM GAS  C:\Users\andrew\AppData\Local\Temp\cc52BSo9.s 			page 8


 194:Generated_Source\PSoC4/CyDMA.c **** *  engine may have advanced after one or more of these function calls. Meaning
 195:Generated_Source\PSoC4/CyDMA.c **** *  the returns from these three functions may not be related to each other.
 196:Generated_Source\PSoC4/CyDMA.c **** *
 197:Generated_Source\PSoC4/CyDMA.c **** *******************************************************************************/
 198:Generated_Source\PSoC4/CyDMA.c **** void * CyDmaGetActiveDstAddress(void)
 199:Generated_Source\PSoC4/CyDMA.c **** {
 207              		.loc 1 199 0
 208              		.cfi_startproc
 209              		@ args = 0, pretend = 0, frame = 0
 210              		@ frame_needed = 0, uses_anonymous_args = 0
 211              		@ link register save eliminated.
 200:Generated_Source\PSoC4/CyDMA.c ****     return ((void *)CYDMA_STATUS_DST_ADDR_REG);
 212              		.loc 1 200 0
 213 0000 014B     		ldr	r3, .L22
 214 0002 1B68     		ldr	r3, [r3]
 201:Generated_Source\PSoC4/CyDMA.c **** }
 215              		.loc 1 201 0
 216 0004 1800     		movs	r0, r3
 217              		@ sp needed
 218 0006 7047     		bx	lr
 219              	.L23:
 220              		.align	2
 221              	.L22:
 222 0008 18101040 		.word	1074794520
 223              		.cfi_endproc
 224              	.LFE7:
 225              		.size	CyDmaGetActiveDstAddress, .-CyDmaGetActiveDstAddress
 226              		.section	.text.CyDmaSetInterruptVector,"ax",%progbits
 227              		.align	2
 228              		.global	CyDmaSetInterruptVector
 229              		.code	16
 230              		.thumb_func
 231              		.type	CyDmaSetInterruptVector, %function
 232              	CyDmaSetInterruptVector:
 233              	.LFB8:
 202:Generated_Source\PSoC4/CyDMA.c **** 
 203:Generated_Source\PSoC4/CyDMA.c **** 
 204:Generated_Source\PSoC4/CyDMA.c **** /*******************************************************************************
 205:Generated_Source\PSoC4/CyDMA.c **** * Function Name: CyDmaSetInterruptVector
 206:Generated_Source\PSoC4/CyDMA.c **** ********************************************************************************
 207:Generated_Source\PSoC4/CyDMA.c **** *
 208:Generated_Source\PSoC4/CyDMA.c **** * Summary:
 209:Generated_Source\PSoC4/CyDMA.c **** *  Sets the function that will be called by the DMA interrupt. Note, calling
 210:Generated_Source\PSoC4/CyDMA.c **** *  CyDmaEnable() for the first time overrides any effect this API could have.
 211:Generated_Source\PSoC4/CyDMA.c **** *  Call CyDmaSetInterruptVector() after calling CyDmaEnable() to change
 212:Generated_Source\PSoC4/CyDMA.c **** *  the default ISR.
 213:Generated_Source\PSoC4/CyDMA.c **** *
 214:Generated_Source\PSoC4/CyDMA.c **** * Parameters:
 215:Generated_Source\PSoC4/CyDMA.c **** *  interruptVector: Address of the function that will be called by the DMA
 216:Generated_Source\PSoC4/CyDMA.c **** *                   interrupt.
 217:Generated_Source\PSoC4/CyDMA.c **** * Return:
 218:Generated_Source\PSoC4/CyDMA.c **** *  None.
 219:Generated_Source\PSoC4/CyDMA.c **** *
 220:Generated_Source\PSoC4/CyDMA.c **** * Side effect:
 221:Generated_Source\PSoC4/CyDMA.c **** *  Other components that use DMA may register their callback functions to be
 222:Generated_Source\PSoC4/CyDMA.c **** *  called from the default DMA ISR. Therefore, changing the DMA ISR to a user
 223:Generated_Source\PSoC4/CyDMA.c **** *  defined ISR using this API may prevent these other components from
ARM GAS  C:\Users\andrew\AppData\Local\Temp\cc52BSo9.s 			page 9


 224:Generated_Source\PSoC4/CyDMA.c **** *  functioning correctly.
 225:Generated_Source\PSoC4/CyDMA.c **** *
 226:Generated_Source\PSoC4/CyDMA.c **** *******************************************************************************/
 227:Generated_Source\PSoC4/CyDMA.c **** void CyDmaSetInterruptVector(cyisraddress interruptVector)
 228:Generated_Source\PSoC4/CyDMA.c **** {
 234              		.loc 1 228 0
 235              		.cfi_startproc
 236              		@ args = 0, pretend = 0, frame = 8
 237              		@ frame_needed = 0, uses_anonymous_args = 0
 238 0000 00B5     		push	{lr}
 239              		.cfi_def_cfa_offset 4
 240              		.cfi_offset 14, -4
 241 0002 83B0     		sub	sp, sp, #12
 242              		.cfi_def_cfa_offset 16
 243 0004 0190     		str	r0, [sp, #4]
 229:Generated_Source\PSoC4/CyDMA.c ****     (void)CyIntSetVector(CYDMA_INTR_NUMBER, interruptVector);
 244              		.loc 1 229 0
 245 0006 019B     		ldr	r3, [sp, #4]
 246 0008 1900     		movs	r1, r3
 247 000a 1520     		movs	r0, #21
 248 000c FFF7FEFF 		bl	CyIntSetVector
 230:Generated_Source\PSoC4/CyDMA.c **** }
 249              		.loc 1 230 0
 250 0010 C046     		nop
 251 0012 03B0     		add	sp, sp, #12
 252              		@ sp needed
 253 0014 00BD     		pop	{pc}
 254              		.cfi_endproc
 255              	.LFE8:
 256              		.size	CyDmaSetInterruptVector, .-CyDmaSetInterruptVector
 257 0016 C046     		.section	.text.CyDmaGetInterruptSource,"ax",%progbits
 258              		.align	2
 259              		.global	CyDmaGetInterruptSource
 260              		.code	16
 261              		.thumb_func
 262              		.type	CyDmaGetInterruptSource, %function
 263              	CyDmaGetInterruptSource:
 264              	.LFB9:
 231:Generated_Source\PSoC4/CyDMA.c **** 
 232:Generated_Source\PSoC4/CyDMA.c **** 
 233:Generated_Source\PSoC4/CyDMA.c **** /*******************************************************************************
 234:Generated_Source\PSoC4/CyDMA.c **** * Function Name: CyDmaGetInterruptSource
 235:Generated_Source\PSoC4/CyDMA.c **** ********************************************************************************
 236:Generated_Source\PSoC4/CyDMA.c **** *
 237:Generated_Source\PSoC4/CyDMA.c **** * Summary:
 238:Generated_Source\PSoC4/CyDMA.c **** *  Returns the bit field of which channels generated an interrupt request.
 239:Generated_Source\PSoC4/CyDMA.c **** *
 240:Generated_Source\PSoC4/CyDMA.c **** * Parameters:
 241:Generated_Source\PSoC4/CyDMA.c **** *  None.
 242:Generated_Source\PSoC4/CyDMA.c **** *                   
 243:Generated_Source\PSoC4/CyDMA.c **** * Return:
 244:Generated_Source\PSoC4/CyDMA.c **** *  Bit filed of which channels generated an interrupt request.
 245:Generated_Source\PSoC4/CyDMA.c **** *
 246:Generated_Source\PSoC4/CyDMA.c **** *******************************************************************************/
 247:Generated_Source\PSoC4/CyDMA.c **** uint32 CyDmaGetInterruptSource(void)
 248:Generated_Source\PSoC4/CyDMA.c **** {
 265              		.loc 1 248 0
ARM GAS  C:\Users\andrew\AppData\Local\Temp\cc52BSo9.s 			page 10


 266              		.cfi_startproc
 267              		@ args = 0, pretend = 0, frame = 0
 268              		@ frame_needed = 0, uses_anonymous_args = 0
 269              		@ link register save eliminated.
 249:Generated_Source\PSoC4/CyDMA.c ****     return (CYDMA_INTR_REG);
 270              		.loc 1 249 0
 271 0000 014B     		ldr	r3, .L27
 272 0002 1B68     		ldr	r3, [r3]
 250:Generated_Source\PSoC4/CyDMA.c **** }
 273              		.loc 1 250 0
 274 0004 1800     		movs	r0, r3
 275              		@ sp needed
 276 0006 7047     		bx	lr
 277              	.L28:
 278              		.align	2
 279              	.L27:
 280 0008 F0171040 		.word	1074796528
 281              		.cfi_endproc
 282              	.LFE9:
 283              		.size	CyDmaGetInterruptSource, .-CyDmaGetInterruptSource
 284              		.section	.text.CyDmaClearInterruptSource,"ax",%progbits
 285              		.align	2
 286              		.global	CyDmaClearInterruptSource
 287              		.code	16
 288              		.thumb_func
 289              		.type	CyDmaClearInterruptSource, %function
 290              	CyDmaClearInterruptSource:
 291              	.LFB10:
 251:Generated_Source\PSoC4/CyDMA.c **** 
 252:Generated_Source\PSoC4/CyDMA.c **** 
 253:Generated_Source\PSoC4/CyDMA.c **** /*******************************************************************************
 254:Generated_Source\PSoC4/CyDMA.c **** * Function Name: CyDmaClearInterruptSource
 255:Generated_Source\PSoC4/CyDMA.c **** ********************************************************************************
 256:Generated_Source\PSoC4/CyDMA.c **** *
 257:Generated_Source\PSoC4/CyDMA.c **** * Summary:
 258:Generated_Source\PSoC4/CyDMA.c **** *  Clears the pending interrupts.
 259:Generated_Source\PSoC4/CyDMA.c **** *
 260:Generated_Source\PSoC4/CyDMA.c **** * Parameters:
 261:Generated_Source\PSoC4/CyDMA.c **** *  interruptMask: Bit field of interrupts to clear.
 262:Generated_Source\PSoC4/CyDMA.c **** *                   
 263:Generated_Source\PSoC4/CyDMA.c **** * Return:
 264:Generated_Source\PSoC4/CyDMA.c **** *  None.
 265:Generated_Source\PSoC4/CyDMA.c **** *
 266:Generated_Source\PSoC4/CyDMA.c **** *******************************************************************************/
 267:Generated_Source\PSoC4/CyDMA.c **** void CyDmaClearInterruptSource(uint32 interruptMask)
 268:Generated_Source\PSoC4/CyDMA.c **** {
 292              		.loc 1 268 0
 293              		.cfi_startproc
 294              		@ args = 0, pretend = 0, frame = 8
 295              		@ frame_needed = 0, uses_anonymous_args = 0
 296              		@ link register save eliminated.
 297 0000 82B0     		sub	sp, sp, #8
 298              		.cfi_def_cfa_offset 8
 299 0002 0190     		str	r0, [sp, #4]
 269:Generated_Source\PSoC4/CyDMA.c ****     CYDMA_INTR_REG = interruptMask;
 300              		.loc 1 269 0
 301 0004 024B     		ldr	r3, .L30
ARM GAS  C:\Users\andrew\AppData\Local\Temp\cc52BSo9.s 			page 11


 302 0006 019A     		ldr	r2, [sp, #4]
 303 0008 1A60     		str	r2, [r3]
 270:Generated_Source\PSoC4/CyDMA.c **** }
 304              		.loc 1 270 0
 305 000a C046     		nop
 306 000c 02B0     		add	sp, sp, #8
 307              		@ sp needed
 308 000e 7047     		bx	lr
 309              	.L31:
 310              		.align	2
 311              	.L30:
 312 0010 F0171040 		.word	1074796528
 313              		.cfi_endproc
 314              	.LFE10:
 315              		.size	CyDmaClearInterruptSource, .-CyDmaClearInterruptSource
 316              		.section	.text.CyDmaSetInterruptSourceMask,"ax",%progbits
 317              		.align	2
 318              		.global	CyDmaSetInterruptSourceMask
 319              		.code	16
 320              		.thumb_func
 321              		.type	CyDmaSetInterruptSourceMask, %function
 322              	CyDmaSetInterruptSourceMask:
 323              	.LFB11:
 271:Generated_Source\PSoC4/CyDMA.c **** 
 272:Generated_Source\PSoC4/CyDMA.c **** 
 273:Generated_Source\PSoC4/CyDMA.c **** /*******************************************************************************
 274:Generated_Source\PSoC4/CyDMA.c **** * Function Name: CyDmaSetInterruptSourceMask
 275:Generated_Source\PSoC4/CyDMA.c **** ********************************************************************************
 276:Generated_Source\PSoC4/CyDMA.c **** *
 277:Generated_Source\PSoC4/CyDMA.c **** * Summary:
 278:Generated_Source\PSoC4/CyDMA.c **** *  Sets mask for interrupt source.
 279:Generated_Source\PSoC4/CyDMA.c **** *
 280:Generated_Source\PSoC4/CyDMA.c **** * Parameters:
 281:Generated_Source\PSoC4/CyDMA.c **** *  interruptmask: Mask corresponding to interrupt bit field.
 282:Generated_Source\PSoC4/CyDMA.c **** *                   
 283:Generated_Source\PSoC4/CyDMA.c **** * Return:
 284:Generated_Source\PSoC4/CyDMA.c **** *  None.
 285:Generated_Source\PSoC4/CyDMA.c **** *
 286:Generated_Source\PSoC4/CyDMA.c **** *******************************************************************************/
 287:Generated_Source\PSoC4/CyDMA.c **** void CyDmaSetInterruptSourceMask(uint32 interruptMask)
 288:Generated_Source\PSoC4/CyDMA.c **** {
 324              		.loc 1 288 0
 325              		.cfi_startproc
 326              		@ args = 0, pretend = 0, frame = 8
 327              		@ frame_needed = 0, uses_anonymous_args = 0
 328              		@ link register save eliminated.
 329 0000 82B0     		sub	sp, sp, #8
 330              		.cfi_def_cfa_offset 8
 331 0002 0190     		str	r0, [sp, #4]
 289:Generated_Source\PSoC4/CyDMA.c ****     CYDMA_INTR_MASK_REG = interruptMask;
 332              		.loc 1 289 0
 333 0004 024B     		ldr	r3, .L33
 334 0006 019A     		ldr	r2, [sp, #4]
 335 0008 1A60     		str	r2, [r3]
 290:Generated_Source\PSoC4/CyDMA.c **** }
 336              		.loc 1 290 0
 337 000a C046     		nop
ARM GAS  C:\Users\andrew\AppData\Local\Temp\cc52BSo9.s 			page 12


 338 000c 02B0     		add	sp, sp, #8
 339              		@ sp needed
 340 000e 7047     		bx	lr
 341              	.L34:
 342              		.align	2
 343              	.L33:
 344 0010 F8171040 		.word	1074796536
 345              		.cfi_endproc
 346              	.LFE11:
 347              		.size	CyDmaSetInterruptSourceMask, .-CyDmaSetInterruptSourceMask
 348              		.section	.text.CyDmaGetInterruptSourceMask,"ax",%progbits
 349              		.align	2
 350              		.global	CyDmaGetInterruptSourceMask
 351              		.code	16
 352              		.thumb_func
 353              		.type	CyDmaGetInterruptSourceMask, %function
 354              	CyDmaGetInterruptSourceMask:
 355              	.LFB12:
 291:Generated_Source\PSoC4/CyDMA.c **** 
 292:Generated_Source\PSoC4/CyDMA.c **** 
 293:Generated_Source\PSoC4/CyDMA.c **** /*******************************************************************************
 294:Generated_Source\PSoC4/CyDMA.c **** * Function Name: CyDmaGetInterruptSourceMask
 295:Generated_Source\PSoC4/CyDMA.c **** ********************************************************************************
 296:Generated_Source\PSoC4/CyDMA.c **** *
 297:Generated_Source\PSoC4/CyDMA.c **** * Summary:
 298:Generated_Source\PSoC4/CyDMA.c **** *  Returns mask for interrupt source.
 299:Generated_Source\PSoC4/CyDMA.c **** *
 300:Generated_Source\PSoC4/CyDMA.c **** * Parameters:
 301:Generated_Source\PSoC4/CyDMA.c **** *  None.
 302:Generated_Source\PSoC4/CyDMA.c **** *                   
 303:Generated_Source\PSoC4/CyDMA.c **** * Return:
 304:Generated_Source\PSoC4/CyDMA.c **** *  Mask corresponding to interrupt bit field.
 305:Generated_Source\PSoC4/CyDMA.c **** *
 306:Generated_Source\PSoC4/CyDMA.c **** *******************************************************************************/
 307:Generated_Source\PSoC4/CyDMA.c **** uint32 CyDmaGetInterruptSourceMask(void)
 308:Generated_Source\PSoC4/CyDMA.c **** {
 356              		.loc 1 308 0
 357              		.cfi_startproc
 358              		@ args = 0, pretend = 0, frame = 0
 359              		@ frame_needed = 0, uses_anonymous_args = 0
 360              		@ link register save eliminated.
 309:Generated_Source\PSoC4/CyDMA.c ****     return (CYDMA_INTR_MASK_REG);
 361              		.loc 1 309 0
 362 0000 014B     		ldr	r3, .L37
 363 0002 1B68     		ldr	r3, [r3]
 310:Generated_Source\PSoC4/CyDMA.c **** }
 364              		.loc 1 310 0
 365 0004 1800     		movs	r0, r3
 366              		@ sp needed
 367 0006 7047     		bx	lr
 368              	.L38:
 369              		.align	2
 370              	.L37:
 371 0008 F8171040 		.word	1074796536
 372              		.cfi_endproc
 373              	.LFE12:
 374              		.size	CyDmaGetInterruptSourceMask, .-CyDmaGetInterruptSourceMask
ARM GAS  C:\Users\andrew\AppData\Local\Temp\cc52BSo9.s 			page 13


 375              		.section	.text.CyDmaGetInterruptSourceMasked,"ax",%progbits
 376              		.align	2
 377              		.global	CyDmaGetInterruptSourceMasked
 378              		.code	16
 379              		.thumb_func
 380              		.type	CyDmaGetInterruptSourceMasked, %function
 381              	CyDmaGetInterruptSourceMasked:
 382              	.LFB13:
 311:Generated_Source\PSoC4/CyDMA.c **** 
 312:Generated_Source\PSoC4/CyDMA.c **** 
 313:Generated_Source\PSoC4/CyDMA.c **** /*******************************************************************************
 314:Generated_Source\PSoC4/CyDMA.c **** * Function Name: CyDmaGetInterruptSourceMasked
 315:Generated_Source\PSoC4/CyDMA.c **** ********************************************************************************
 316:Generated_Source\PSoC4/CyDMA.c **** *
 317:Generated_Source\PSoC4/CyDMA.c **** * Summary:
 318:Generated_Source\PSoC4/CyDMA.c **** *  Returns the bitwise AND of the interrupt source and the interrupt mask.
 319:Generated_Source\PSoC4/CyDMA.c **** *
 320:Generated_Source\PSoC4/CyDMA.c **** * Parameters:
 321:Generated_Source\PSoC4/CyDMA.c **** *  None.
 322:Generated_Source\PSoC4/CyDMA.c **** *                   
 323:Generated_Source\PSoC4/CyDMA.c **** * Return:
 324:Generated_Source\PSoC4/CyDMA.c **** *  Bitwise AND of the interrupt source and the interrupt mask.
 325:Generated_Source\PSoC4/CyDMA.c **** *
 326:Generated_Source\PSoC4/CyDMA.c **** *******************************************************************************/
 327:Generated_Source\PSoC4/CyDMA.c **** uint32 CyDmaGetInterruptSourceMasked(void)
 328:Generated_Source\PSoC4/CyDMA.c **** {
 383              		.loc 1 328 0
 384              		.cfi_startproc
 385              		@ args = 0, pretend = 0, frame = 0
 386              		@ frame_needed = 0, uses_anonymous_args = 0
 387              		@ link register save eliminated.
 329:Generated_Source\PSoC4/CyDMA.c ****     return (CYDMA_INTR_MASKED_REG);
 388              		.loc 1 329 0
 389 0000 014B     		ldr	r3, .L41
 390 0002 1B68     		ldr	r3, [r3]
 330:Generated_Source\PSoC4/CyDMA.c **** }
 391              		.loc 1 330 0
 392 0004 1800     		movs	r0, r3
 393              		@ sp needed
 394 0006 7047     		bx	lr
 395              	.L42:
 396              		.align	2
 397              	.L41:
 398 0008 FC171040 		.word	1074796540
 399              		.cfi_endproc
 400              	.LFE13:
 401              		.size	CyDmaGetInterruptSourceMasked, .-CyDmaGetInterruptSourceMasked
 402              		.section	.text.CyDmaSetInterruptCallback,"ax",%progbits
 403              		.align	2
 404              		.global	CyDmaSetInterruptCallback
 405              		.code	16
 406              		.thumb_func
 407              		.type	CyDmaSetInterruptCallback, %function
 408              	CyDmaSetInterruptCallback:
 409              	.LFB14:
 331:Generated_Source\PSoC4/CyDMA.c **** 
 332:Generated_Source\PSoC4/CyDMA.c **** 
ARM GAS  C:\Users\andrew\AppData\Local\Temp\cc52BSo9.s 			page 14


 333:Generated_Source\PSoC4/CyDMA.c **** /*******************************************************************************
 334:Generated_Source\PSoC4/CyDMA.c **** * Function Name: CyDmaSetInterruptCallback
 335:Generated_Source\PSoC4/CyDMA.c **** ********************************************************************************
 336:Generated_Source\PSoC4/CyDMA.c **** *
 337:Generated_Source\PSoC4/CyDMA.c **** * Summary:
 338:Generated_Source\PSoC4/CyDMA.c **** *  Sets a user defined callback function to be called by the DMA interrupt. The
 339:Generated_Source\PSoC4/CyDMA.c **** *  function should contain code to process the interrupt request for the 
 340:Generated_Source\PSoC4/CyDMA.c **** *  associated DMA channel.
 341:Generated_Source\PSoC4/CyDMA.c **** *
 342:Generated_Source\PSoC4/CyDMA.c **** * Parameters:
 343:Generated_Source\PSoC4/CyDMA.c **** *  channel:  Channel used by this function.
 344:Generated_Source\PSoC4/CyDMA.c **** *  callback: Pointer to the user defined callback function.
 345:Generated_Source\PSoC4/CyDMA.c **** *
 346:Generated_Source\PSoC4/CyDMA.c **** * Return:
 347:Generated_Source\PSoC4/CyDMA.c **** *  Pointer to the function previously set for the specified channel. 
 348:Generated_Source\PSoC4/CyDMA.c **** *
 349:Generated_Source\PSoC4/CyDMA.c **** *******************************************************************************/
 350:Generated_Source\PSoC4/CyDMA.c **** cydma_callback_t CyDmaSetInterruptCallback(int32 channel, cydma_callback_t callback)
 351:Generated_Source\PSoC4/CyDMA.c **** {
 410              		.loc 1 351 0
 411              		.cfi_startproc
 412              		@ args = 0, pretend = 0, frame = 16
 413              		@ frame_needed = 0, uses_anonymous_args = 0
 414 0000 00B5     		push	{lr}
 415              		.cfi_def_cfa_offset 4
 416              		.cfi_offset 14, -4
 417 0002 85B0     		sub	sp, sp, #20
 418              		.cfi_def_cfa_offset 24
 419 0004 0190     		str	r0, [sp, #4]
 420 0006 0091     		str	r1, [sp]
 352:Generated_Source\PSoC4/CyDMA.c ****     cydma_callback_t prevCallback;
 353:Generated_Source\PSoC4/CyDMA.c **** 
 354:Generated_Source\PSoC4/CyDMA.c ****     CYASSERT((channel >= 0) && (channel < CYDMA_CH_NR));
 421              		.loc 1 354 0
 422 0008 019B     		ldr	r3, [sp, #4]
 423 000a 002B     		cmp	r3, #0
 424 000c 04DB     		blt	.L44
 425              		.loc 1 354 0 is_stmt 0 discriminator 1
 426 000e 019B     		ldr	r3, [sp, #4]
 427 0010 072B     		cmp	r3, #7
 428 0012 01DC     		bgt	.L44
 429              		.loc 1 354 0 discriminator 3
 430 0014 0123     		movs	r3, #1
 431 0016 00E0     		b	.L45
 432              	.L44:
 433              		.loc 1 354 0 discriminator 4
 434 0018 0023     		movs	r3, #0
 435              	.L45:
 436              		.loc 1 354 0 discriminator 6
 437 001a 002B     		cmp	r3, #0
 438 001c 02D1     		bne	.L46
 439              		.loc 1 354 0 discriminator 7
 440 001e 0020     		movs	r0, #0
 441 0020 FFF7FEFF 		bl	CyHalt
 442              	.L46:
 355:Generated_Source\PSoC4/CyDMA.c **** 
 356:Generated_Source\PSoC4/CyDMA.c ****     prevCallback = CyDmaInterruptCallback[channel];
ARM GAS  C:\Users\andrew\AppData\Local\Temp\cc52BSo9.s 			page 15


 443              		.loc 1 356 0 is_stmt 1
 444 0024 064B     		ldr	r3, .L48
 445 0026 019A     		ldr	r2, [sp, #4]
 446 0028 9200     		lsls	r2, r2, #2
 447 002a D358     		ldr	r3, [r2, r3]
 448 002c 0393     		str	r3, [sp, #12]
 357:Generated_Source\PSoC4/CyDMA.c ****     CyDmaInterruptCallback[channel] = callback;
 449              		.loc 1 357 0
 450 002e 044B     		ldr	r3, .L48
 451 0030 019A     		ldr	r2, [sp, #4]
 452 0032 9200     		lsls	r2, r2, #2
 453 0034 0099     		ldr	r1, [sp]
 454 0036 D150     		str	r1, [r2, r3]
 358:Generated_Source\PSoC4/CyDMA.c ****     return (prevCallback);
 455              		.loc 1 358 0
 456 0038 039B     		ldr	r3, [sp, #12]
 359:Generated_Source\PSoC4/CyDMA.c **** }
 457              		.loc 1 359 0
 458 003a 1800     		movs	r0, r3
 459 003c 05B0     		add	sp, sp, #20
 460              		@ sp needed
 461 003e 00BD     		pop	{pc}
 462              	.L49:
 463              		.align	2
 464              	.L48:
 465 0040 00000000 		.word	CyDmaInterruptCallback
 466              		.cfi_endproc
 467              	.LFE14:
 468              		.size	CyDmaSetInterruptCallback, .-CyDmaSetInterruptCallback
 469              		.section	.text.CyDmaGetInterruptCallback,"ax",%progbits
 470              		.align	2
 471              		.global	CyDmaGetInterruptCallback
 472              		.code	16
 473              		.thumb_func
 474              		.type	CyDmaGetInterruptCallback, %function
 475              	CyDmaGetInterruptCallback:
 476              	.LFB15:
 360:Generated_Source\PSoC4/CyDMA.c **** 
 361:Generated_Source\PSoC4/CyDMA.c **** 
 362:Generated_Source\PSoC4/CyDMA.c **** /*******************************************************************************
 363:Generated_Source\PSoC4/CyDMA.c **** * Function Name: CyDmaGetInterruptCallback
 364:Generated_Source\PSoC4/CyDMA.c **** ********************************************************************************
 365:Generated_Source\PSoC4/CyDMA.c **** *
 366:Generated_Source\PSoC4/CyDMA.c **** * Summary:
 367:Generated_Source\PSoC4/CyDMA.c **** *  Returns the pointer to the interrupt callback function for the specified DMA
 368:Generated_Source\PSoC4/CyDMA.c **** *  channel.
 369:Generated_Source\PSoC4/CyDMA.c **** *
 370:Generated_Source\PSoC4/CyDMA.c **** * Parameters:
 371:Generated_Source\PSoC4/CyDMA.c **** *  channel: Channel used by this function.
 372:Generated_Source\PSoC4/CyDMA.c **** *
 373:Generated_Source\PSoC4/CyDMA.c **** * Return:
 374:Generated_Source\PSoC4/CyDMA.c **** *  Callback function pointer for the specified channel.
 375:Generated_Source\PSoC4/CyDMA.c **** *
 376:Generated_Source\PSoC4/CyDMA.c **** *******************************************************************************/
 377:Generated_Source\PSoC4/CyDMA.c **** cydma_callback_t CyDmaGetInterruptCallback(int32 channel)
 378:Generated_Source\PSoC4/CyDMA.c **** {
 477              		.loc 1 378 0
ARM GAS  C:\Users\andrew\AppData\Local\Temp\cc52BSo9.s 			page 16


 478              		.cfi_startproc
 479              		@ args = 0, pretend = 0, frame = 8
 480              		@ frame_needed = 0, uses_anonymous_args = 0
 481 0000 00B5     		push	{lr}
 482              		.cfi_def_cfa_offset 4
 483              		.cfi_offset 14, -4
 484 0002 83B0     		sub	sp, sp, #12
 485              		.cfi_def_cfa_offset 16
 486 0004 0190     		str	r0, [sp, #4]
 379:Generated_Source\PSoC4/CyDMA.c ****     CYASSERT((channel >= 0) && (channel < CYDMA_CH_NR));
 487              		.loc 1 379 0
 488 0006 019B     		ldr	r3, [sp, #4]
 489 0008 002B     		cmp	r3, #0
 490 000a 04DB     		blt	.L51
 491              		.loc 1 379 0 is_stmt 0 discriminator 1
 492 000c 019B     		ldr	r3, [sp, #4]
 493 000e 072B     		cmp	r3, #7
 494 0010 01DC     		bgt	.L51
 495              		.loc 1 379 0 discriminator 3
 496 0012 0123     		movs	r3, #1
 497 0014 00E0     		b	.L52
 498              	.L51:
 499              		.loc 1 379 0 discriminator 4
 500 0016 0023     		movs	r3, #0
 501              	.L52:
 502              		.loc 1 379 0 discriminator 6
 503 0018 002B     		cmp	r3, #0
 504 001a 02D1     		bne	.L53
 505              		.loc 1 379 0 discriminator 7
 506 001c 0020     		movs	r0, #0
 507 001e FFF7FEFF 		bl	CyHalt
 508              	.L53:
 380:Generated_Source\PSoC4/CyDMA.c ****     
 381:Generated_Source\PSoC4/CyDMA.c ****     return (CyDmaInterruptCallback[channel]);
 509              		.loc 1 381 0 is_stmt 1
 510 0022 034B     		ldr	r3, .L55
 511 0024 019A     		ldr	r2, [sp, #4]
 512 0026 9200     		lsls	r2, r2, #2
 513 0028 D358     		ldr	r3, [r2, r3]
 382:Generated_Source\PSoC4/CyDMA.c **** }
 514              		.loc 1 382 0
 515 002a 1800     		movs	r0, r3
 516 002c 03B0     		add	sp, sp, #12
 517              		@ sp needed
 518 002e 00BD     		pop	{pc}
 519              	.L56:
 520              		.align	2
 521              	.L55:
 522 0030 00000000 		.word	CyDmaInterruptCallback
 523              		.cfi_endproc
 524              	.LFE15:
 525              		.size	CyDmaGetInterruptCallback, .-CyDmaGetInterruptCallback
 526              		.section	.text.CyDmaInterrupt,"ax",%progbits
 527              		.align	2
 528              		.global	CyDmaInterrupt
 529              		.code	16
 530              		.thumb_func
ARM GAS  C:\Users\andrew\AppData\Local\Temp\cc52BSo9.s 			page 17


 531              		.type	CyDmaInterrupt, %function
 532              	CyDmaInterrupt:
 533              	.LFB16:
 383:Generated_Source\PSoC4/CyDMA.c **** 
 384:Generated_Source\PSoC4/CyDMA.c **** 
 385:Generated_Source\PSoC4/CyDMA.c **** /*******************************************************************************
 386:Generated_Source\PSoC4/CyDMA.c **** * Function Name: CyDmaInterrupt
 387:Generated_Source\PSoC4/CyDMA.c **** ********************************************************************************
 388:Generated_Source\PSoC4/CyDMA.c **** *
 389:Generated_Source\PSoC4/CyDMA.c **** * Summary:
 390:Generated_Source\PSoC4/CyDMA.c **** *  The default ISR for DMA interrupts. The handler checks which DMA channel has
 391:Generated_Source\PSoC4/CyDMA.c **** *  triggered the interrupt and calls the user defined callback function.
 392:Generated_Source\PSoC4/CyDMA.c **** *  The callback function is set using CyDmaSetInteruptCallback() API.
 393:Generated_Source\PSoC4/CyDMA.c **** *
 394:Generated_Source\PSoC4/CyDMA.c **** * Parameters:
 395:Generated_Source\PSoC4/CyDMA.c **** *  None.
 396:Generated_Source\PSoC4/CyDMA.c **** *
 397:Generated_Source\PSoC4/CyDMA.c **** * Return:
 398:Generated_Source\PSoC4/CyDMA.c **** *  None.
 399:Generated_Source\PSoC4/CyDMA.c **** *
 400:Generated_Source\PSoC4/CyDMA.c **** * Side Effects:
 401:Generated_Source\PSoC4/CyDMA.c **** *  This function clears the pending interrupts.
 402:Generated_Source\PSoC4/CyDMA.c **** *
 403:Generated_Source\PSoC4/CyDMA.c **** *******************************************************************************/
 404:Generated_Source\PSoC4/CyDMA.c **** CY_ISR(CyDmaInterrupt)
 405:Generated_Source\PSoC4/CyDMA.c **** {
 534              		.loc 1 405 0
 535              		.cfi_startproc
 536              		@ args = 0, pretend = 0, frame = 8
 537              		@ frame_needed = 0, uses_anonymous_args = 0
 538 0000 00B5     		push	{lr}
 539              		.cfi_def_cfa_offset 4
 540              		.cfi_offset 14, -4
 541 0002 83B0     		sub	sp, sp, #12
 542              		.cfi_def_cfa_offset 16
 406:Generated_Source\PSoC4/CyDMA.c ****     uint32 intr;
 407:Generated_Source\PSoC4/CyDMA.c ****     uint32 cbIdx = 0u;
 543              		.loc 1 407 0
 544 0004 0023     		movs	r3, #0
 545 0006 0093     		str	r3, [sp]
 408:Generated_Source\PSoC4/CyDMA.c **** 
 409:Generated_Source\PSoC4/CyDMA.c ****     /* Get interrupt source. */
 410:Generated_Source\PSoC4/CyDMA.c ****     intr = CYDMA_INTR_MASKED_REG;
 546              		.loc 1 410 0
 547 0008 0D4B     		ldr	r3, .L61
 548 000a 1B68     		ldr	r3, [r3]
 549 000c 0193     		str	r3, [sp, #4]
 411:Generated_Source\PSoC4/CyDMA.c **** 
 412:Generated_Source\PSoC4/CyDMA.c ****     /* Clear pending interrupts. */
 413:Generated_Source\PSoC4/CyDMA.c ****     CYDMA_INTR_REG = intr;
 550              		.loc 1 413 0
 551 000e 0D4B     		ldr	r3, .L61+4
 552 0010 019A     		ldr	r2, [sp, #4]
 553 0012 1A60     		str	r2, [r3]
 414:Generated_Source\PSoC4/CyDMA.c **** 
 415:Generated_Source\PSoC4/CyDMA.c ****     /* Call user defined callback functions for triggered interrupt sources. */
 416:Generated_Source\PSoC4/CyDMA.c ****     while(0u != intr)
ARM GAS  C:\Users\andrew\AppData\Local\Temp\cc52BSo9.s 			page 18


 554              		.loc 1 416 0
 555 0014 0EE0     		b	.L58
 556              	.L60:
 417:Generated_Source\PSoC4/CyDMA.c ****     {
 418:Generated_Source\PSoC4/CyDMA.c ****         if(0u != (intr & 0x1u))
 557              		.loc 1 418 0
 558 0016 019B     		ldr	r3, [sp, #4]
 559 0018 0122     		movs	r2, #1
 560 001a 1340     		ands	r3, r2
 561 001c 04D0     		beq	.L59
 419:Generated_Source\PSoC4/CyDMA.c ****         {
 420:Generated_Source\PSoC4/CyDMA.c ****             CyDmaInterruptCallback[cbIdx]();
 562              		.loc 1 420 0
 563 001e 0A4B     		ldr	r3, .L61+8
 564 0020 009A     		ldr	r2, [sp]
 565 0022 9200     		lsls	r2, r2, #2
 566 0024 D358     		ldr	r3, [r2, r3]
 567 0026 9847     		blx	r3
 568              	.L59:
 421:Generated_Source\PSoC4/CyDMA.c ****         }
 422:Generated_Source\PSoC4/CyDMA.c ****         intr >>= 1;
 569              		.loc 1 422 0
 570 0028 019B     		ldr	r3, [sp, #4]
 571 002a 5B08     		lsrs	r3, r3, #1
 572 002c 0193     		str	r3, [sp, #4]
 423:Generated_Source\PSoC4/CyDMA.c ****         ++cbIdx;
 573              		.loc 1 423 0
 574 002e 009B     		ldr	r3, [sp]
 575 0030 0133     		adds	r3, r3, #1
 576 0032 0093     		str	r3, [sp]
 577              	.L58:
 416:Generated_Source\PSoC4/CyDMA.c ****     {
 578              		.loc 1 416 0
 579 0034 019B     		ldr	r3, [sp, #4]
 580 0036 002B     		cmp	r3, #0
 581 0038 EDD1     		bne	.L60
 424:Generated_Source\PSoC4/CyDMA.c ****     }
 425:Generated_Source\PSoC4/CyDMA.c **** }
 582              		.loc 1 425 0
 583 003a C046     		nop
 584 003c 03B0     		add	sp, sp, #12
 585              		@ sp needed
 586 003e 00BD     		pop	{pc}
 587              	.L62:
 588              		.align	2
 589              	.L61:
 590 0040 FC171040 		.word	1074796540
 591 0044 F0171040 		.word	1074796528
 592 0048 00000000 		.word	CyDmaInterruptCallback
 593              		.cfi_endproc
 594              	.LFE16:
 595              		.size	CyDmaInterrupt, .-CyDmaInterrupt
 596              		.section	.text.CyDmaDefaultInterruptCallback,"ax",%progbits
 597              		.align	2
 598              		.code	16
 599              		.thumb_func
 600              		.type	CyDmaDefaultInterruptCallback, %function
ARM GAS  C:\Users\andrew\AppData\Local\Temp\cc52BSo9.s 			page 19


 601              	CyDmaDefaultInterruptCallback:
 602              	.LFB17:
 426:Generated_Source\PSoC4/CyDMA.c **** 
 427:Generated_Source\PSoC4/CyDMA.c **** 
 428:Generated_Source\PSoC4/CyDMA.c **** /*******************************************************************************
 429:Generated_Source\PSoC4/CyDMA.c **** * Function Name: CyDmaDefaultInterruptCallback
 430:Generated_Source\PSoC4/CyDMA.c **** ********************************************************************************
 431:Generated_Source\PSoC4/CyDMA.c **** *
 432:Generated_Source\PSoC4/CyDMA.c **** * Summary:
 433:Generated_Source\PSoC4/CyDMA.c **** *  This function is invoked when the user defined callback function is undefined
 434:Generated_Source\PSoC4/CyDMA.c **** *  for the interrupt source.
 435:Generated_Source\PSoC4/CyDMA.c **** *
 436:Generated_Source\PSoC4/CyDMA.c **** * Parameters:
 437:Generated_Source\PSoC4/CyDMA.c **** *  None.
 438:Generated_Source\PSoC4/CyDMA.c **** *
 439:Generated_Source\PSoC4/CyDMA.c **** * Return:
 440:Generated_Source\PSoC4/CyDMA.c **** *  None.
 441:Generated_Source\PSoC4/CyDMA.c **** *
 442:Generated_Source\PSoC4/CyDMA.c **** *******************************************************************************/
 443:Generated_Source\PSoC4/CyDMA.c **** static void CyDmaDefaultInterruptCallback(void)
 444:Generated_Source\PSoC4/CyDMA.c **** {
 603              		.loc 1 444 0
 604              		.cfi_startproc
 605              		@ args = 0, pretend = 0, frame = 0
 606              		@ frame_needed = 0, uses_anonymous_args = 0
 607 0000 10B5     		push	{r4, lr}
 608              		.cfi_def_cfa_offset 8
 609              		.cfi_offset 4, -8
 610              		.cfi_offset 14, -4
 445:Generated_Source\PSoC4/CyDMA.c ****     /* Halt CPU in debug mode. We get here because there is no user defined
 446:Generated_Source\PSoC4/CyDMA.c ****     * callback function for the interrupt source. You should either set a
 447:Generated_Source\PSoC4/CyDMA.c ****     * callback function or disable generating an interrupt from this
 448:Generated_Source\PSoC4/CyDMA.c ****     * interrupt source.
 449:Generated_Source\PSoC4/CyDMA.c ****     * To set a callback, use the CyDmaSetInterruptCallback() API function.
 450:Generated_Source\PSoC4/CyDMA.c ****     * To disable interrupt generation, write '0' to the corresponding bit
 451:Generated_Source\PSoC4/CyDMA.c ****     * in the interrupt mask by calling CyDmaSetInterruptSourceMask().
 452:Generated_Source\PSoC4/CyDMA.c ****     */
 453:Generated_Source\PSoC4/CyDMA.c ****     CYASSERT(0 != 0);
 611              		.loc 1 453 0
 612 0002 0020     		movs	r0, #0
 613 0004 FFF7FEFF 		bl	CyHalt
 454:Generated_Source\PSoC4/CyDMA.c **** }
 614              		.loc 1 454 0
 615 0008 C046     		nop
 616              		@ sp needed
 617 000a 10BD     		pop	{r4, pc}
 618              		.cfi_endproc
 619              	.LFE17:
 620              		.size	CyDmaDefaultInterruptCallback, .-CyDmaDefaultInterruptCallback
 621              		.section	.text.CyDmaChAlloc,"ax",%progbits
 622              		.align	2
 623              		.global	CyDmaChAlloc
 624              		.code	16
 625              		.thumb_func
 626              		.type	CyDmaChAlloc, %function
 627              	CyDmaChAlloc:
 628              	.LFB18:
ARM GAS  C:\Users\andrew\AppData\Local\Temp\cc52BSo9.s 			page 20


 455:Generated_Source\PSoC4/CyDMA.c **** 
 456:Generated_Source\PSoC4/CyDMA.c **** 
 457:Generated_Source\PSoC4/CyDMA.c **** /*******************************************************************************
 458:Generated_Source\PSoC4/CyDMA.c **** * Function Name: CyDmaChAlloc
 459:Generated_Source\PSoC4/CyDMA.c **** ********************************************************************************
 460:Generated_Source\PSoC4/CyDMA.c **** *
 461:Generated_Source\PSoC4/CyDMA.c **** * Summary:
 462:Generated_Source\PSoC4/CyDMA.c **** *  Allocates a channel number to use with later DMA functions.
 463:Generated_Source\PSoC4/CyDMA.c **** *
 464:Generated_Source\PSoC4/CyDMA.c **** * Parameters:
 465:Generated_Source\PSoC4/CyDMA.c **** *  None.
 466:Generated_Source\PSoC4/CyDMA.c **** *                   
 467:Generated_Source\PSoC4/CyDMA.c **** * Return:
 468:Generated_Source\PSoC4/CyDMA.c **** *  The allocated channel number. Zero is a valid channel number.
 469:Generated_Source\PSoC4/CyDMA.c **** *  CYDMA_INVALID_CHANNEL is returned if there are no channels available.
 470:Generated_Source\PSoC4/CyDMA.c **** *
 471:Generated_Source\PSoC4/CyDMA.c **** *******************************************************************************/
 472:Generated_Source\PSoC4/CyDMA.c **** int32 CyDmaChAlloc(void)
 473:Generated_Source\PSoC4/CyDMA.c **** {
 629              		.loc 1 473 0
 630              		.cfi_startproc
 631              		@ args = 0, pretend = 0, frame = 8
 632              		@ frame_needed = 0, uses_anonymous_args = 0
 633              		@ link register save eliminated.
 634 0000 82B0     		sub	sp, sp, #8
 635              		.cfi_def_cfa_offset 8
 474:Generated_Source\PSoC4/CyDMA.c ****     int32  channel = CYDMA_CH_NR-1;
 636              		.loc 1 474 0
 637 0002 0723     		movs	r3, #7
 638 0004 0193     		str	r3, [sp, #4]
 475:Generated_Source\PSoC4/CyDMA.c ****     uint32 channelMask = (uint32)(1UL << (CYDMA_CH_NR-1));
 639              		.loc 1 475 0
 640 0006 8023     		movs	r3, #128
 641 0008 0093     		str	r3, [sp]
 476:Generated_Source\PSoC4/CyDMA.c ****     
 477:Generated_Source\PSoC4/CyDMA.c ****     while (channel >= 0)
 642              		.loc 1 477 0
 643 000a 11E0     		b	.L65
 644              	.L68:
 478:Generated_Source\PSoC4/CyDMA.c ****     {
 479:Generated_Source\PSoC4/CyDMA.c ****         if(0u == (CyDmaChannelUsedMask & channelMask))
 645              		.loc 1 479 0
 646 000c 0C4B     		ldr	r3, .L70
 647 000e 1B68     		ldr	r3, [r3]
 648 0010 009A     		ldr	r2, [sp]
 649 0012 1340     		ands	r3, r2
 650 0014 06D1     		bne	.L66
 480:Generated_Source\PSoC4/CyDMA.c ****         {
 481:Generated_Source\PSoC4/CyDMA.c ****             /* Mark channel as used and exit loop. */ 
 482:Generated_Source\PSoC4/CyDMA.c ****             CyDmaChannelUsedMask |= channelMask;
 651              		.loc 1 482 0
 652 0016 0A4B     		ldr	r3, .L70
 653 0018 1A68     		ldr	r2, [r3]
 654 001a 009B     		ldr	r3, [sp]
 655 001c 1A43     		orrs	r2, r3
 656 001e 084B     		ldr	r3, .L70
 657 0020 1A60     		str	r2, [r3]
ARM GAS  C:\Users\andrew\AppData\Local\Temp\cc52BSo9.s 			page 21


 483:Generated_Source\PSoC4/CyDMA.c ****             break;
 658              		.loc 1 483 0
 659 0022 08E0     		b	.L67
 660              	.L66:
 484:Generated_Source\PSoC4/CyDMA.c ****         }
 485:Generated_Source\PSoC4/CyDMA.c ****         channelMask >>= 1;
 661              		.loc 1 485 0
 662 0024 009B     		ldr	r3, [sp]
 663 0026 5B08     		lsrs	r3, r3, #1
 664 0028 0093     		str	r3, [sp]
 486:Generated_Source\PSoC4/CyDMA.c ****         --channel;
 665              		.loc 1 486 0
 666 002a 019B     		ldr	r3, [sp, #4]
 667 002c 013B     		subs	r3, r3, #1
 668 002e 0193     		str	r3, [sp, #4]
 669              	.L65:
 477:Generated_Source\PSoC4/CyDMA.c ****     {
 670              		.loc 1 477 0
 671 0030 019B     		ldr	r3, [sp, #4]
 672 0032 002B     		cmp	r3, #0
 673 0034 EADA     		bge	.L68
 674              	.L67:
 487:Generated_Source\PSoC4/CyDMA.c ****     }
 488:Generated_Source\PSoC4/CyDMA.c ****     return (channel);
 675              		.loc 1 488 0
 676 0036 019B     		ldr	r3, [sp, #4]
 489:Generated_Source\PSoC4/CyDMA.c **** }
 677              		.loc 1 489 0
 678 0038 1800     		movs	r0, r3
 679 003a 02B0     		add	sp, sp, #8
 680              		@ sp needed
 681 003c 7047     		bx	lr
 682              	.L71:
 683 003e C046     		.align	2
 684              	.L70:
 685 0040 00000000 		.word	CyDmaChannelUsedMask
 686              		.cfi_endproc
 687              	.LFE18:
 688              		.size	CyDmaChAlloc, .-CyDmaChAlloc
 689              		.section	.text.CyDmaChFree,"ax",%progbits
 690              		.align	2
 691              		.global	CyDmaChFree
 692              		.code	16
 693              		.thumb_func
 694              		.type	CyDmaChFree, %function
 695              	CyDmaChFree:
 696              	.LFB19:
 490:Generated_Source\PSoC4/CyDMA.c **** 
 491:Generated_Source\PSoC4/CyDMA.c **** 
 492:Generated_Source\PSoC4/CyDMA.c **** /*******************************************************************************
 493:Generated_Source\PSoC4/CyDMA.c **** * Function Name: CyDmaChFree
 494:Generated_Source\PSoC4/CyDMA.c **** ********************************************************************************
 495:Generated_Source\PSoC4/CyDMA.c **** *
 496:Generated_Source\PSoC4/CyDMA.c **** * Summary:
 497:Generated_Source\PSoC4/CyDMA.c **** *  Frees a channel handle allocated by CyDmaChAlloc(). Channels allocated for
 498:Generated_Source\PSoC4/CyDMA.c **** *  DMA instances placed on a schematic cannot be freed.
 499:Generated_Source\PSoC4/CyDMA.c **** *
ARM GAS  C:\Users\andrew\AppData\Local\Temp\cc52BSo9.s 			page 22


 500:Generated_Source\PSoC4/CyDMA.c **** * Parameters:
 501:Generated_Source\PSoC4/CyDMA.c **** *  channel: The handle previously returned by CyDmaChAlloc().
 502:Generated_Source\PSoC4/CyDMA.c **** *                   
 503:Generated_Source\PSoC4/CyDMA.c **** * Return:
 504:Generated_Source\PSoC4/CyDMA.c **** *  CYRET_SUCCESS if successful.
 505:Generated_Source\PSoC4/CyDMA.c **** *  CYRET_BAD_PARAM if channel is invalid.
 506:Generated_Source\PSoC4/CyDMA.c **** *
 507:Generated_Source\PSoC4/CyDMA.c **** *******************************************************************************/
 508:Generated_Source\PSoC4/CyDMA.c **** cystatus CyDmaChFree(int32 channel)
 509:Generated_Source\PSoC4/CyDMA.c **** {
 697              		.loc 1 509 0
 698              		.cfi_startproc
 699              		@ args = 0, pretend = 0, frame = 16
 700              		@ frame_needed = 0, uses_anonymous_args = 0
 701 0000 00B5     		push	{lr}
 702              		.cfi_def_cfa_offset 4
 703              		.cfi_offset 14, -4
 704 0002 85B0     		sub	sp, sp, #20
 705              		.cfi_def_cfa_offset 24
 706 0004 0190     		str	r0, [sp, #4]
 510:Generated_Source\PSoC4/CyDMA.c ****     uint32   channelMask;
 511:Generated_Source\PSoC4/CyDMA.c ****     cystatus result = CYRET_BAD_PARAM;
 707              		.loc 1 511 0
 708 0006 0123     		movs	r3, #1
 709 0008 0393     		str	r3, [sp, #12]
 512:Generated_Source\PSoC4/CyDMA.c **** 
 513:Generated_Source\PSoC4/CyDMA.c ****     CYASSERT((channel >= 0) && (channel < CYDMA_CH_NR));
 710              		.loc 1 513 0
 711 000a 019B     		ldr	r3, [sp, #4]
 712 000c 002B     		cmp	r3, #0
 713 000e 04DB     		blt	.L73
 714              		.loc 1 513 0 is_stmt 0 discriminator 1
 715 0010 019B     		ldr	r3, [sp, #4]
 716 0012 072B     		cmp	r3, #7
 717 0014 01DC     		bgt	.L73
 718              		.loc 1 513 0 discriminator 3
 719 0016 0123     		movs	r3, #1
 720 0018 00E0     		b	.L74
 721              	.L73:
 722              		.loc 1 513 0 discriminator 4
 723 001a 0023     		movs	r3, #0
 724              	.L74:
 725              		.loc 1 513 0 discriminator 6
 726 001c 002B     		cmp	r3, #0
 727 001e 02D1     		bne	.L75
 728              		.loc 1 513 0 discriminator 7
 729 0020 0020     		movs	r0, #0
 730 0022 FFF7FEFF 		bl	CyHalt
 731              	.L75:
 514:Generated_Source\PSoC4/CyDMA.c ****     
 515:Generated_Source\PSoC4/CyDMA.c ****     channelMask = (uint32)(1UL << channel);
 732              		.loc 1 515 0 is_stmt 1
 733 0026 0122     		movs	r2, #1
 734 0028 019B     		ldr	r3, [sp, #4]
 735 002a 9A40     		lsls	r2, r2, r3
 736 002c 1300     		movs	r3, r2
 737 002e 0293     		str	r3, [sp, #8]
ARM GAS  C:\Users\andrew\AppData\Local\Temp\cc52BSo9.s 			page 23


 516:Generated_Source\PSoC4/CyDMA.c **** 
 517:Generated_Source\PSoC4/CyDMA.c ****     /* Check against attempt to free channel allocated for DMA instance
 518:Generated_Source\PSoC4/CyDMA.c ****     * placed on schematic.
 519:Generated_Source\PSoC4/CyDMA.c ****     */
 520:Generated_Source\PSoC4/CyDMA.c ****     if(0u == (channelMask & DMA_CHANNELS_USED__MASK))
 521:Generated_Source\PSoC4/CyDMA.c ****     {
 522:Generated_Source\PSoC4/CyDMA.c ****         CyDmaChannelUsedMask &= (uint32)~channelMask;
 738              		.loc 1 522 0
 739 0030 029B     		ldr	r3, [sp, #8]
 740 0032 DA43     		mvns	r2, r3
 741 0034 054B     		ldr	r3, .L77
 742 0036 1B68     		ldr	r3, [r3]
 743 0038 1A40     		ands	r2, r3
 744 003a 044B     		ldr	r3, .L77
 745 003c 1A60     		str	r2, [r3]
 523:Generated_Source\PSoC4/CyDMA.c ****         result = CYRET_SUCCESS;
 746              		.loc 1 523 0
 747 003e 0023     		movs	r3, #0
 748 0040 0393     		str	r3, [sp, #12]
 524:Generated_Source\PSoC4/CyDMA.c ****     }
 525:Generated_Source\PSoC4/CyDMA.c ****     
 526:Generated_Source\PSoC4/CyDMA.c ****     return (result);
 749              		.loc 1 526 0
 750 0042 039B     		ldr	r3, [sp, #12]
 527:Generated_Source\PSoC4/CyDMA.c **** }
 751              		.loc 1 527 0
 752 0044 1800     		movs	r0, r3
 753 0046 05B0     		add	sp, sp, #20
 754              		@ sp needed
 755 0048 00BD     		pop	{pc}
 756              	.L78:
 757 004a C046     		.align	2
 758              	.L77:
 759 004c 00000000 		.word	CyDmaChannelUsedMask
 760              		.cfi_endproc
 761              	.LFE19:
 762              		.size	CyDmaChFree, .-CyDmaChFree
 763              		.section	.text.CyDmaChEnable,"ax",%progbits
 764              		.align	2
 765              		.global	CyDmaChEnable
 766              		.code	16
 767              		.thumb_func
 768              		.type	CyDmaChEnable, %function
 769              	CyDmaChEnable:
 770              	.LFB20:
 528:Generated_Source\PSoC4/CyDMA.c **** 
 529:Generated_Source\PSoC4/CyDMA.c **** 
 530:Generated_Source\PSoC4/CyDMA.c **** /*******************************************************************************
 531:Generated_Source\PSoC4/CyDMA.c **** * Function Name: CyDmaChEnable
 532:Generated_Source\PSoC4/CyDMA.c **** ********************************************************************************
 533:Generated_Source\PSoC4/CyDMA.c **** *
 534:Generated_Source\PSoC4/CyDMA.c **** * Summary:
 535:Generated_Source\PSoC4/CyDMA.c **** *  Enables the DMA channel.
 536:Generated_Source\PSoC4/CyDMA.c **** *
 537:Generated_Source\PSoC4/CyDMA.c **** * Parameters:
 538:Generated_Source\PSoC4/CyDMA.c **** *  channel: Channel used by this function.
 539:Generated_Source\PSoC4/CyDMA.c **** *                   
ARM GAS  C:\Users\andrew\AppData\Local\Temp\cc52BSo9.s 			page 24


 540:Generated_Source\PSoC4/CyDMA.c **** * Return:
 541:Generated_Source\PSoC4/CyDMA.c **** *  None.
 542:Generated_Source\PSoC4/CyDMA.c **** *
 543:Generated_Source\PSoC4/CyDMA.c **** * Side effect:
 544:Generated_Source\PSoC4/CyDMA.c **** *  If this function is called before CyDmaSetConfiguration(), and
 545:Generated_Source\PSoC4/CyDMA.c **** *  CyDmaSetSrcAddress() and CyDmaSetDstAddress(), the operation of
 546:Generated_Source\PSoC4/CyDMA.c **** *  the DMA is undefined and could result in system data corruption. 
 547:Generated_Source\PSoC4/CyDMA.c **** *
 548:Generated_Source\PSoC4/CyDMA.c **** *******************************************************************************/
 549:Generated_Source\PSoC4/CyDMA.c **** void CyDmaChEnable(int32 channel)
 550:Generated_Source\PSoC4/CyDMA.c **** {
 771              		.loc 1 550 0
 772              		.cfi_startproc
 773              		@ args = 0, pretend = 0, frame = 8
 774              		@ frame_needed = 0, uses_anonymous_args = 0
 775 0000 00B5     		push	{lr}
 776              		.cfi_def_cfa_offset 4
 777              		.cfi_offset 14, -4
 778 0002 83B0     		sub	sp, sp, #12
 779              		.cfi_def_cfa_offset 16
 780 0004 0190     		str	r0, [sp, #4]
 551:Generated_Source\PSoC4/CyDMA.c ****     CYASSERT((channel >= 0) && (channel < CYDMA_CH_NR));
 781              		.loc 1 551 0
 782 0006 019B     		ldr	r3, [sp, #4]
 783 0008 002B     		cmp	r3, #0
 784 000a 04DB     		blt	.L80
 785              		.loc 1 551 0 is_stmt 0 discriminator 1
 786 000c 019B     		ldr	r3, [sp, #4]
 787 000e 072B     		cmp	r3, #7
 788 0010 01DC     		bgt	.L80
 789              		.loc 1 551 0 discriminator 3
 790 0012 0123     		movs	r3, #1
 791 0014 00E0     		b	.L81
 792              	.L80:
 793              		.loc 1 551 0 discriminator 4
 794 0016 0023     		movs	r3, #0
 795              	.L81:
 796              		.loc 1 551 0 discriminator 6
 797 0018 002B     		cmp	r3, #0
 798 001a 02D1     		bne	.L82
 799              		.loc 1 551 0 discriminator 7
 800 001c 0020     		movs	r0, #0
 801 001e FFF7FEFF 		bl	CyHalt
 802              	.L82:
 552:Generated_Source\PSoC4/CyDMA.c **** 
 553:Generated_Source\PSoC4/CyDMA.c ****     CYDMA_CH_CTL_BASE.ctl[channel] |= CYDMA_ENABLED;
 803              		.loc 1 553 0 is_stmt 1
 804 0022 0749     		ldr	r1, .L83
 805 0024 064A     		ldr	r2, .L83
 806 0026 019B     		ldr	r3, [sp, #4]
 807 0028 9B00     		lsls	r3, r3, #2
 808 002a 9B58     		ldr	r3, [r3, r2]
 809 002c 8022     		movs	r2, #128
 810 002e 1206     		lsls	r2, r2, #24
 811 0030 1A43     		orrs	r2, r3
 812 0032 019B     		ldr	r3, [sp, #4]
 813 0034 9B00     		lsls	r3, r3, #2
ARM GAS  C:\Users\andrew\AppData\Local\Temp\cc52BSo9.s 			page 25


 814 0036 5A50     		str	r2, [r3, r1]
 554:Generated_Source\PSoC4/CyDMA.c **** }
 815              		.loc 1 554 0
 816 0038 C046     		nop
 817 003a 03B0     		add	sp, sp, #12
 818              		@ sp needed
 819 003c 00BD     		pop	{pc}
 820              	.L84:
 821 003e C046     		.align	2
 822              	.L83:
 823 0040 80101040 		.word	1074794624
 824              		.cfi_endproc
 825              	.LFE20:
 826              		.size	CyDmaChEnable, .-CyDmaChEnable
 827              		.section	.text.CyDmaChDisable,"ax",%progbits
 828              		.align	2
 829              		.global	CyDmaChDisable
 830              		.code	16
 831              		.thumb_func
 832              		.type	CyDmaChDisable, %function
 833              	CyDmaChDisable:
 834              	.LFB21:
 555:Generated_Source\PSoC4/CyDMA.c **** 
 556:Generated_Source\PSoC4/CyDMA.c **** 
 557:Generated_Source\PSoC4/CyDMA.c **** /*******************************************************************************
 558:Generated_Source\PSoC4/CyDMA.c **** * Function Name: CyDmaChDisable
 559:Generated_Source\PSoC4/CyDMA.c **** ********************************************************************************
 560:Generated_Source\PSoC4/CyDMA.c **** *
 561:Generated_Source\PSoC4/CyDMA.c **** * Summary:
 562:Generated_Source\PSoC4/CyDMA.c **** *  Disables the DMA channel.
 563:Generated_Source\PSoC4/CyDMA.c **** *
 564:Generated_Source\PSoC4/CyDMA.c **** * Parameters:
 565:Generated_Source\PSoC4/CyDMA.c **** *  channel: Channel used by this function.
 566:Generated_Source\PSoC4/CyDMA.c **** *                   
 567:Generated_Source\PSoC4/CyDMA.c **** * Return:
 568:Generated_Source\PSoC4/CyDMA.c **** *  None.
 569:Generated_Source\PSoC4/CyDMA.c **** *
 570:Generated_Source\PSoC4/CyDMA.c **** * Side effect:
 571:Generated_Source\PSoC4/CyDMA.c **** *  If this function is called during a DMA transfer the transfer is aborted. 
 572:Generated_Source\PSoC4/CyDMA.c **** *
 573:Generated_Source\PSoC4/CyDMA.c **** *******************************************************************************/
 574:Generated_Source\PSoC4/CyDMA.c **** void CyDmaChDisable(int32 channel)
 575:Generated_Source\PSoC4/CyDMA.c **** {
 835              		.loc 1 575 0
 836              		.cfi_startproc
 837              		@ args = 0, pretend = 0, frame = 8
 838              		@ frame_needed = 0, uses_anonymous_args = 0
 839 0000 00B5     		push	{lr}
 840              		.cfi_def_cfa_offset 4
 841              		.cfi_offset 14, -4
 842 0002 83B0     		sub	sp, sp, #12
 843              		.cfi_def_cfa_offset 16
 844 0004 0190     		str	r0, [sp, #4]
 576:Generated_Source\PSoC4/CyDMA.c ****     CYASSERT((channel >= 0) && (channel < CYDMA_CH_NR));
 845              		.loc 1 576 0
 846 0006 019B     		ldr	r3, [sp, #4]
 847 0008 002B     		cmp	r3, #0
ARM GAS  C:\Users\andrew\AppData\Local\Temp\cc52BSo9.s 			page 26


 848 000a 04DB     		blt	.L86
 849              		.loc 1 576 0 is_stmt 0 discriminator 1
 850 000c 019B     		ldr	r3, [sp, #4]
 851 000e 072B     		cmp	r3, #7
 852 0010 01DC     		bgt	.L86
 853              		.loc 1 576 0 discriminator 3
 854 0012 0123     		movs	r3, #1
 855 0014 00E0     		b	.L87
 856              	.L86:
 857              		.loc 1 576 0 discriminator 4
 858 0016 0023     		movs	r3, #0
 859              	.L87:
 860              		.loc 1 576 0 discriminator 6
 861 0018 002B     		cmp	r3, #0
 862 001a 02D1     		bne	.L88
 863              		.loc 1 576 0 discriminator 7
 864 001c 0020     		movs	r0, #0
 865 001e FFF7FEFF 		bl	CyHalt
 866              	.L88:
 577:Generated_Source\PSoC4/CyDMA.c **** 
 578:Generated_Source\PSoC4/CyDMA.c ****     CYDMA_CH_CTL_BASE.ctl[channel] &= (uint32)~CYDMA_ENABLED;
 867              		.loc 1 578 0 is_stmt 1
 868 0022 0649     		ldr	r1, .L89
 869 0024 054A     		ldr	r2, .L89
 870 0026 019B     		ldr	r3, [sp, #4]
 871 0028 9B00     		lsls	r3, r3, #2
 872 002a 9B58     		ldr	r3, [r3, r2]
 873 002c 5B00     		lsls	r3, r3, #1
 874 002e 5A08     		lsrs	r2, r3, #1
 875 0030 019B     		ldr	r3, [sp, #4]
 876 0032 9B00     		lsls	r3, r3, #2
 877 0034 5A50     		str	r2, [r3, r1]
 579:Generated_Source\PSoC4/CyDMA.c **** }
 878              		.loc 1 579 0
 879 0036 C046     		nop
 880 0038 03B0     		add	sp, sp, #12
 881              		@ sp needed
 882 003a 00BD     		pop	{pc}
 883              	.L90:
 884              		.align	2
 885              	.L89:
 886 003c 80101040 		.word	1074794624
 887              		.cfi_endproc
 888              	.LFE21:
 889              		.size	CyDmaChDisable, .-CyDmaChDisable
 890              		.section	.text.CyDmaTrigger,"ax",%progbits
 891              		.align	2
 892              		.global	CyDmaTrigger
 893              		.code	16
 894              		.thumb_func
 895              		.type	CyDmaTrigger, %function
 896              	CyDmaTrigger:
 897              	.LFB22:
 580:Generated_Source\PSoC4/CyDMA.c **** 
 581:Generated_Source\PSoC4/CyDMA.c **** 
 582:Generated_Source\PSoC4/CyDMA.c **** /*******************************************************************************
 583:Generated_Source\PSoC4/CyDMA.c **** * Function Name: CyDmaTrigger
ARM GAS  C:\Users\andrew\AppData\Local\Temp\cc52BSo9.s 			page 27


 584:Generated_Source\PSoC4/CyDMA.c **** ********************************************************************************
 585:Generated_Source\PSoC4/CyDMA.c **** *
 586:Generated_Source\PSoC4/CyDMA.c **** * Summary:
 587:Generated_Source\PSoC4/CyDMA.c **** *  Triggers the DMA channel, this is useful only for software triggers. This is
 588:Generated_Source\PSoC4/CyDMA.c **** *  not needed when hardware triggers are used.
 589:Generated_Source\PSoC4/CyDMA.c **** *
 590:Generated_Source\PSoC4/CyDMA.c **** * Parameters:
 591:Generated_Source\PSoC4/CyDMA.c **** *  channel: Channel used by this function.
 592:Generated_Source\PSoC4/CyDMA.c **** *                   
 593:Generated_Source\PSoC4/CyDMA.c **** * Return:
 594:Generated_Source\PSoC4/CyDMA.c **** *  None. 
 595:Generated_Source\PSoC4/CyDMA.c **** *
 596:Generated_Source\PSoC4/CyDMA.c **** *******************************************************************************/
 597:Generated_Source\PSoC4/CyDMA.c **** void CyDmaTrigger(int32 channel)
 598:Generated_Source\PSoC4/CyDMA.c **** {
 898              		.loc 1 598 0
 899              		.cfi_startproc
 900              		@ args = 0, pretend = 0, frame = 8
 901              		@ frame_needed = 0, uses_anonymous_args = 0
 902 0000 00B5     		push	{lr}
 903              		.cfi_def_cfa_offset 4
 904              		.cfi_offset 14, -4
 905 0002 83B0     		sub	sp, sp, #12
 906              		.cfi_def_cfa_offset 16
 907 0004 0190     		str	r0, [sp, #4]
 599:Generated_Source\PSoC4/CyDMA.c ****     /* The LUT is device-dependent, thus it is generated during the build process. */
 600:Generated_Source\PSoC4/CyDMA.c ****     static const uint32 trCtlLut[] = {0xC0020000U};
 601:Generated_Source\PSoC4/CyDMA.c **** 
 602:Generated_Source\PSoC4/CyDMA.c ****     CYASSERT((channel >= 0) && (channel < CYDMA_CH_NR));
 908              		.loc 1 602 0
 909 0006 019B     		ldr	r3, [sp, #4]
 910 0008 002B     		cmp	r3, #0
 911 000a 04DB     		blt	.L92
 912              		.loc 1 602 0 is_stmt 0 discriminator 1
 913 000c 019B     		ldr	r3, [sp, #4]
 914 000e 072B     		cmp	r3, #7
 915 0010 01DC     		bgt	.L92
 916              		.loc 1 602 0 discriminator 3
 917 0012 0123     		movs	r3, #1
 918 0014 00E0     		b	.L93
 919              	.L92:
 920              		.loc 1 602 0 discriminator 4
 921 0016 0023     		movs	r3, #0
 922              	.L93:
 923              		.loc 1 602 0 discriminator 6
 924 0018 002B     		cmp	r3, #0
 925 001a 02D1     		bne	.L94
 926              		.loc 1 602 0 discriminator 7
 927 001c 0020     		movs	r0, #0
 928 001e FFF7FEFF 		bl	CyHalt
 929              	.L94:
 603:Generated_Source\PSoC4/CyDMA.c **** 
 604:Generated_Source\PSoC4/CyDMA.c ****     CYDMA_TR_CTL_REG = trCtlLut[(uint32)channel >> CYDMA_TR_GROUP_SHR] | ((uint32)channel & CYDMA_T
 930              		.loc 1 604 0 is_stmt 1
 931 0022 074B     		ldr	r3, .L95
 932 0024 019A     		ldr	r2, [sp, #4]
 933 0026 D108     		lsrs	r1, r2, #3
ARM GAS  C:\Users\andrew\AppData\Local\Temp\cc52BSo9.s 			page 28


 934 0028 064A     		ldr	r2, .L95+4
 935 002a 8900     		lsls	r1, r1, #2
 936 002c 8958     		ldr	r1, [r1, r2]
 937 002e 019A     		ldr	r2, [sp, #4]
 938 0030 0720     		movs	r0, #7
 939 0032 0240     		ands	r2, r0
 940 0034 0A43     		orrs	r2, r1
 941 0036 1A60     		str	r2, [r3]
 605:Generated_Source\PSoC4/CyDMA.c **** }
 942              		.loc 1 605 0
 943 0038 C046     		nop
 944 003a 03B0     		add	sp, sp, #12
 945              		@ sp needed
 946 003c 00BD     		pop	{pc}
 947              	.L96:
 948 003e C046     		.align	2
 949              	.L95:
 950 0040 00060140 		.word	1073808896
 951 0044 00000000 		.word	trCtlLut.5086
 952              		.cfi_endproc
 953              	.LFE22:
 954              		.size	CyDmaTrigger, .-CyDmaTrigger
 955              		.section	.text.CyDmaSetPriority,"ax",%progbits
 956              		.align	2
 957              		.global	CyDmaSetPriority
 958              		.code	16
 959              		.thumb_func
 960              		.type	CyDmaSetPriority, %function
 961              	CyDmaSetPriority:
 962              	.LFB23:
 606:Generated_Source\PSoC4/CyDMA.c **** 
 607:Generated_Source\PSoC4/CyDMA.c **** 
 608:Generated_Source\PSoC4/CyDMA.c **** /*******************************************************************************
 609:Generated_Source\PSoC4/CyDMA.c **** * Function Name: CyDmaSetPriority
 610:Generated_Source\PSoC4/CyDMA.c **** ********************************************************************************
 611:Generated_Source\PSoC4/CyDMA.c **** *
 612:Generated_Source\PSoC4/CyDMA.c **** * Summary:
 613:Generated_Source\PSoC4/CyDMA.c **** *  Sets the priority for the channel.
 614:Generated_Source\PSoC4/CyDMA.c **** *
 615:Generated_Source\PSoC4/CyDMA.c **** * Parameters:
 616:Generated_Source\PSoC4/CyDMA.c **** *  channel:  Channel used by this function
 617:Generated_Source\PSoC4/CyDMA.c **** *  priority: Priority for channel. Priority can be 0,1,2, or 3.
 618:Generated_Source\PSoC4/CyDMA.c **** *            0 is the highest priority.
 619:Generated_Source\PSoC4/CyDMA.c **** *                   
 620:Generated_Source\PSoC4/CyDMA.c **** * Return:
 621:Generated_Source\PSoC4/CyDMA.c **** *  None.
 622:Generated_Source\PSoC4/CyDMA.c **** *
 623:Generated_Source\PSoC4/CyDMA.c **** * Side effect:
 624:Generated_Source\PSoC4/CyDMA.c **** *  This function should not be called while the channel is enabled.
 625:Generated_Source\PSoC4/CyDMA.c **** *
 626:Generated_Source\PSoC4/CyDMA.c **** *******************************************************************************/
 627:Generated_Source\PSoC4/CyDMA.c **** void CyDmaSetPriority(int32 channel, int32 priority)
 628:Generated_Source\PSoC4/CyDMA.c **** {
 963              		.loc 1 628 0
 964              		.cfi_startproc
 965              		@ args = 0, pretend = 0, frame = 16
 966              		@ frame_needed = 0, uses_anonymous_args = 0
ARM GAS  C:\Users\andrew\AppData\Local\Temp\cc52BSo9.s 			page 29


 967 0000 00B5     		push	{lr}
 968              		.cfi_def_cfa_offset 4
 969              		.cfi_offset 14, -4
 970 0002 85B0     		sub	sp, sp, #20
 971              		.cfi_def_cfa_offset 24
 972 0004 0190     		str	r0, [sp, #4]
 973 0006 0091     		str	r1, [sp]
 629:Generated_Source\PSoC4/CyDMA.c ****     uint32 regValue;
 630:Generated_Source\PSoC4/CyDMA.c **** 
 631:Generated_Source\PSoC4/CyDMA.c ****     CYASSERT((channel  >= 0) && (channel  <  CYDMA_CH_NR));
 974              		.loc 1 631 0
 975 0008 019B     		ldr	r3, [sp, #4]
 976 000a 002B     		cmp	r3, #0
 977 000c 04DB     		blt	.L98
 978              		.loc 1 631 0 is_stmt 0 discriminator 1
 979 000e 019B     		ldr	r3, [sp, #4]
 980 0010 072B     		cmp	r3, #7
 981 0012 01DC     		bgt	.L98
 982              		.loc 1 631 0 discriminator 3
 983 0014 0123     		movs	r3, #1
 984 0016 00E0     		b	.L99
 985              	.L98:
 986              		.loc 1 631 0 discriminator 4
 987 0018 0023     		movs	r3, #0
 988              	.L99:
 989              		.loc 1 631 0 discriminator 6
 990 001a 002B     		cmp	r3, #0
 991 001c 02D1     		bne	.L100
 992              		.loc 1 631 0 discriminator 7
 993 001e 0020     		movs	r0, #0
 994 0020 FFF7FEFF 		bl	CyHalt
 995              	.L100:
 632:Generated_Source\PSoC4/CyDMA.c ****     CYASSERT((priority >= 0) && (priority <= CY_DMA_MAX_PRIO));
 996              		.loc 1 632 0 is_stmt 1
 997 0024 009B     		ldr	r3, [sp]
 998 0026 002B     		cmp	r3, #0
 999 0028 04DB     		blt	.L101
 1000              		.loc 1 632 0 is_stmt 0 discriminator 1
 1001 002a 009B     		ldr	r3, [sp]
 1002 002c 032B     		cmp	r3, #3
 1003 002e 01DC     		bgt	.L101
 1004              		.loc 1 632 0 discriminator 3
 1005 0030 0123     		movs	r3, #1
 1006 0032 00E0     		b	.L102
 1007              	.L101:
 1008              		.loc 1 632 0 discriminator 4
 1009 0034 0023     		movs	r3, #0
 1010              	.L102:
 1011              		.loc 1 632 0 discriminator 6
 1012 0036 002B     		cmp	r3, #0
 1013 0038 02D1     		bne	.L103
 1014              		.loc 1 632 0 discriminator 7
 1015 003a 0020     		movs	r0, #0
 1016 003c FFF7FEFF 		bl	CyHalt
 1017              	.L103:
 633:Generated_Source\PSoC4/CyDMA.c **** 
 634:Generated_Source\PSoC4/CyDMA.c ****     regValue = CYDMA_CH_CTL_BASE.ctl[channel] & (uint32)~CYDMA_PRIO;
ARM GAS  C:\Users\andrew\AppData\Local\Temp\cc52BSo9.s 			page 30


 1018              		.loc 1 634 0 is_stmt 1
 1019 0040 084A     		ldr	r2, .L104
 1020 0042 019B     		ldr	r3, [sp, #4]
 1021 0044 9B00     		lsls	r3, r3, #2
 1022 0046 9B58     		ldr	r3, [r3, r2]
 1023 0048 074A     		ldr	r2, .L104+4
 1024 004a 1340     		ands	r3, r2
 1025 004c 0393     		str	r3, [sp, #12]
 635:Generated_Source\PSoC4/CyDMA.c ****     CYDMA_CH_CTL_BASE.ctl[channel] = regValue | (uint32)((uint32)priority << CYDMA_PRIO_POS);
 1026              		.loc 1 635 0
 1027 004e 0549     		ldr	r1, .L104
 1028 0050 009B     		ldr	r3, [sp]
 1029 0052 1A07     		lsls	r2, r3, #28
 1030 0054 039B     		ldr	r3, [sp, #12]
 1031 0056 1A43     		orrs	r2, r3
 1032 0058 019B     		ldr	r3, [sp, #4]
 1033 005a 9B00     		lsls	r3, r3, #2
 1034 005c 5A50     		str	r2, [r3, r1]
 636:Generated_Source\PSoC4/CyDMA.c **** }
 1035              		.loc 1 636 0
 1036 005e C046     		nop
 1037 0060 05B0     		add	sp, sp, #20
 1038              		@ sp needed
 1039 0062 00BD     		pop	{pc}
 1040              	.L105:
 1041              		.align	2
 1042              	.L104:
 1043 0064 80101040 		.word	1074794624
 1044 0068 FFFFFFCF 		.word	-805306369
 1045              		.cfi_endproc
 1046              	.LFE23:
 1047              		.size	CyDmaSetPriority, .-CyDmaSetPriority
 1048              		.section	.text.CyDmaGetPriority,"ax",%progbits
 1049              		.align	2
 1050              		.global	CyDmaGetPriority
 1051              		.code	16
 1052              		.thumb_func
 1053              		.type	CyDmaGetPriority, %function
 1054              	CyDmaGetPriority:
 1055              	.LFB24:
 637:Generated_Source\PSoC4/CyDMA.c **** 
 638:Generated_Source\PSoC4/CyDMA.c **** 
 639:Generated_Source\PSoC4/CyDMA.c **** /*******************************************************************************
 640:Generated_Source\PSoC4/CyDMA.c **** * Function Name: CyDmaGetPriority
 641:Generated_Source\PSoC4/CyDMA.c **** ********************************************************************************
 642:Generated_Source\PSoC4/CyDMA.c **** *
 643:Generated_Source\PSoC4/CyDMA.c **** * Summary:
 644:Generated_Source\PSoC4/CyDMA.c **** *  Gets the priority for the channel.
 645:Generated_Source\PSoC4/CyDMA.c **** *
 646:Generated_Source\PSoC4/CyDMA.c **** * Parameters:
 647:Generated_Source\PSoC4/CyDMA.c **** *  channel: Channel used by this function.
 648:Generated_Source\PSoC4/CyDMA.c **** *                   
 649:Generated_Source\PSoC4/CyDMA.c **** * Return:
 650:Generated_Source\PSoC4/CyDMA.c **** *  Priority for channel. Priority can be 0,1,2, or 3. 0 is the highest priority.
 651:Generated_Source\PSoC4/CyDMA.c **** *
 652:Generated_Source\PSoC4/CyDMA.c **** *******************************************************************************/
 653:Generated_Source\PSoC4/CyDMA.c **** int32 CyDmaGetPriority(int32 channel)
ARM GAS  C:\Users\andrew\AppData\Local\Temp\cc52BSo9.s 			page 31


 654:Generated_Source\PSoC4/CyDMA.c **** {
 1056              		.loc 1 654 0
 1057              		.cfi_startproc
 1058              		@ args = 0, pretend = 0, frame = 16
 1059              		@ frame_needed = 0, uses_anonymous_args = 0
 1060 0000 00B5     		push	{lr}
 1061              		.cfi_def_cfa_offset 4
 1062              		.cfi_offset 14, -4
 1063 0002 85B0     		sub	sp, sp, #20
 1064              		.cfi_def_cfa_offset 24
 1065 0004 0190     		str	r0, [sp, #4]
 655:Generated_Source\PSoC4/CyDMA.c ****     uint32 priority;
 656:Generated_Source\PSoC4/CyDMA.c **** 
 657:Generated_Source\PSoC4/CyDMA.c ****     CYASSERT((channel >= 0) && (channel < CYDMA_CH_NR));
 1066              		.loc 1 657 0
 1067 0006 019B     		ldr	r3, [sp, #4]
 1068 0008 002B     		cmp	r3, #0
 1069 000a 04DB     		blt	.L107
 1070              		.loc 1 657 0 is_stmt 0 discriminator 1
 1071 000c 019B     		ldr	r3, [sp, #4]
 1072 000e 072B     		cmp	r3, #7
 1073 0010 01DC     		bgt	.L107
 1074              		.loc 1 657 0 discriminator 3
 1075 0012 0123     		movs	r3, #1
 1076 0014 00E0     		b	.L108
 1077              	.L107:
 1078              		.loc 1 657 0 discriminator 4
 1079 0016 0023     		movs	r3, #0
 1080              	.L108:
 1081              		.loc 1 657 0 discriminator 6
 1082 0018 002B     		cmp	r3, #0
 1083 001a 02D1     		bne	.L109
 1084              		.loc 1 657 0 discriminator 7
 1085 001c 0020     		movs	r0, #0
 1086 001e FFF7FEFF 		bl	CyHalt
 1087              	.L109:
 658:Generated_Source\PSoC4/CyDMA.c **** 
 659:Generated_Source\PSoC4/CyDMA.c ****     priority = (CYDMA_CH_CTL_BASE.ctl[channel] & CYDMA_PRIO) >> CYDMA_PRIO_POS;
 1088              		.loc 1 659 0 is_stmt 1
 1089 0022 064A     		ldr	r2, .L111
 1090 0024 019B     		ldr	r3, [sp, #4]
 1091 0026 9B00     		lsls	r3, r3, #2
 1092 0028 9A58     		ldr	r2, [r3, r2]
 1093 002a C023     		movs	r3, #192
 1094 002c 9B05     		lsls	r3, r3, #22
 1095 002e 1340     		ands	r3, r2
 1096 0030 1B0F     		lsrs	r3, r3, #28
 1097 0032 0393     		str	r3, [sp, #12]
 660:Generated_Source\PSoC4/CyDMA.c ****     return ((int32)priority);
 1098              		.loc 1 660 0
 1099 0034 039B     		ldr	r3, [sp, #12]
 661:Generated_Source\PSoC4/CyDMA.c **** }
 1100              		.loc 1 661 0
 1101 0036 1800     		movs	r0, r3
 1102 0038 05B0     		add	sp, sp, #20
 1103              		@ sp needed
 1104 003a 00BD     		pop	{pc}
ARM GAS  C:\Users\andrew\AppData\Local\Temp\cc52BSo9.s 			page 32


 1105              	.L112:
 1106              		.align	2
 1107              	.L111:
 1108 003c 80101040 		.word	1074794624
 1109              		.cfi_endproc
 1110              	.LFE24:
 1111              		.size	CyDmaGetPriority, .-CyDmaGetPriority
 1112              		.section	.text.CyDmaSetNextDescriptor,"ax",%progbits
 1113              		.align	2
 1114              		.global	CyDmaSetNextDescriptor
 1115              		.code	16
 1116              		.thumb_func
 1117              		.type	CyDmaSetNextDescriptor, %function
 1118              	CyDmaSetNextDescriptor:
 1119              	.LFB25:
 662:Generated_Source\PSoC4/CyDMA.c **** 
 663:Generated_Source\PSoC4/CyDMA.c **** 
 664:Generated_Source\PSoC4/CyDMA.c **** /*******************************************************************************
 665:Generated_Source\PSoC4/CyDMA.c **** * Function Name: CyDmaSetNextDescriptor
 666:Generated_Source\PSoC4/CyDMA.c **** ********************************************************************************
 667:Generated_Source\PSoC4/CyDMA.c **** *
 668:Generated_Source\PSoC4/CyDMA.c **** * Summary:
 669:Generated_Source\PSoC4/CyDMA.c **** *  Sets the descriptor that should be run the next time the channel is
 670:Generated_Source\PSoC4/CyDMA.c **** *  triggered.
 671:Generated_Source\PSoC4/CyDMA.c **** *
 672:Generated_Source\PSoC4/CyDMA.c **** * Parameters:
 673:Generated_Source\PSoC4/CyDMA.c **** *  channel:    Channel used by this function.
 674:Generated_Source\PSoC4/CyDMA.c **** *  descriptor: Next Descriptor to run (0 or 1).
 675:Generated_Source\PSoC4/CyDMA.c **** *
 676:Generated_Source\PSoC4/CyDMA.c **** * Return:
 677:Generated_Source\PSoC4/CyDMA.c **** *  None.
 678:Generated_Source\PSoC4/CyDMA.c **** *                   
 679:Generated_Source\PSoC4/CyDMA.c **** * Side effect:
 680:Generated_Source\PSoC4/CyDMA.c **** *  This function should not be called while the channel is enabled.
 681:Generated_Source\PSoC4/CyDMA.c **** *
 682:Generated_Source\PSoC4/CyDMA.c **** *******************************************************************************/
 683:Generated_Source\PSoC4/CyDMA.c **** void CyDmaSetNextDescriptor(int32 channel, int32 descriptor)
 684:Generated_Source\PSoC4/CyDMA.c **** {
 1120              		.loc 1 684 0
 1121              		.cfi_startproc
 1122              		@ args = 0, pretend = 0, frame = 16
 1123              		@ frame_needed = 0, uses_anonymous_args = 0
 1124 0000 00B5     		push	{lr}
 1125              		.cfi_def_cfa_offset 4
 1126              		.cfi_offset 14, -4
 1127 0002 85B0     		sub	sp, sp, #20
 1128              		.cfi_def_cfa_offset 24
 1129 0004 0190     		str	r0, [sp, #4]
 1130 0006 0091     		str	r1, [sp]
 685:Generated_Source\PSoC4/CyDMA.c ****     uint32 regValue;
 686:Generated_Source\PSoC4/CyDMA.c **** 
 687:Generated_Source\PSoC4/CyDMA.c ****     CYASSERT((channel    >= 0) && (channel    < CYDMA_CH_NR));
 1131              		.loc 1 687 0
 1132 0008 019B     		ldr	r3, [sp, #4]
 1133 000a 002B     		cmp	r3, #0
 1134 000c 04DB     		blt	.L114
 1135              		.loc 1 687 0 is_stmt 0 discriminator 1
ARM GAS  C:\Users\andrew\AppData\Local\Temp\cc52BSo9.s 			page 33


 1136 000e 019B     		ldr	r3, [sp, #4]
 1137 0010 072B     		cmp	r3, #7
 1138 0012 01DC     		bgt	.L114
 1139              		.loc 1 687 0 discriminator 3
 1140 0014 0123     		movs	r3, #1
 1141 0016 00E0     		b	.L115
 1142              	.L114:
 1143              		.loc 1 687 0 discriminator 4
 1144 0018 0023     		movs	r3, #0
 1145              	.L115:
 1146              		.loc 1 687 0 discriminator 6
 1147 001a 002B     		cmp	r3, #0
 1148 001c 02D1     		bne	.L116
 1149              		.loc 1 687 0 discriminator 7
 1150 001e 0020     		movs	r0, #0
 1151 0020 FFF7FEFF 		bl	CyHalt
 1152              	.L116:
 688:Generated_Source\PSoC4/CyDMA.c ****     CYASSERT((descriptor >= 0) && (descriptor < CYDMA_DESCR_NR));
 1153              		.loc 1 688 0 is_stmt 1
 1154 0024 009B     		ldr	r3, [sp]
 1155 0026 002B     		cmp	r3, #0
 1156 0028 04DB     		blt	.L117
 1157              		.loc 1 688 0 is_stmt 0 discriminator 1
 1158 002a 009B     		ldr	r3, [sp]
 1159 002c 012B     		cmp	r3, #1
 1160 002e 01DC     		bgt	.L117
 1161              		.loc 1 688 0 discriminator 3
 1162 0030 0123     		movs	r3, #1
 1163 0032 00E0     		b	.L118
 1164              	.L117:
 1165              		.loc 1 688 0 discriminator 4
 1166 0034 0023     		movs	r3, #0
 1167              	.L118:
 1168              		.loc 1 688 0 discriminator 6
 1169 0036 002B     		cmp	r3, #0
 1170 0038 02D1     		bne	.L119
 1171              		.loc 1 688 0 discriminator 7
 1172 003a 0020     		movs	r0, #0
 1173 003c FFF7FEFF 		bl	CyHalt
 1174              	.L119:
 689:Generated_Source\PSoC4/CyDMA.c **** 
 690:Generated_Source\PSoC4/CyDMA.c ****     regValue = CYDMA_CH_CTL_BASE.ctl[channel] & (uint32)~CYDMA_DESCRIPTOR;
 1175              		.loc 1 690 0 is_stmt 1
 1176 0040 084A     		ldr	r2, .L120
 1177 0042 019B     		ldr	r3, [sp, #4]
 1178 0044 9B00     		lsls	r3, r3, #2
 1179 0046 9B58     		ldr	r3, [r3, r2]
 1180 0048 074A     		ldr	r2, .L120+4
 1181 004a 1340     		ands	r3, r2
 1182 004c 0393     		str	r3, [sp, #12]
 691:Generated_Source\PSoC4/CyDMA.c ****     CYDMA_CH_CTL_BASE.ctl[channel] = regValue | (uint32)((uint32)descriptor << CYDMA_DESCRIPTOR_POS
 1183              		.loc 1 691 0
 1184 004e 0549     		ldr	r1, .L120
 1185 0050 009B     		ldr	r3, [sp]
 1186 0052 9A07     		lsls	r2, r3, #30
 1187 0054 039B     		ldr	r3, [sp, #12]
 1188 0056 1A43     		orrs	r2, r3
ARM GAS  C:\Users\andrew\AppData\Local\Temp\cc52BSo9.s 			page 34


 1189 0058 019B     		ldr	r3, [sp, #4]
 1190 005a 9B00     		lsls	r3, r3, #2
 1191 005c 5A50     		str	r2, [r3, r1]
 692:Generated_Source\PSoC4/CyDMA.c **** }
 1192              		.loc 1 692 0
 1193 005e C046     		nop
 1194 0060 05B0     		add	sp, sp, #20
 1195              		@ sp needed
 1196 0062 00BD     		pop	{pc}
 1197              	.L121:
 1198              		.align	2
 1199              	.L120:
 1200 0064 80101040 		.word	1074794624
 1201 0068 FFFFFFBF 		.word	-1073741825
 1202              		.cfi_endproc
 1203              	.LFE25:
 1204              		.size	CyDmaSetNextDescriptor, .-CyDmaSetNextDescriptor
 1205              		.section	.text.CyDmaGetNextDescriptor,"ax",%progbits
 1206              		.align	2
 1207              		.global	CyDmaGetNextDescriptor
 1208              		.code	16
 1209              		.thumb_func
 1210              		.type	CyDmaGetNextDescriptor, %function
 1211              	CyDmaGetNextDescriptor:
 1212              	.LFB26:
 693:Generated_Source\PSoC4/CyDMA.c **** 
 694:Generated_Source\PSoC4/CyDMA.c **** 
 695:Generated_Source\PSoC4/CyDMA.c **** /*******************************************************************************
 696:Generated_Source\PSoC4/CyDMA.c **** * Function Name: CyDmaGetNextDescriptor
 697:Generated_Source\PSoC4/CyDMA.c **** ********************************************************************************
 698:Generated_Source\PSoC4/CyDMA.c **** *
 699:Generated_Source\PSoC4/CyDMA.c **** * Summary:
 700:Generated_Source\PSoC4/CyDMA.c **** *  Returns the next descriptor that should be run, as set by 
 701:Generated_Source\PSoC4/CyDMA.c **** *  CyDmaSetNextDescriptor().
 702:Generated_Source\PSoC4/CyDMA.c **** *
 703:Generated_Source\PSoC4/CyDMA.c **** * Parameters:
 704:Generated_Source\PSoC4/CyDMA.c **** *  channel: channel used by this function.
 705:Generated_Source\PSoC4/CyDMA.c **** *                   
 706:Generated_Source\PSoC4/CyDMA.c **** * Return:
 707:Generated_Source\PSoC4/CyDMA.c **** *  Next Descriptor to run (0 or 1).
 708:Generated_Source\PSoC4/CyDMA.c **** *
 709:Generated_Source\PSoC4/CyDMA.c **** *******************************************************************************/
 710:Generated_Source\PSoC4/CyDMA.c **** int32 CyDmaGetNextDescriptor(int32 channel)
 711:Generated_Source\PSoC4/CyDMA.c **** {
 1213              		.loc 1 711 0
 1214              		.cfi_startproc
 1215              		@ args = 0, pretend = 0, frame = 16
 1216              		@ frame_needed = 0, uses_anonymous_args = 0
 1217 0000 00B5     		push	{lr}
 1218              		.cfi_def_cfa_offset 4
 1219              		.cfi_offset 14, -4
 1220 0002 85B0     		sub	sp, sp, #20
 1221              		.cfi_def_cfa_offset 24
 1222 0004 0190     		str	r0, [sp, #4]
 712:Generated_Source\PSoC4/CyDMA.c ****     uint32 nextDescriptor;
 713:Generated_Source\PSoC4/CyDMA.c **** 
 714:Generated_Source\PSoC4/CyDMA.c ****     CYASSERT((channel >= 0) && (channel < CYDMA_CH_NR));
ARM GAS  C:\Users\andrew\AppData\Local\Temp\cc52BSo9.s 			page 35


 1223              		.loc 1 714 0
 1224 0006 019B     		ldr	r3, [sp, #4]
 1225 0008 002B     		cmp	r3, #0
 1226 000a 04DB     		blt	.L123
 1227              		.loc 1 714 0 is_stmt 0 discriminator 1
 1228 000c 019B     		ldr	r3, [sp, #4]
 1229 000e 072B     		cmp	r3, #7
 1230 0010 01DC     		bgt	.L123
 1231              		.loc 1 714 0 discriminator 3
 1232 0012 0123     		movs	r3, #1
 1233 0014 00E0     		b	.L124
 1234              	.L123:
 1235              		.loc 1 714 0 discriminator 4
 1236 0016 0023     		movs	r3, #0
 1237              	.L124:
 1238              		.loc 1 714 0 discriminator 6
 1239 0018 002B     		cmp	r3, #0
 1240 001a 02D1     		bne	.L125
 1241              		.loc 1 714 0 discriminator 7
 1242 001c 0020     		movs	r0, #0
 1243 001e FFF7FEFF 		bl	CyHalt
 1244              	.L125:
 715:Generated_Source\PSoC4/CyDMA.c **** 
 716:Generated_Source\PSoC4/CyDMA.c ****     nextDescriptor = (CYDMA_CH_CTL_BASE.ctl[channel] & CYDMA_DESCRIPTOR) >> CYDMA_DESCRIPTOR_POS;
 1245              		.loc 1 716 0 is_stmt 1
 1246 0022 064A     		ldr	r2, .L127
 1247 0024 019B     		ldr	r3, [sp, #4]
 1248 0026 9B00     		lsls	r3, r3, #2
 1249 0028 9A58     		ldr	r2, [r3, r2]
 1250 002a 8023     		movs	r3, #128
 1251 002c DB05     		lsls	r3, r3, #23
 1252 002e 1340     		ands	r3, r2
 1253 0030 9B0F     		lsrs	r3, r3, #30
 1254 0032 0393     		str	r3, [sp, #12]
 717:Generated_Source\PSoC4/CyDMA.c ****     return ((int32)nextDescriptor);
 1255              		.loc 1 717 0
 1256 0034 039B     		ldr	r3, [sp, #12]
 718:Generated_Source\PSoC4/CyDMA.c **** }
 1257              		.loc 1 718 0
 1258 0036 1800     		movs	r0, r3
 1259 0038 05B0     		add	sp, sp, #20
 1260              		@ sp needed
 1261 003a 00BD     		pop	{pc}
 1262              	.L128:
 1263              		.align	2
 1264              	.L127:
 1265 003c 80101040 		.word	1074794624
 1266              		.cfi_endproc
 1267              	.LFE26:
 1268              		.size	CyDmaGetNextDescriptor, .-CyDmaGetNextDescriptor
 1269              		.section	.text.CyDmaSetConfiguration,"ax",%progbits
 1270              		.align	2
 1271              		.global	CyDmaSetConfiguration
 1272              		.code	16
 1273              		.thumb_func
 1274              		.type	CyDmaSetConfiguration, %function
 1275              	CyDmaSetConfiguration:
ARM GAS  C:\Users\andrew\AppData\Local\Temp\cc52BSo9.s 			page 36


 1276              	.LFB27:
 719:Generated_Source\PSoC4/CyDMA.c **** 
 720:Generated_Source\PSoC4/CyDMA.c **** 
 721:Generated_Source\PSoC4/CyDMA.c **** /*******************************************************************************
 722:Generated_Source\PSoC4/CyDMA.c **** * Function Name: CyDmaSetConfiguration
 723:Generated_Source\PSoC4/CyDMA.c **** ********************************************************************************
 724:Generated_Source\PSoC4/CyDMA.c **** *
 725:Generated_Source\PSoC4/CyDMA.c **** * Summary:
 726:Generated_Source\PSoC4/CyDMA.c **** *  Sets configuration information for the specified descriptor.
 727:Generated_Source\PSoC4/CyDMA.c **** *
 728:Generated_Source\PSoC4/CyDMA.c **** * Parameters:
 729:Generated_Source\PSoC4/CyDMA.c **** *  channel:    DMA channel modified by this function.
 730:Generated_Source\PSoC4/CyDMA.c **** *  descriptor: Descriptor (0 or 1) modified by this function.
 731:Generated_Source\PSoC4/CyDMA.c **** *  config:     Pointer to a configuration structure. Refer to cydma_init_struct
 732:Generated_Source\PSoC4/CyDMA.c **** *              structure definition in CyDMA_P4.h and/or DMA channel datasheet
 733:Generated_Source\PSoC4/CyDMA.c **** *              for more information.
 734:Generated_Source\PSoC4/CyDMA.c **** *                   
 735:Generated_Source\PSoC4/CyDMA.c **** * Return:
 736:Generated_Source\PSoC4/CyDMA.c **** *  None.
 737:Generated_Source\PSoC4/CyDMA.c **** *
 738:Generated_Source\PSoC4/CyDMA.c **** * Side effect:
 739:Generated_Source\PSoC4/CyDMA.c **** *  The status register associated with the specified descriptor is reset to
 740:Generated_Source\PSoC4/CyDMA.c **** *  zero after this function call. This function also validates the descriptor.
 741:Generated_Source\PSoC4/CyDMA.c **** *  This function should not be called while the descriptor is active.
 742:Generated_Source\PSoC4/CyDMA.c **** *  This can be checked by calling CyDmaGetStatus().
 743:Generated_Source\PSoC4/CyDMA.c **** *
 744:Generated_Source\PSoC4/CyDMA.c **** *******************************************************************************/
 745:Generated_Source\PSoC4/CyDMA.c **** void CyDmaSetConfiguration(int32 channel, int32 descriptor, const cydma_init_struct * config)
 746:Generated_Source\PSoC4/CyDMA.c **** {  
 1277              		.loc 1 746 0
 1278              		.cfi_startproc
 1279              		@ args = 0, pretend = 0, frame = 16
 1280              		@ frame_needed = 0, uses_anonymous_args = 0
 1281 0000 00B5     		push	{lr}
 1282              		.cfi_def_cfa_offset 4
 1283              		.cfi_offset 14, -4
 1284 0002 85B0     		sub	sp, sp, #20
 1285              		.cfi_def_cfa_offset 24
 1286 0004 0390     		str	r0, [sp, #12]
 1287 0006 0291     		str	r1, [sp, #8]
 1288 0008 0192     		str	r2, [sp, #4]
 747:Generated_Source\PSoC4/CyDMA.c ****     CYASSERT((channel        >= 0) && (channel         < CYDMA_CH_NR));
 1289              		.loc 1 747 0
 1290 000a 039B     		ldr	r3, [sp, #12]
 1291 000c 002B     		cmp	r3, #0
 1292 000e 04DB     		blt	.L130
 1293              		.loc 1 747 0 is_stmt 0 discriminator 1
 1294 0010 039B     		ldr	r3, [sp, #12]
 1295 0012 072B     		cmp	r3, #7
 1296 0014 01DC     		bgt	.L130
 1297              		.loc 1 747 0 discriminator 3
 1298 0016 0123     		movs	r3, #1
 1299 0018 00E0     		b	.L131
 1300              	.L130:
 1301              		.loc 1 747 0 discriminator 4
 1302 001a 0023     		movs	r3, #0
 1303              	.L131:
ARM GAS  C:\Users\andrew\AppData\Local\Temp\cc52BSo9.s 			page 37


 1304              		.loc 1 747 0 discriminator 6
 1305 001c 002B     		cmp	r3, #0
 1306 001e 02D1     		bne	.L132
 1307              		.loc 1 747 0 discriminator 7
 1308 0020 0020     		movs	r0, #0
 1309 0022 FFF7FEFF 		bl	CyHalt
 1310              	.L132:
 748:Generated_Source\PSoC4/CyDMA.c ****     CYASSERT((descriptor     >= 0) && (descriptor      < CYDMA_DESCR_NR));
 1311              		.loc 1 748 0 is_stmt 1
 1312 0026 029B     		ldr	r3, [sp, #8]
 1313 0028 002B     		cmp	r3, #0
 1314 002a 04DB     		blt	.L133
 1315              		.loc 1 748 0 is_stmt 0 discriminator 1
 1316 002c 029B     		ldr	r3, [sp, #8]
 1317 002e 012B     		cmp	r3, #1
 1318 0030 01DC     		bgt	.L133
 1319              		.loc 1 748 0 discriminator 3
 1320 0032 0123     		movs	r3, #1
 1321 0034 00E0     		b	.L134
 1322              	.L133:
 1323              		.loc 1 748 0 discriminator 4
 1324 0036 0023     		movs	r3, #0
 1325              	.L134:
 1326              		.loc 1 748 0 discriminator 6
 1327 0038 002B     		cmp	r3, #0
 1328 003a 02D1     		bne	.L135
 1329              		.loc 1 748 0 discriminator 7
 1330 003c 0020     		movs	r0, #0
 1331 003e FFF7FEFF 		bl	CyHalt
 1332              	.L135:
 749:Generated_Source\PSoC4/CyDMA.c **** 
 750:Generated_Source\PSoC4/CyDMA.c ****     CYASSERT(0u == (config->dataElementSize     & (uint32)~CYDMA_DATA_SIZE));   
 1333              		.loc 1 750 0 is_stmt 1
 1334 0042 019B     		ldr	r3, [sp, #4]
 1335 0044 1B68     		ldr	r3, [r3]
 1336 0046 3B4A     		ldr	r2, .L146
 1337 0048 1340     		ands	r3, r2
 1338 004a 02D0     		beq	.L136
 1339              		.loc 1 750 0 is_stmt 0 discriminator 1
 1340 004c 0020     		movs	r0, #0
 1341 004e FFF7FEFF 		bl	CyHalt
 1342              	.L136:
 751:Generated_Source\PSoC4/CyDMA.c ****     CYASSERT((config->numDataElements > 0)     && (config->numDataElements <= CYDMA_MAX_DATA_NR));
 1343              		.loc 1 751 0 is_stmt 1
 1344 0052 019B     		ldr	r3, [sp, #4]
 1345 0054 5B68     		ldr	r3, [r3, #4]
 1346 0056 002B     		cmp	r3, #0
 1347 0058 07DD     		ble	.L137
 1348              		.loc 1 751 0 is_stmt 0 discriminator 1
 1349 005a 019B     		ldr	r3, [sp, #4]
 1350 005c 5A68     		ldr	r2, [r3, #4]
 1351 005e 8023     		movs	r3, #128
 1352 0060 5B02     		lsls	r3, r3, #9
 1353 0062 9A42     		cmp	r2, r3
 1354 0064 01DC     		bgt	.L137
 1355              		.loc 1 751 0 discriminator 3
 1356 0066 0123     		movs	r3, #1
ARM GAS  C:\Users\andrew\AppData\Local\Temp\cc52BSo9.s 			page 38


 1357 0068 00E0     		b	.L138
 1358              	.L137:
 1359              		.loc 1 751 0 discriminator 4
 1360 006a 0023     		movs	r3, #0
 1361              	.L138:
 1362              		.loc 1 751 0 discriminator 6
 1363 006c 002B     		cmp	r3, #0
 1364 006e 02D1     		bne	.L139
 1365              		.loc 1 751 0 discriminator 7
 1366 0070 0020     		movs	r0, #0
 1367 0072 FFF7FEFF 		bl	CyHalt
 1368              	.L139:
 752:Generated_Source\PSoC4/CyDMA.c ****     CYASSERT(0u == (config->srcDstTransferWidth & (uint32)~CYDMA_TRANSFER_WIDTH));
 1369              		.loc 1 752 0 is_stmt 1
 1370 0076 019B     		ldr	r3, [sp, #4]
 1371 0078 9B68     		ldr	r3, [r3, #8]
 1372 007a 2F4A     		ldr	r2, .L146+4
 1373 007c 1340     		ands	r3, r2
 1374 007e 02D0     		beq	.L140
 1375              		.loc 1 752 0 is_stmt 0 discriminator 1
 1376 0080 0020     		movs	r0, #0
 1377 0082 FFF7FEFF 		bl	CyHalt
 1378              	.L140:
 753:Generated_Source\PSoC4/CyDMA.c ****     CYASSERT(0u == (config->addressIncrement    & (uint32)~CYDMA_ADDR_INCR));
 1379              		.loc 1 753 0 is_stmt 1
 1380 0086 019B     		ldr	r3, [sp, #4]
 1381 0088 DB68     		ldr	r3, [r3, #12]
 1382 008a 2C4A     		ldr	r2, .L146+8
 1383 008c 1340     		ands	r3, r2
 1384 008e 02D0     		beq	.L141
 1385              		.loc 1 753 0 is_stmt 0 discriminator 1
 1386 0090 0020     		movs	r0, #0
 1387 0092 FFF7FEFF 		bl	CyHalt
 1388              	.L141:
 754:Generated_Source\PSoC4/CyDMA.c ****     CYASSERT(0u == (config->triggerType         & (uint32)~CYDMA_TRIGGER_TYPE));
 1389              		.loc 1 754 0 is_stmt 1
 1390 0096 019B     		ldr	r3, [sp, #4]
 1391 0098 1B69     		ldr	r3, [r3, #16]
 1392 009a 294A     		ldr	r2, .L146+12
 1393 009c 1340     		ands	r3, r2
 1394 009e 02D0     		beq	.L142
 1395              		.loc 1 754 0 is_stmt 0 discriminator 1
 1396 00a0 0020     		movs	r0, #0
 1397 00a2 FFF7FEFF 		bl	CyHalt
 1398              	.L142:
 755:Generated_Source\PSoC4/CyDMA.c ****     CYASSERT(0u == (config->transferMode        & (uint32)~CYDMA_TRANSFER_MODE));
 1399              		.loc 1 755 0 is_stmt 1
 1400 00a6 019B     		ldr	r3, [sp, #4]
 1401 00a8 5B69     		ldr	r3, [r3, #20]
 1402 00aa 9B00     		lsls	r3, r3, #2
 1403 00ac 9B08     		lsrs	r3, r3, #2
 1404 00ae 02D0     		beq	.L143
 1405              		.loc 1 755 0 is_stmt 0 discriminator 1
 1406 00b0 0020     		movs	r0, #0
 1407 00b2 FFF7FEFF 		bl	CyHalt
 1408              	.L143:
 756:Generated_Source\PSoC4/CyDMA.c ****     CYASSERT(0u == (config->preemptable         & (uint32)~CYDMA_PREEMPTABLE));
ARM GAS  C:\Users\andrew\AppData\Local\Temp\cc52BSo9.s 			page 39


 1409              		.loc 1 756 0 is_stmt 1
 1410 00b6 019B     		ldr	r3, [sp, #4]
 1411 00b8 9B69     		ldr	r3, [r3, #24]
 1412 00ba 224A     		ldr	r2, .L146+16
 1413 00bc 1340     		ands	r3, r2
 1414 00be 02D0     		beq	.L144
 1415              		.loc 1 756 0 is_stmt 0 discriminator 1
 1416 00c0 0020     		movs	r0, #0
 1417 00c2 FFF7FEFF 		bl	CyHalt
 1418              	.L144:
 757:Generated_Source\PSoC4/CyDMA.c ****     CYASSERT(0u == (config->actions             & (uint32)~CYDMA_POST_COMPLETE_ACTIONS));
 1419              		.loc 1 757 0 is_stmt 1
 1420 00c6 019B     		ldr	r3, [sp, #4]
 1421 00c8 DB69     		ldr	r3, [r3, #28]
 1422 00ca 1F4A     		ldr	r2, .L146+20
 1423 00cc 1340     		ands	r3, r2
 1424 00ce 02D0     		beq	.L145
 1425              		.loc 1 757 0 is_stmt 0 discriminator 1
 1426 00d0 0020     		movs	r0, #0
 1427 00d2 FFF7FEFF 		bl	CyHalt
 1428              	.L145:
 758:Generated_Source\PSoC4/CyDMA.c ****     
 759:Generated_Source\PSoC4/CyDMA.c ****     CYDMA_DESCR_BASE.descriptor[channel][descriptor].ctl = config->dataElementSize     |
 1429              		.loc 1 759 0 is_stmt 1
 1430 00d6 1D48     		ldr	r0, .L146+24
 1431 00d8 019B     		ldr	r3, [sp, #4]
 1432 00da 1A68     		ldr	r2, [r3]
 760:Generated_Source\PSoC4/CyDMA.c ****                                                   ((uint32)config->numDataElements-1u) |
 1433              		.loc 1 760 0
 1434 00dc 019B     		ldr	r3, [sp, #4]
 1435 00de 5B68     		ldr	r3, [r3, #4]
 1436 00e0 013B     		subs	r3, r3, #1
 759:Generated_Source\PSoC4/CyDMA.c ****                                                   ((uint32)config->numDataElements-1u) |
 1437              		.loc 1 759 0
 1438 00e2 1A43     		orrs	r2, r3
 761:Generated_Source\PSoC4/CyDMA.c ****                                                            config->srcDstTransferWidth |
 1439              		.loc 1 761 0
 1440 00e4 019B     		ldr	r3, [sp, #4]
 1441 00e6 9B68     		ldr	r3, [r3, #8]
 760:Generated_Source\PSoC4/CyDMA.c ****                                                   ((uint32)config->numDataElements-1u) |
 1442              		.loc 1 760 0
 1443 00e8 1A43     		orrs	r2, r3
 762:Generated_Source\PSoC4/CyDMA.c ****                                                            config->addressIncrement    |
 1444              		.loc 1 762 0
 1445 00ea 019B     		ldr	r3, [sp, #4]
 1446 00ec DB68     		ldr	r3, [r3, #12]
 761:Generated_Source\PSoC4/CyDMA.c ****                                                            config->srcDstTransferWidth |
 1447              		.loc 1 761 0
 1448 00ee 1A43     		orrs	r2, r3
 763:Generated_Source\PSoC4/CyDMA.c ****                                                            config->triggerType         |
 1449              		.loc 1 763 0
 1450 00f0 019B     		ldr	r3, [sp, #4]
 1451 00f2 1B69     		ldr	r3, [r3, #16]
 762:Generated_Source\PSoC4/CyDMA.c ****                                                            config->addressIncrement    |
 1452              		.loc 1 762 0
 1453 00f4 1A43     		orrs	r2, r3
 764:Generated_Source\PSoC4/CyDMA.c ****                                                            config->transferMode        |
ARM GAS  C:\Users\andrew\AppData\Local\Temp\cc52BSo9.s 			page 40


 1454              		.loc 1 764 0
 1455 00f6 019B     		ldr	r3, [sp, #4]
 1456 00f8 5B69     		ldr	r3, [r3, #20]
 763:Generated_Source\PSoC4/CyDMA.c ****                                                            config->triggerType         |
 1457              		.loc 1 763 0
 1458 00fa 1A43     		orrs	r2, r3
 765:Generated_Source\PSoC4/CyDMA.c ****                                                            config->preemptable         |
 1459              		.loc 1 765 0
 1460 00fc 019B     		ldr	r3, [sp, #4]
 1461 00fe 9B69     		ldr	r3, [r3, #24]
 764:Generated_Source\PSoC4/CyDMA.c ****                                                            config->transferMode        |
 1462              		.loc 1 764 0
 1463 0100 1A43     		orrs	r2, r3
 766:Generated_Source\PSoC4/CyDMA.c ****                                                            config->actions;
 1464              		.loc 1 766 0
 1465 0102 019B     		ldr	r3, [sp, #4]
 1466 0104 DB69     		ldr	r3, [r3, #28]
 765:Generated_Source\PSoC4/CyDMA.c ****                                                            config->preemptable         |
 1467              		.loc 1 765 0
 1468 0106 1A43     		orrs	r2, r3
 759:Generated_Source\PSoC4/CyDMA.c ****                                                   ((uint32)config->numDataElements-1u) |
 1469              		.loc 1 759 0
 1470 0108 039B     		ldr	r3, [sp, #12]
 1471 010a 5900     		lsls	r1, r3, #1
 1472 010c 029B     		ldr	r3, [sp, #8]
 1473 010e CB18     		adds	r3, r1, r3
 1474 0110 1B01     		lsls	r3, r3, #4
 1475 0112 C318     		adds	r3, r0, r3
 1476 0114 0833     		adds	r3, r3, #8
 1477 0116 1A60     		str	r2, [r3]
 767:Generated_Source\PSoC4/CyDMA.c **** 
 768:Generated_Source\PSoC4/CyDMA.c ****     CYDMA_DESCR_BASE.descriptor[channel][descriptor].status = CYDMA_VALID;
 1478              		.loc 1 768 0
 1479 0118 0C49     		ldr	r1, .L146+24
 1480 011a 039B     		ldr	r3, [sp, #12]
 1481 011c 5A00     		lsls	r2, r3, #1
 1482 011e 029B     		ldr	r3, [sp, #8]
 1483 0120 D318     		adds	r3, r2, r3
 1484 0122 1B01     		lsls	r3, r3, #4
 1485 0124 CB18     		adds	r3, r1, r3
 1486 0126 0C33     		adds	r3, r3, #12
 1487 0128 8022     		movs	r2, #128
 1488 012a 1206     		lsls	r2, r2, #24
 1489 012c 1A60     		str	r2, [r3]
 769:Generated_Source\PSoC4/CyDMA.c **** }
 1490              		.loc 1 769 0
 1491 012e C046     		nop
 1492 0130 05B0     		add	sp, sp, #20
 1493              		@ sp needed
 1494 0132 00BD     		pop	{pc}
 1495              	.L147:
 1496              		.align	2
 1497              	.L146:
 1498 0134 FFFFFCFF 		.word	-196609
 1499 0138 FFFFAFFF 		.word	-5242881
 1500 013c FFFF5FFF 		.word	-10485761
 1501 0140 FFFFFFFC 		.word	-50331649
ARM GAS  C:\Users\andrew\AppData\Local\Temp\cc52BSo9.s 			page 41


 1502 0144 FFFFFFEF 		.word	-268435457
 1503 0148 FFFFFFD3 		.word	-738197505
 1504 014c 00181040 		.word	1074796544
 1505              		.cfi_endproc
 1506              	.LFE27:
 1507              		.size	CyDmaSetConfiguration, .-CyDmaSetConfiguration
 1508              		.section	.text.CyDmaValidateDescriptor,"ax",%progbits
 1509              		.align	2
 1510              		.global	CyDmaValidateDescriptor
 1511              		.code	16
 1512              		.thumb_func
 1513              		.type	CyDmaValidateDescriptor, %function
 1514              	CyDmaValidateDescriptor:
 1515              	.LFB28:
 770:Generated_Source\PSoC4/CyDMA.c **** 
 771:Generated_Source\PSoC4/CyDMA.c **** 
 772:Generated_Source\PSoC4/CyDMA.c **** /*******************************************************************************
 773:Generated_Source\PSoC4/CyDMA.c **** * Function Name: CyDmaValidateDescriptor
 774:Generated_Source\PSoC4/CyDMA.c **** ********************************************************************************
 775:Generated_Source\PSoC4/CyDMA.c **** *
 776:Generated_Source\PSoC4/CyDMA.c **** * Summary:
 777:Generated_Source\PSoC4/CyDMA.c **** *  Validates the specified descriptor after it has been invalidated.
 778:Generated_Source\PSoC4/CyDMA.c **** *
 779:Generated_Source\PSoC4/CyDMA.c **** * Parameters:
 780:Generated_Source\PSoC4/CyDMA.c **** *  channel:    Channel used by this function.
 781:Generated_Source\PSoC4/CyDMA.c **** *  descriptor: Descriptor (0 or 1) modified by this function.
 782:Generated_Source\PSoC4/CyDMA.c **** *                   
 783:Generated_Source\PSoC4/CyDMA.c **** * Return:
 784:Generated_Source\PSoC4/CyDMA.c **** *  None. 
 785:Generated_Source\PSoC4/CyDMA.c **** *
 786:Generated_Source\PSoC4/CyDMA.c **** * Side effect:
 787:Generated_Source\PSoC4/CyDMA.c **** *  The status register associated with the specified descriptor is reset to
 788:Generated_Source\PSoC4/CyDMA.c **** *  zero after this function call.
 789:Generated_Source\PSoC4/CyDMA.c **** *  This function should not be called when the specified descriptor is active
 790:Generated_Source\PSoC4/CyDMA.c **** *  in the DMA transfer engine. This can be checked by calling CyDmaGetStatus().
 791:Generated_Source\PSoC4/CyDMA.c **** *
 792:Generated_Source\PSoC4/CyDMA.c **** *******************************************************************************/
 793:Generated_Source\PSoC4/CyDMA.c **** void CyDmaValidateDescriptor(int32 channel, int32 descriptor)
 794:Generated_Source\PSoC4/CyDMA.c **** {
 1516              		.loc 1 794 0
 1517              		.cfi_startproc
 1518              		@ args = 0, pretend = 0, frame = 8
 1519              		@ frame_needed = 0, uses_anonymous_args = 0
 1520 0000 00B5     		push	{lr}
 1521              		.cfi_def_cfa_offset 4
 1522              		.cfi_offset 14, -4
 1523 0002 83B0     		sub	sp, sp, #12
 1524              		.cfi_def_cfa_offset 16
 1525 0004 0190     		str	r0, [sp, #4]
 1526 0006 0091     		str	r1, [sp]
 795:Generated_Source\PSoC4/CyDMA.c ****     CYASSERT((channel    >= 0) && (channel    < CYDMA_CH_NR));
 1527              		.loc 1 795 0
 1528 0008 019B     		ldr	r3, [sp, #4]
 1529 000a 002B     		cmp	r3, #0
 1530 000c 04DB     		blt	.L149
 1531              		.loc 1 795 0 is_stmt 0 discriminator 1
 1532 000e 019B     		ldr	r3, [sp, #4]
ARM GAS  C:\Users\andrew\AppData\Local\Temp\cc52BSo9.s 			page 42


 1533 0010 072B     		cmp	r3, #7
 1534 0012 01DC     		bgt	.L149
 1535              		.loc 1 795 0 discriminator 3
 1536 0014 0123     		movs	r3, #1
 1537 0016 00E0     		b	.L150
 1538              	.L149:
 1539              		.loc 1 795 0 discriminator 4
 1540 0018 0023     		movs	r3, #0
 1541              	.L150:
 1542              		.loc 1 795 0 discriminator 6
 1543 001a 002B     		cmp	r3, #0
 1544 001c 02D1     		bne	.L151
 1545              		.loc 1 795 0 discriminator 7
 1546 001e 0020     		movs	r0, #0
 1547 0020 FFF7FEFF 		bl	CyHalt
 1548              	.L151:
 796:Generated_Source\PSoC4/CyDMA.c ****     CYASSERT((descriptor >= 0) && (descriptor < CYDMA_DESCR_NR));
 1549              		.loc 1 796 0 is_stmt 1
 1550 0024 009B     		ldr	r3, [sp]
 1551 0026 002B     		cmp	r3, #0
 1552 0028 04DB     		blt	.L152
 1553              		.loc 1 796 0 is_stmt 0 discriminator 1
 1554 002a 009B     		ldr	r3, [sp]
 1555 002c 012B     		cmp	r3, #1
 1556 002e 01DC     		bgt	.L152
 1557              		.loc 1 796 0 discriminator 3
 1558 0030 0123     		movs	r3, #1
 1559 0032 00E0     		b	.L153
 1560              	.L152:
 1561              		.loc 1 796 0 discriminator 4
 1562 0034 0023     		movs	r3, #0
 1563              	.L153:
 1564              		.loc 1 796 0 discriminator 6
 1565 0036 002B     		cmp	r3, #0
 1566 0038 02D1     		bne	.L154
 1567              		.loc 1 796 0 discriminator 7
 1568 003a 0020     		movs	r0, #0
 1569 003c FFF7FEFF 		bl	CyHalt
 1570              	.L154:
 797:Generated_Source\PSoC4/CyDMA.c **** 
 798:Generated_Source\PSoC4/CyDMA.c ****     CYDMA_DESCR_BASE.descriptor[channel][descriptor].status = CYDMA_VALID;
 1571              		.loc 1 798 0 is_stmt 1
 1572 0040 0649     		ldr	r1, .L155
 1573 0042 019B     		ldr	r3, [sp, #4]
 1574 0044 5A00     		lsls	r2, r3, #1
 1575 0046 009B     		ldr	r3, [sp]
 1576 0048 D318     		adds	r3, r2, r3
 1577 004a 1B01     		lsls	r3, r3, #4
 1578 004c CB18     		adds	r3, r1, r3
 1579 004e 0C33     		adds	r3, r3, #12
 1580 0050 8022     		movs	r2, #128
 1581 0052 1206     		lsls	r2, r2, #24
 1582 0054 1A60     		str	r2, [r3]
 799:Generated_Source\PSoC4/CyDMA.c **** }
 1583              		.loc 1 799 0
 1584 0056 C046     		nop
 1585 0058 03B0     		add	sp, sp, #12
ARM GAS  C:\Users\andrew\AppData\Local\Temp\cc52BSo9.s 			page 43


 1586              		@ sp needed
 1587 005a 00BD     		pop	{pc}
 1588              	.L156:
 1589              		.align	2
 1590              	.L155:
 1591 005c 00181040 		.word	1074796544
 1592              		.cfi_endproc
 1593              	.LFE28:
 1594              		.size	CyDmaValidateDescriptor, .-CyDmaValidateDescriptor
 1595              		.section	.text.CyDmaGetDescriptorStatus,"ax",%progbits
 1596              		.align	2
 1597              		.global	CyDmaGetDescriptorStatus
 1598              		.code	16
 1599              		.thumb_func
 1600              		.type	CyDmaGetDescriptorStatus, %function
 1601              	CyDmaGetDescriptorStatus:
 1602              	.LFB29:
 800:Generated_Source\PSoC4/CyDMA.c **** 
 801:Generated_Source\PSoC4/CyDMA.c **** 
 802:Generated_Source\PSoC4/CyDMA.c **** /*******************************************************************************
 803:Generated_Source\PSoC4/CyDMA.c **** * Function Name: CyDmaGetDescriptorStatus
 804:Generated_Source\PSoC4/CyDMA.c **** ********************************************************************************
 805:Generated_Source\PSoC4/CyDMA.c **** *
 806:Generated_Source\PSoC4/CyDMA.c **** * Summary:
 807:Generated_Source\PSoC4/CyDMA.c **** *  Returns the status of the specified descriptor.
 808:Generated_Source\PSoC4/CyDMA.c **** *
 809:Generated_Source\PSoC4/CyDMA.c **** * Parameters:
 810:Generated_Source\PSoC4/CyDMA.c **** *  channel:    Channel used by this function.
 811:Generated_Source\PSoC4/CyDMA.c **** *  descriptor: Descriptor (0 or 1) modified by this function.
 812:Generated_Source\PSoC4/CyDMA.c **** *                   
 813:Generated_Source\PSoC4/CyDMA.c **** * Return:
 814:Generated_Source\PSoC4/CyDMA.c **** *  Returns the contents of the specified descriptors status register. Refer to 
 815:Generated_Source\PSoC4/CyDMA.c **** *  descriptor status register bit definitions in CyDMA_P4.h or the API
 816:Generated_Source\PSoC4/CyDMA.c **** *  description in the DMA channel datasheet for more information.
 817:Generated_Source\PSoC4/CyDMA.c **** *
 818:Generated_Source\PSoC4/CyDMA.c **** *******************************************************************************/
 819:Generated_Source\PSoC4/CyDMA.c **** uint32 CyDmaGetDescriptorStatus(int32 channel, int32 descriptor)
 820:Generated_Source\PSoC4/CyDMA.c **** {
 1603              		.loc 1 820 0
 1604              		.cfi_startproc
 1605              		@ args = 0, pretend = 0, frame = 8
 1606              		@ frame_needed = 0, uses_anonymous_args = 0
 1607 0000 00B5     		push	{lr}
 1608              		.cfi_def_cfa_offset 4
 1609              		.cfi_offset 14, -4
 1610 0002 83B0     		sub	sp, sp, #12
 1611              		.cfi_def_cfa_offset 16
 1612 0004 0190     		str	r0, [sp, #4]
 1613 0006 0091     		str	r1, [sp]
 821:Generated_Source\PSoC4/CyDMA.c ****     CYASSERT((channel    >= 0) && (channel    < CYDMA_CH_NR));
 1614              		.loc 1 821 0
 1615 0008 019B     		ldr	r3, [sp, #4]
 1616 000a 002B     		cmp	r3, #0
 1617 000c 04DB     		blt	.L158
 1618              		.loc 1 821 0 is_stmt 0 discriminator 1
 1619 000e 019B     		ldr	r3, [sp, #4]
 1620 0010 072B     		cmp	r3, #7
ARM GAS  C:\Users\andrew\AppData\Local\Temp\cc52BSo9.s 			page 44


 1621 0012 01DC     		bgt	.L158
 1622              		.loc 1 821 0 discriminator 3
 1623 0014 0123     		movs	r3, #1
 1624 0016 00E0     		b	.L159
 1625              	.L158:
 1626              		.loc 1 821 0 discriminator 4
 1627 0018 0023     		movs	r3, #0
 1628              	.L159:
 1629              		.loc 1 821 0 discriminator 6
 1630 001a 002B     		cmp	r3, #0
 1631 001c 02D1     		bne	.L160
 1632              		.loc 1 821 0 discriminator 7
 1633 001e 0020     		movs	r0, #0
 1634 0020 FFF7FEFF 		bl	CyHalt
 1635              	.L160:
 822:Generated_Source\PSoC4/CyDMA.c ****     CYASSERT((descriptor >= 0) && (descriptor < CYDMA_DESCR_NR));
 1636              		.loc 1 822 0 is_stmt 1
 1637 0024 009B     		ldr	r3, [sp]
 1638 0026 002B     		cmp	r3, #0
 1639 0028 04DB     		blt	.L161
 1640              		.loc 1 822 0 is_stmt 0 discriminator 1
 1641 002a 009B     		ldr	r3, [sp]
 1642 002c 012B     		cmp	r3, #1
 1643 002e 01DC     		bgt	.L161
 1644              		.loc 1 822 0 discriminator 3
 1645 0030 0123     		movs	r3, #1
 1646 0032 00E0     		b	.L162
 1647              	.L161:
 1648              		.loc 1 822 0 discriminator 4
 1649 0034 0023     		movs	r3, #0
 1650              	.L162:
 1651              		.loc 1 822 0 discriminator 6
 1652 0036 002B     		cmp	r3, #0
 1653 0038 02D1     		bne	.L163
 1654              		.loc 1 822 0 discriminator 7
 1655 003a 0020     		movs	r0, #0
 1656 003c FFF7FEFF 		bl	CyHalt
 1657              	.L163:
 823:Generated_Source\PSoC4/CyDMA.c **** 
 824:Generated_Source\PSoC4/CyDMA.c ****     return (CYDMA_DESCR_BASE.descriptor[channel][descriptor].status);
 1658              		.loc 1 824 0 is_stmt 1
 1659 0040 0549     		ldr	r1, .L165
 1660 0042 019B     		ldr	r3, [sp, #4]
 1661 0044 5A00     		lsls	r2, r3, #1
 1662 0046 009B     		ldr	r3, [sp]
 1663 0048 D318     		adds	r3, r2, r3
 1664 004a 1B01     		lsls	r3, r3, #4
 1665 004c CB18     		adds	r3, r1, r3
 1666 004e 0C33     		adds	r3, r3, #12
 1667 0050 1B68     		ldr	r3, [r3]
 825:Generated_Source\PSoC4/CyDMA.c **** }
 1668              		.loc 1 825 0
 1669 0052 1800     		movs	r0, r3
 1670 0054 03B0     		add	sp, sp, #12
 1671              		@ sp needed
 1672 0056 00BD     		pop	{pc}
 1673              	.L166:
ARM GAS  C:\Users\andrew\AppData\Local\Temp\cc52BSo9.s 			page 45


 1674              		.align	2
 1675              	.L165:
 1676 0058 00181040 		.word	1074796544
 1677              		.cfi_endproc
 1678              	.LFE29:
 1679              		.size	CyDmaGetDescriptorStatus, .-CyDmaGetDescriptorStatus
 1680              		.section	.text.CyDmaSetSrcAddress,"ax",%progbits
 1681              		.align	2
 1682              		.global	CyDmaSetSrcAddress
 1683              		.code	16
 1684              		.thumb_func
 1685              		.type	CyDmaSetSrcAddress, %function
 1686              	CyDmaSetSrcAddress:
 1687              	.LFB30:
 826:Generated_Source\PSoC4/CyDMA.c **** 
 827:Generated_Source\PSoC4/CyDMA.c **** 
 828:Generated_Source\PSoC4/CyDMA.c **** /*******************************************************************************
 829:Generated_Source\PSoC4/CyDMA.c **** * Function Name: CyDmaSetSrcAddress
 830:Generated_Source\PSoC4/CyDMA.c **** ********************************************************************************
 831:Generated_Source\PSoC4/CyDMA.c **** *
 832:Generated_Source\PSoC4/CyDMA.c **** * Summary:
 833:Generated_Source\PSoC4/CyDMA.c **** *  Configures the source address for the specified descriptor.
 834:Generated_Source\PSoC4/CyDMA.c **** *
 835:Generated_Source\PSoC4/CyDMA.c **** * Parameters:
 836:Generated_Source\PSoC4/CyDMA.c **** *  channel:    Channel used by this function.
 837:Generated_Source\PSoC4/CyDMA.c **** *  descriptor: Descriptor (0 or 1) modified by this function.
 838:Generated_Source\PSoC4/CyDMA.c **** *  srcAddress: Address of DMA transfer source.
 839:Generated_Source\PSoC4/CyDMA.c **** *                   
 840:Generated_Source\PSoC4/CyDMA.c **** * Return:
 841:Generated_Source\PSoC4/CyDMA.c **** *  None.
 842:Generated_Source\PSoC4/CyDMA.c **** *
 843:Generated_Source\PSoC4/CyDMA.c **** * Side effect:
 844:Generated_Source\PSoC4/CyDMA.c **** *  This function should not be called when the specified descriptor is active
 845:Generated_Source\PSoC4/CyDMA.c **** *  in the DMA transfer engine. This can be checked by calling CyDmaGetStatus(). 
 846:Generated_Source\PSoC4/CyDMA.c **** *
 847:Generated_Source\PSoC4/CyDMA.c **** *******************************************************************************/
 848:Generated_Source\PSoC4/CyDMA.c **** void CyDmaSetSrcAddress(int32 channel, int32 descriptor, void * srcAddress)
 849:Generated_Source\PSoC4/CyDMA.c **** {
 1688              		.loc 1 849 0
 1689              		.cfi_startproc
 1690              		@ args = 0, pretend = 0, frame = 16
 1691              		@ frame_needed = 0, uses_anonymous_args = 0
 1692 0000 00B5     		push	{lr}
 1693              		.cfi_def_cfa_offset 4
 1694              		.cfi_offset 14, -4
 1695 0002 85B0     		sub	sp, sp, #20
 1696              		.cfi_def_cfa_offset 24
 1697 0004 0390     		str	r0, [sp, #12]
 1698 0006 0291     		str	r1, [sp, #8]
 1699 0008 0192     		str	r2, [sp, #4]
 850:Generated_Source\PSoC4/CyDMA.c ****     CYASSERT((channel    >= 0) && (channel    < CYDMA_CH_NR));
 1700              		.loc 1 850 0
 1701 000a 039B     		ldr	r3, [sp, #12]
 1702 000c 002B     		cmp	r3, #0
 1703 000e 04DB     		blt	.L168
 1704              		.loc 1 850 0 is_stmt 0 discriminator 1
 1705 0010 039B     		ldr	r3, [sp, #12]
ARM GAS  C:\Users\andrew\AppData\Local\Temp\cc52BSo9.s 			page 46


 1706 0012 072B     		cmp	r3, #7
 1707 0014 01DC     		bgt	.L168
 1708              		.loc 1 850 0 discriminator 3
 1709 0016 0123     		movs	r3, #1
 1710 0018 00E0     		b	.L169
 1711              	.L168:
 1712              		.loc 1 850 0 discriminator 4
 1713 001a 0023     		movs	r3, #0
 1714              	.L169:
 1715              		.loc 1 850 0 discriminator 6
 1716 001c 002B     		cmp	r3, #0
 1717 001e 02D1     		bne	.L170
 1718              		.loc 1 850 0 discriminator 7
 1719 0020 0020     		movs	r0, #0
 1720 0022 FFF7FEFF 		bl	CyHalt
 1721              	.L170:
 851:Generated_Source\PSoC4/CyDMA.c ****     CYASSERT((descriptor >= 0) && (descriptor < CYDMA_DESCR_NR));
 1722              		.loc 1 851 0 is_stmt 1
 1723 0026 029B     		ldr	r3, [sp, #8]
 1724 0028 002B     		cmp	r3, #0
 1725 002a 04DB     		blt	.L171
 1726              		.loc 1 851 0 is_stmt 0 discriminator 1
 1727 002c 029B     		ldr	r3, [sp, #8]
 1728 002e 012B     		cmp	r3, #1
 1729 0030 01DC     		bgt	.L171
 1730              		.loc 1 851 0 discriminator 3
 1731 0032 0123     		movs	r3, #1
 1732 0034 00E0     		b	.L172
 1733              	.L171:
 1734              		.loc 1 851 0 discriminator 4
 1735 0036 0023     		movs	r3, #0
 1736              	.L172:
 1737              		.loc 1 851 0 discriminator 6
 1738 0038 002B     		cmp	r3, #0
 1739 003a 02D1     		bne	.L173
 1740              		.loc 1 851 0 discriminator 7
 1741 003c 0020     		movs	r0, #0
 1742 003e FFF7FEFF 		bl	CyHalt
 1743              	.L173:
 852:Generated_Source\PSoC4/CyDMA.c **** 
 853:Generated_Source\PSoC4/CyDMA.c ****     CYDMA_DESCR_BASE.descriptor[channel][descriptor].src = srcAddress;
 1744              		.loc 1 853 0 is_stmt 1
 1745 0042 0549     		ldr	r1, .L174
 1746 0044 039B     		ldr	r3, [sp, #12]
 1747 0046 5A00     		lsls	r2, r3, #1
 1748 0048 029B     		ldr	r3, [sp, #8]
 1749 004a D318     		adds	r3, r2, r3
 1750 004c 1B01     		lsls	r3, r3, #4
 1751 004e 019A     		ldr	r2, [sp, #4]
 1752 0050 5A50     		str	r2, [r3, r1]
 854:Generated_Source\PSoC4/CyDMA.c **** }
 1753              		.loc 1 854 0
 1754 0052 C046     		nop
 1755 0054 05B0     		add	sp, sp, #20
 1756              		@ sp needed
 1757 0056 00BD     		pop	{pc}
 1758              	.L175:
ARM GAS  C:\Users\andrew\AppData\Local\Temp\cc52BSo9.s 			page 47


 1759              		.align	2
 1760              	.L174:
 1761 0058 00181040 		.word	1074796544
 1762              		.cfi_endproc
 1763              	.LFE30:
 1764              		.size	CyDmaSetSrcAddress, .-CyDmaSetSrcAddress
 1765              		.section	.text.CyDmaGetSrcAddress,"ax",%progbits
 1766              		.align	2
 1767              		.global	CyDmaGetSrcAddress
 1768              		.code	16
 1769              		.thumb_func
 1770              		.type	CyDmaGetSrcAddress, %function
 1771              	CyDmaGetSrcAddress:
 1772              	.LFB31:
 855:Generated_Source\PSoC4/CyDMA.c **** 
 856:Generated_Source\PSoC4/CyDMA.c **** 
 857:Generated_Source\PSoC4/CyDMA.c **** /*******************************************************************************
 858:Generated_Source\PSoC4/CyDMA.c **** * Function Name: CyDmaGetSrcAddress
 859:Generated_Source\PSoC4/CyDMA.c **** ********************************************************************************
 860:Generated_Source\PSoC4/CyDMA.c **** *
 861:Generated_Source\PSoC4/CyDMA.c **** * Summary:
 862:Generated_Source\PSoC4/CyDMA.c **** *  Returns the source address for the specified descriptor, set by 
 863:Generated_Source\PSoC4/CyDMA.c **** *  CyDmaSetSrcAddress().
 864:Generated_Source\PSoC4/CyDMA.c **** *
 865:Generated_Source\PSoC4/CyDMA.c **** * Parameters:
 866:Generated_Source\PSoC4/CyDMA.c **** *  channel:    Channel used by this function.
 867:Generated_Source\PSoC4/CyDMA.c **** *  descriptor: Specifies descriptor (0 or 1) used by this function.
 868:Generated_Source\PSoC4/CyDMA.c **** *                   
 869:Generated_Source\PSoC4/CyDMA.c **** * Return:
 870:Generated_Source\PSoC4/CyDMA.c **** *  Source address written to specified descriptor.
 871:Generated_Source\PSoC4/CyDMA.c **** *
 872:Generated_Source\PSoC4/CyDMA.c **** *******************************************************************************/
 873:Generated_Source\PSoC4/CyDMA.c **** void * CyDmaGetSrcAddress(int32 channel, int32 descriptor)
 874:Generated_Source\PSoC4/CyDMA.c **** {
 1773              		.loc 1 874 0
 1774              		.cfi_startproc
 1775              		@ args = 0, pretend = 0, frame = 8
 1776              		@ frame_needed = 0, uses_anonymous_args = 0
 1777 0000 00B5     		push	{lr}
 1778              		.cfi_def_cfa_offset 4
 1779              		.cfi_offset 14, -4
 1780 0002 83B0     		sub	sp, sp, #12
 1781              		.cfi_def_cfa_offset 16
 1782 0004 0190     		str	r0, [sp, #4]
 1783 0006 0091     		str	r1, [sp]
 875:Generated_Source\PSoC4/CyDMA.c ****     CYASSERT((channel    >= 0) && (channel    < CYDMA_CH_NR));
 1784              		.loc 1 875 0
 1785 0008 019B     		ldr	r3, [sp, #4]
 1786 000a 002B     		cmp	r3, #0
 1787 000c 04DB     		blt	.L177
 1788              		.loc 1 875 0 is_stmt 0 discriminator 1
 1789 000e 019B     		ldr	r3, [sp, #4]
 1790 0010 072B     		cmp	r3, #7
 1791 0012 01DC     		bgt	.L177
 1792              		.loc 1 875 0 discriminator 3
 1793 0014 0123     		movs	r3, #1
 1794 0016 00E0     		b	.L178
ARM GAS  C:\Users\andrew\AppData\Local\Temp\cc52BSo9.s 			page 48


 1795              	.L177:
 1796              		.loc 1 875 0 discriminator 4
 1797 0018 0023     		movs	r3, #0
 1798              	.L178:
 1799              		.loc 1 875 0 discriminator 6
 1800 001a 002B     		cmp	r3, #0
 1801 001c 02D1     		bne	.L179
 1802              		.loc 1 875 0 discriminator 7
 1803 001e 0020     		movs	r0, #0
 1804 0020 FFF7FEFF 		bl	CyHalt
 1805              	.L179:
 876:Generated_Source\PSoC4/CyDMA.c ****     CYASSERT((descriptor >= 0) && (descriptor < CYDMA_DESCR_NR));
 1806              		.loc 1 876 0 is_stmt 1
 1807 0024 009B     		ldr	r3, [sp]
 1808 0026 002B     		cmp	r3, #0
 1809 0028 04DB     		blt	.L180
 1810              		.loc 1 876 0 is_stmt 0 discriminator 1
 1811 002a 009B     		ldr	r3, [sp]
 1812 002c 012B     		cmp	r3, #1
 1813 002e 01DC     		bgt	.L180
 1814              		.loc 1 876 0 discriminator 3
 1815 0030 0123     		movs	r3, #1
 1816 0032 00E0     		b	.L181
 1817              	.L180:
 1818              		.loc 1 876 0 discriminator 4
 1819 0034 0023     		movs	r3, #0
 1820              	.L181:
 1821              		.loc 1 876 0 discriminator 6
 1822 0036 002B     		cmp	r3, #0
 1823 0038 02D1     		bne	.L182
 1824              		.loc 1 876 0 discriminator 7
 1825 003a 0020     		movs	r0, #0
 1826 003c FFF7FEFF 		bl	CyHalt
 1827              	.L182:
 877:Generated_Source\PSoC4/CyDMA.c **** 
 878:Generated_Source\PSoC4/CyDMA.c ****     return (CYDMA_DESCR_BASE.descriptor[channel][descriptor].src);
 1828              		.loc 1 878 0 is_stmt 1
 1829 0040 0449     		ldr	r1, .L184
 1830 0042 019B     		ldr	r3, [sp, #4]
 1831 0044 5A00     		lsls	r2, r3, #1
 1832 0046 009B     		ldr	r3, [sp]
 1833 0048 D318     		adds	r3, r2, r3
 1834 004a 1B01     		lsls	r3, r3, #4
 1835 004c 5B58     		ldr	r3, [r3, r1]
 879:Generated_Source\PSoC4/CyDMA.c **** }
 1836              		.loc 1 879 0
 1837 004e 1800     		movs	r0, r3
 1838 0050 03B0     		add	sp, sp, #12
 1839              		@ sp needed
 1840 0052 00BD     		pop	{pc}
 1841              	.L185:
 1842              		.align	2
 1843              	.L184:
 1844 0054 00181040 		.word	1074796544
 1845              		.cfi_endproc
 1846              	.LFE31:
 1847              		.size	CyDmaGetSrcAddress, .-CyDmaGetSrcAddress
ARM GAS  C:\Users\andrew\AppData\Local\Temp\cc52BSo9.s 			page 49


 1848              		.section	.text.CyDmaSetDstAddress,"ax",%progbits
 1849              		.align	2
 1850              		.global	CyDmaSetDstAddress
 1851              		.code	16
 1852              		.thumb_func
 1853              		.type	CyDmaSetDstAddress, %function
 1854              	CyDmaSetDstAddress:
 1855              	.LFB32:
 880:Generated_Source\PSoC4/CyDMA.c **** 
 881:Generated_Source\PSoC4/CyDMA.c **** 
 882:Generated_Source\PSoC4/CyDMA.c **** /*******************************************************************************
 883:Generated_Source\PSoC4/CyDMA.c **** * Function Name: CyDmaSetDstAddress
 884:Generated_Source\PSoC4/CyDMA.c **** ********************************************************************************
 885:Generated_Source\PSoC4/CyDMA.c **** *
 886:Generated_Source\PSoC4/CyDMA.c **** * Summary:
 887:Generated_Source\PSoC4/CyDMA.c **** *  Configures the destination address for the specified descriptor.
 888:Generated_Source\PSoC4/CyDMA.c **** *
 889:Generated_Source\PSoC4/CyDMA.c **** * Parameters:
 890:Generated_Source\PSoC4/CyDMA.c **** *  channel:    Channel used by this function.
 891:Generated_Source\PSoC4/CyDMA.c **** *  descriptor: Descriptor (0 or 1) modified by this function.
 892:Generated_Source\PSoC4/CyDMA.c **** *  dstAddress: Address of DMA transfer destination.
 893:Generated_Source\PSoC4/CyDMA.c **** *                   
 894:Generated_Source\PSoC4/CyDMA.c **** * Return:
 895:Generated_Source\PSoC4/CyDMA.c **** *  None.
 896:Generated_Source\PSoC4/CyDMA.c **** *
 897:Generated_Source\PSoC4/CyDMA.c **** * Side effect:
 898:Generated_Source\PSoC4/CyDMA.c **** *  This function should not be called when the specified descriptor is active
 899:Generated_Source\PSoC4/CyDMA.c **** *  in the DMA transfer engine. This can be checked by calling CyDmaGetStatus(). 
 900:Generated_Source\PSoC4/CyDMA.c **** *
 901:Generated_Source\PSoC4/CyDMA.c **** *******************************************************************************/
 902:Generated_Source\PSoC4/CyDMA.c **** void CyDmaSetDstAddress(int32 channel, int32 descriptor, void * dstAddress)
 903:Generated_Source\PSoC4/CyDMA.c **** {
 1856              		.loc 1 903 0
 1857              		.cfi_startproc
 1858              		@ args = 0, pretend = 0, frame = 16
 1859              		@ frame_needed = 0, uses_anonymous_args = 0
 1860 0000 00B5     		push	{lr}
 1861              		.cfi_def_cfa_offset 4
 1862              		.cfi_offset 14, -4
 1863 0002 85B0     		sub	sp, sp, #20
 1864              		.cfi_def_cfa_offset 24
 1865 0004 0390     		str	r0, [sp, #12]
 1866 0006 0291     		str	r1, [sp, #8]
 1867 0008 0192     		str	r2, [sp, #4]
 904:Generated_Source\PSoC4/CyDMA.c ****     CYASSERT((channel    >= 0) && (channel    < CYDMA_CH_NR));
 1868              		.loc 1 904 0
 1869 000a 039B     		ldr	r3, [sp, #12]
 1870 000c 002B     		cmp	r3, #0
 1871 000e 04DB     		blt	.L187
 1872              		.loc 1 904 0 is_stmt 0 discriminator 1
 1873 0010 039B     		ldr	r3, [sp, #12]
 1874 0012 072B     		cmp	r3, #7
 1875 0014 01DC     		bgt	.L187
 1876              		.loc 1 904 0 discriminator 3
 1877 0016 0123     		movs	r3, #1
 1878 0018 00E0     		b	.L188
 1879              	.L187:
ARM GAS  C:\Users\andrew\AppData\Local\Temp\cc52BSo9.s 			page 50


 1880              		.loc 1 904 0 discriminator 4
 1881 001a 0023     		movs	r3, #0
 1882              	.L188:
 1883              		.loc 1 904 0 discriminator 6
 1884 001c 002B     		cmp	r3, #0
 1885 001e 02D1     		bne	.L189
 1886              		.loc 1 904 0 discriminator 7
 1887 0020 0020     		movs	r0, #0
 1888 0022 FFF7FEFF 		bl	CyHalt
 1889              	.L189:
 905:Generated_Source\PSoC4/CyDMA.c ****     CYASSERT((descriptor >= 0) && (descriptor < CYDMA_DESCR_NR));
 1890              		.loc 1 905 0 is_stmt 1
 1891 0026 029B     		ldr	r3, [sp, #8]
 1892 0028 002B     		cmp	r3, #0
 1893 002a 04DB     		blt	.L190
 1894              		.loc 1 905 0 is_stmt 0 discriminator 1
 1895 002c 029B     		ldr	r3, [sp, #8]
 1896 002e 012B     		cmp	r3, #1
 1897 0030 01DC     		bgt	.L190
 1898              		.loc 1 905 0 discriminator 3
 1899 0032 0123     		movs	r3, #1
 1900 0034 00E0     		b	.L191
 1901              	.L190:
 1902              		.loc 1 905 0 discriminator 4
 1903 0036 0023     		movs	r3, #0
 1904              	.L191:
 1905              		.loc 1 905 0 discriminator 6
 1906 0038 002B     		cmp	r3, #0
 1907 003a 02D1     		bne	.L192
 1908              		.loc 1 905 0 discriminator 7
 1909 003c 0020     		movs	r0, #0
 1910 003e FFF7FEFF 		bl	CyHalt
 1911              	.L192:
 906:Generated_Source\PSoC4/CyDMA.c **** 
 907:Generated_Source\PSoC4/CyDMA.c ****     CYDMA_DESCR_BASE.descriptor[channel][descriptor].dst = dstAddress;
 1912              		.loc 1 907 0 is_stmt 1
 1913 0042 0649     		ldr	r1, .L193
 1914 0044 039B     		ldr	r3, [sp, #12]
 1915 0046 5A00     		lsls	r2, r3, #1
 1916 0048 029B     		ldr	r3, [sp, #8]
 1917 004a D318     		adds	r3, r2, r3
 1918 004c 1B01     		lsls	r3, r3, #4
 1919 004e CB18     		adds	r3, r1, r3
 1920 0050 0433     		adds	r3, r3, #4
 1921 0052 019A     		ldr	r2, [sp, #4]
 1922 0054 1A60     		str	r2, [r3]
 908:Generated_Source\PSoC4/CyDMA.c **** }
 1923              		.loc 1 908 0
 1924 0056 C046     		nop
 1925 0058 05B0     		add	sp, sp, #20
 1926              		@ sp needed
 1927 005a 00BD     		pop	{pc}
 1928              	.L194:
 1929              		.align	2
 1930              	.L193:
 1931 005c 00181040 		.word	1074796544
 1932              		.cfi_endproc
ARM GAS  C:\Users\andrew\AppData\Local\Temp\cc52BSo9.s 			page 51


 1933              	.LFE32:
 1934              		.size	CyDmaSetDstAddress, .-CyDmaSetDstAddress
 1935              		.section	.text.CyDmaGetDstAddress,"ax",%progbits
 1936              		.align	2
 1937              		.global	CyDmaGetDstAddress
 1938              		.code	16
 1939              		.thumb_func
 1940              		.type	CyDmaGetDstAddress, %function
 1941              	CyDmaGetDstAddress:
 1942              	.LFB33:
 909:Generated_Source\PSoC4/CyDMA.c **** 
 910:Generated_Source\PSoC4/CyDMA.c **** 
 911:Generated_Source\PSoC4/CyDMA.c **** /*******************************************************************************
 912:Generated_Source\PSoC4/CyDMA.c **** * Function Name: CyDmaGetDstAddress
 913:Generated_Source\PSoC4/CyDMA.c **** ********************************************************************************
 914:Generated_Source\PSoC4/CyDMA.c **** *
 915:Generated_Source\PSoC4/CyDMA.c **** * Summary:
 916:Generated_Source\PSoC4/CyDMA.c **** *  Returns the destination address for the specified descriptor, set by 
 917:Generated_Source\PSoC4/CyDMA.c **** *  CyDmaSetDstAddress().
 918:Generated_Source\PSoC4/CyDMA.c **** *
 919:Generated_Source\PSoC4/CyDMA.c **** * Parameters:
 920:Generated_Source\PSoC4/CyDMA.c **** *  channel:    Channel used by this function.
 921:Generated_Source\PSoC4/CyDMA.c **** *  descriptor: Specifies descriptor (0 or 1) used by this function.
 922:Generated_Source\PSoC4/CyDMA.c **** *                   
 923:Generated_Source\PSoC4/CyDMA.c **** * Return:
 924:Generated_Source\PSoC4/CyDMA.c **** *  Destination address written to specified descriptor.
 925:Generated_Source\PSoC4/CyDMA.c **** *
 926:Generated_Source\PSoC4/CyDMA.c **** *******************************************************************************/
 927:Generated_Source\PSoC4/CyDMA.c **** void * CyDmaGetDstAddress(int32 channel, int32 descriptor)
 928:Generated_Source\PSoC4/CyDMA.c **** {
 1943              		.loc 1 928 0
 1944              		.cfi_startproc
 1945              		@ args = 0, pretend = 0, frame = 8
 1946              		@ frame_needed = 0, uses_anonymous_args = 0
 1947 0000 00B5     		push	{lr}
 1948              		.cfi_def_cfa_offset 4
 1949              		.cfi_offset 14, -4
 1950 0002 83B0     		sub	sp, sp, #12
 1951              		.cfi_def_cfa_offset 16
 1952 0004 0190     		str	r0, [sp, #4]
 1953 0006 0091     		str	r1, [sp]
 929:Generated_Source\PSoC4/CyDMA.c ****     CYASSERT((channel    >= 0) && (channel    < CYDMA_CH_NR));
 1954              		.loc 1 929 0
 1955 0008 019B     		ldr	r3, [sp, #4]
 1956 000a 002B     		cmp	r3, #0
 1957 000c 04DB     		blt	.L196
 1958              		.loc 1 929 0 is_stmt 0 discriminator 1
 1959 000e 019B     		ldr	r3, [sp, #4]
 1960 0010 072B     		cmp	r3, #7
 1961 0012 01DC     		bgt	.L196
 1962              		.loc 1 929 0 discriminator 3
 1963 0014 0123     		movs	r3, #1
 1964 0016 00E0     		b	.L197
 1965              	.L196:
 1966              		.loc 1 929 0 discriminator 4
 1967 0018 0023     		movs	r3, #0
 1968              	.L197:
ARM GAS  C:\Users\andrew\AppData\Local\Temp\cc52BSo9.s 			page 52


 1969              		.loc 1 929 0 discriminator 6
 1970 001a 002B     		cmp	r3, #0
 1971 001c 02D1     		bne	.L198
 1972              		.loc 1 929 0 discriminator 7
 1973 001e 0020     		movs	r0, #0
 1974 0020 FFF7FEFF 		bl	CyHalt
 1975              	.L198:
 930:Generated_Source\PSoC4/CyDMA.c ****     CYASSERT((descriptor >= 0) && (descriptor < CYDMA_DESCR_NR));
 1976              		.loc 1 930 0 is_stmt 1
 1977 0024 009B     		ldr	r3, [sp]
 1978 0026 002B     		cmp	r3, #0
 1979 0028 04DB     		blt	.L199
 1980              		.loc 1 930 0 is_stmt 0 discriminator 1
 1981 002a 009B     		ldr	r3, [sp]
 1982 002c 012B     		cmp	r3, #1
 1983 002e 01DC     		bgt	.L199
 1984              		.loc 1 930 0 discriminator 3
 1985 0030 0123     		movs	r3, #1
 1986 0032 00E0     		b	.L200
 1987              	.L199:
 1988              		.loc 1 930 0 discriminator 4
 1989 0034 0023     		movs	r3, #0
 1990              	.L200:
 1991              		.loc 1 930 0 discriminator 6
 1992 0036 002B     		cmp	r3, #0
 1993 0038 02D1     		bne	.L201
 1994              		.loc 1 930 0 discriminator 7
 1995 003a 0020     		movs	r0, #0
 1996 003c FFF7FEFF 		bl	CyHalt
 1997              	.L201:
 931:Generated_Source\PSoC4/CyDMA.c **** 
 932:Generated_Source\PSoC4/CyDMA.c ****     return (CYDMA_DESCR_BASE.descriptor[channel][descriptor].dst);
 1998              		.loc 1 932 0 is_stmt 1
 1999 0040 0549     		ldr	r1, .L203
 2000 0042 019B     		ldr	r3, [sp, #4]
 2001 0044 5A00     		lsls	r2, r3, #1
 2002 0046 009B     		ldr	r3, [sp]
 2003 0048 D318     		adds	r3, r2, r3
 2004 004a 1B01     		lsls	r3, r3, #4
 2005 004c CB18     		adds	r3, r1, r3
 2006 004e 0433     		adds	r3, r3, #4
 2007 0050 1B68     		ldr	r3, [r3]
 933:Generated_Source\PSoC4/CyDMA.c **** }
 2008              		.loc 1 933 0
 2009 0052 1800     		movs	r0, r3
 2010 0054 03B0     		add	sp, sp, #12
 2011              		@ sp needed
 2012 0056 00BD     		pop	{pc}
 2013              	.L204:
 2014              		.align	2
 2015              	.L203:
 2016 0058 00181040 		.word	1074796544
 2017              		.cfi_endproc
 2018              	.LFE33:
 2019              		.size	CyDmaGetDstAddress, .-CyDmaGetDstAddress
 2020              		.section	.text.CyDmaSetDataElementSize,"ax",%progbits
 2021              		.align	2
ARM GAS  C:\Users\andrew\AppData\Local\Temp\cc52BSo9.s 			page 53


 2022              		.global	CyDmaSetDataElementSize
 2023              		.code	16
 2024              		.thumb_func
 2025              		.type	CyDmaSetDataElementSize, %function
 2026              	CyDmaSetDataElementSize:
 2027              	.LFB34:
 934:Generated_Source\PSoC4/CyDMA.c **** 
 935:Generated_Source\PSoC4/CyDMA.c **** /*******************************************************************************
 936:Generated_Source\PSoC4/CyDMA.c **** * Function Name: CyDmaSetDataElementSize
 937:Generated_Source\PSoC4/CyDMA.c **** ********************************************************************************
 938:Generated_Source\PSoC4/CyDMA.c **** *
 939:Generated_Source\PSoC4/CyDMA.c **** * Summary:
 940:Generated_Source\PSoC4/CyDMA.c **** *  Sets the data element size for the specified descriptor.
 941:Generated_Source\PSoC4/CyDMA.c **** *
 942:Generated_Source\PSoC4/CyDMA.c **** * Parameters:
 943:Generated_Source\PSoC4/CyDMA.c **** *  channel:         Channel used by this function.
 944:Generated_Source\PSoC4/CyDMA.c **** *  descriptor:      Descriptor (0 or 1) modified by this function.
 945:Generated_Source\PSoC4/CyDMA.c **** *  dataElementSize: Specifies the size of the data element. The DMA transfer
 946:Generated_Source\PSoC4/CyDMA.c **** *                   engine transfers one data element at a time. How these
 947:Generated_Source\PSoC4/CyDMA.c **** *                   transfers occur is controlled by the transfer mode.
 948:Generated_Source\PSoC4/CyDMA.c **** *                   Refer to the API bit field definitions in CyDMA_P4.h
 949:Generated_Source\PSoC4/CyDMA.c **** *                   or API description in the DMA channel datasheet for the 
 950:Generated_Source\PSoC4/CyDMA.c **** *                   parameter options.
 951:Generated_Source\PSoC4/CyDMA.c **** *
 952:Generated_Source\PSoC4/CyDMA.c **** * Return:
 953:Generated_Source\PSoC4/CyDMA.c **** *  None.
 954:Generated_Source\PSoC4/CyDMA.c **** *
 955:Generated_Source\PSoC4/CyDMA.c **** * Side effect:
 956:Generated_Source\PSoC4/CyDMA.c **** *  This function should not be called when the specified descriptor is active
 957:Generated_Source\PSoC4/CyDMA.c **** *  in the DMA transfer engine. This can be checked by calling CyDmaGetStatus(). 
 958:Generated_Source\PSoC4/CyDMA.c **** *
 959:Generated_Source\PSoC4/CyDMA.c **** *******************************************************************************/
 960:Generated_Source\PSoC4/CyDMA.c **** void CyDmaSetDataElementSize(int32 channel, int32 descriptor, uint32 dataElementSize)
 961:Generated_Source\PSoC4/CyDMA.c **** {
 2028              		.loc 1 961 0
 2029              		.cfi_startproc
 2030              		@ args = 0, pretend = 0, frame = 24
 2031              		@ frame_needed = 0, uses_anonymous_args = 0
 2032 0000 00B5     		push	{lr}
 2033              		.cfi_def_cfa_offset 4
 2034              		.cfi_offset 14, -4
 2035 0002 87B0     		sub	sp, sp, #28
 2036              		.cfi_def_cfa_offset 32
 2037 0004 0390     		str	r0, [sp, #12]
 2038 0006 0291     		str	r1, [sp, #8]
 2039 0008 0192     		str	r2, [sp, #4]
 962:Generated_Source\PSoC4/CyDMA.c ****     uint32 regValue;
 963:Generated_Source\PSoC4/CyDMA.c ****     
 964:Generated_Source\PSoC4/CyDMA.c ****     CYASSERT((channel    >= 0) && (channel    < CYDMA_CH_NR));
 2040              		.loc 1 964 0
 2041 000a 039B     		ldr	r3, [sp, #12]
 2042 000c 002B     		cmp	r3, #0
 2043 000e 04DB     		blt	.L206
 2044              		.loc 1 964 0 is_stmt 0 discriminator 1
 2045 0010 039B     		ldr	r3, [sp, #12]
 2046 0012 072B     		cmp	r3, #7
 2047 0014 01DC     		bgt	.L206
ARM GAS  C:\Users\andrew\AppData\Local\Temp\cc52BSo9.s 			page 54


 2048              		.loc 1 964 0 discriminator 3
 2049 0016 0123     		movs	r3, #1
 2050 0018 00E0     		b	.L207
 2051              	.L206:
 2052              		.loc 1 964 0 discriminator 4
 2053 001a 0023     		movs	r3, #0
 2054              	.L207:
 2055              		.loc 1 964 0 discriminator 6
 2056 001c 002B     		cmp	r3, #0
 2057 001e 02D1     		bne	.L208
 2058              		.loc 1 964 0 discriminator 7
 2059 0020 0020     		movs	r0, #0
 2060 0022 FFF7FEFF 		bl	CyHalt
 2061              	.L208:
 965:Generated_Source\PSoC4/CyDMA.c ****     CYASSERT((descriptor >= 0) && (descriptor < CYDMA_DESCR_NR));
 2062              		.loc 1 965 0 is_stmt 1
 2063 0026 029B     		ldr	r3, [sp, #8]
 2064 0028 002B     		cmp	r3, #0
 2065 002a 04DB     		blt	.L209
 2066              		.loc 1 965 0 is_stmt 0 discriminator 1
 2067 002c 029B     		ldr	r3, [sp, #8]
 2068 002e 012B     		cmp	r3, #1
 2069 0030 01DC     		bgt	.L209
 2070              		.loc 1 965 0 discriminator 3
 2071 0032 0123     		movs	r3, #1
 2072 0034 00E0     		b	.L210
 2073              	.L209:
 2074              		.loc 1 965 0 discriminator 4
 2075 0036 0023     		movs	r3, #0
 2076              	.L210:
 2077              		.loc 1 965 0 discriminator 6
 2078 0038 002B     		cmp	r3, #0
 2079 003a 02D1     		bne	.L211
 2080              		.loc 1 965 0 discriminator 7
 2081 003c 0020     		movs	r0, #0
 2082 003e FFF7FEFF 		bl	CyHalt
 2083              	.L211:
 966:Generated_Source\PSoC4/CyDMA.c ****     CYASSERT(0u == (dataElementSize & (uint32)~CYDMA_DATA_SIZE));
 2084              		.loc 1 966 0 is_stmt 1
 2085 0042 019B     		ldr	r3, [sp, #4]
 2086 0044 104A     		ldr	r2, .L213
 2087 0046 1340     		ands	r3, r2
 2088 0048 02D0     		beq	.L212
 2089              		.loc 1 966 0 is_stmt 0 discriminator 1
 2090 004a 0020     		movs	r0, #0
 2091 004c FFF7FEFF 		bl	CyHalt
 2092              	.L212:
 967:Generated_Source\PSoC4/CyDMA.c **** 
 968:Generated_Source\PSoC4/CyDMA.c ****     regValue = CYDMA_DESCR_BASE.descriptor[channel][descriptor].ctl & (uint32)~CYDMA_DATA_SIZE;
 2093              		.loc 1 968 0 is_stmt 1
 2094 0050 0E49     		ldr	r1, .L213+4
 2095 0052 039B     		ldr	r3, [sp, #12]
 2096 0054 5A00     		lsls	r2, r3, #1
 2097 0056 029B     		ldr	r3, [sp, #8]
 2098 0058 D318     		adds	r3, r2, r3
 2099 005a 1B01     		lsls	r3, r3, #4
 2100 005c CB18     		adds	r3, r1, r3
ARM GAS  C:\Users\andrew\AppData\Local\Temp\cc52BSo9.s 			page 55


 2101 005e 0833     		adds	r3, r3, #8
 2102 0060 1B68     		ldr	r3, [r3]
 2103 0062 094A     		ldr	r2, .L213
 2104 0064 1340     		ands	r3, r2
 2105 0066 0593     		str	r3, [sp, #20]
 969:Generated_Source\PSoC4/CyDMA.c ****     CYDMA_DESCR_BASE.descriptor[channel][descriptor].ctl = regValue | dataElementSize;
 2106              		.loc 1 969 0
 2107 0068 0848     		ldr	r0, .L213+4
 2108 006a 059A     		ldr	r2, [sp, #20]
 2109 006c 019B     		ldr	r3, [sp, #4]
 2110 006e 1A43     		orrs	r2, r3
 2111 0070 039B     		ldr	r3, [sp, #12]
 2112 0072 5900     		lsls	r1, r3, #1
 2113 0074 029B     		ldr	r3, [sp, #8]
 2114 0076 CB18     		adds	r3, r1, r3
 2115 0078 1B01     		lsls	r3, r3, #4
 2116 007a C318     		adds	r3, r0, r3
 2117 007c 0833     		adds	r3, r3, #8
 2118 007e 1A60     		str	r2, [r3]
 970:Generated_Source\PSoC4/CyDMA.c **** }
 2119              		.loc 1 970 0
 2120 0080 C046     		nop
 2121 0082 07B0     		add	sp, sp, #28
 2122              		@ sp needed
 2123 0084 00BD     		pop	{pc}
 2124              	.L214:
 2125 0086 C046     		.align	2
 2126              	.L213:
 2127 0088 FFFFFCFF 		.word	-196609
 2128 008c 00181040 		.word	1074796544
 2129              		.cfi_endproc
 2130              	.LFE34:
 2131              		.size	CyDmaSetDataElementSize, .-CyDmaSetDataElementSize
 2132              		.section	.text.CyDmaGetDataElementSize,"ax",%progbits
 2133              		.align	2
 2134              		.global	CyDmaGetDataElementSize
 2135              		.code	16
 2136              		.thumb_func
 2137              		.type	CyDmaGetDataElementSize, %function
 2138              	CyDmaGetDataElementSize:
 2139              	.LFB35:
 971:Generated_Source\PSoC4/CyDMA.c **** 
 972:Generated_Source\PSoC4/CyDMA.c **** 
 973:Generated_Source\PSoC4/CyDMA.c **** /*******************************************************************************
 974:Generated_Source\PSoC4/CyDMA.c **** * Function Name: CyDmaGetDataElementSize
 975:Generated_Source\PSoC4/CyDMA.c **** ********************************************************************************
 976:Generated_Source\PSoC4/CyDMA.c **** *
 977:Generated_Source\PSoC4/CyDMA.c **** * Summary:
 978:Generated_Source\PSoC4/CyDMA.c **** *  Returns the data element size configured for the specified descriptor, set by
 979:Generated_Source\PSoC4/CyDMA.c **** *  CyDmaSetDataElementSize() or CyDmaSetConfiguration.
 980:Generated_Source\PSoC4/CyDMA.c **** *
 981:Generated_Source\PSoC4/CyDMA.c **** * Parameters:
 982:Generated_Source\PSoC4/CyDMA.c **** *  channel:    Channel used by this function.
 983:Generated_Source\PSoC4/CyDMA.c **** *  descriptor: Descriptor (0 or 1) modified by this function.
 984:Generated_Source\PSoC4/CyDMA.c **** *                   
 985:Generated_Source\PSoC4/CyDMA.c **** * Return:
 986:Generated_Source\PSoC4/CyDMA.c **** *  The size of the data element. The DMA transfer engine transfers one data
ARM GAS  C:\Users\andrew\AppData\Local\Temp\cc52BSo9.s 			page 56


 987:Generated_Source\PSoC4/CyDMA.c **** *  element at a time. How these transfers occur is controlled by the transfer
 988:Generated_Source\PSoC4/CyDMA.c **** *  mode. Refer to the API bit field definitions in CyDMA_P4.h or the API 
 989:Generated_Source\PSoC4/CyDMA.c **** *  description in the DMA channel datasheet for more information.
 990:Generated_Source\PSoC4/CyDMA.c **** *
 991:Generated_Source\PSoC4/CyDMA.c **** * Note:
 992:Generated_Source\PSoC4/CyDMA.c **** *  The size of the source and destination can be configured to use the
 993:Generated_Source\PSoC4/CyDMA.c **** *  data element size, or a Word, this is set in CyDmaSetSrcDstTransferWidth().
 994:Generated_Source\PSoC4/CyDMA.c **** *
 995:Generated_Source\PSoC4/CyDMA.c **** *******************************************************************************/
 996:Generated_Source\PSoC4/CyDMA.c **** uint32 CyDmaGetDataElementSize(int32 channel, int32 descriptor)
 997:Generated_Source\PSoC4/CyDMA.c **** {
 2140              		.loc 1 997 0
 2141              		.cfi_startproc
 2142              		@ args = 0, pretend = 0, frame = 8
 2143              		@ frame_needed = 0, uses_anonymous_args = 0
 2144 0000 00B5     		push	{lr}
 2145              		.cfi_def_cfa_offset 4
 2146              		.cfi_offset 14, -4
 2147 0002 83B0     		sub	sp, sp, #12
 2148              		.cfi_def_cfa_offset 16
 2149 0004 0190     		str	r0, [sp, #4]
 2150 0006 0091     		str	r1, [sp]
 998:Generated_Source\PSoC4/CyDMA.c ****     CYASSERT((channel    >= 0) && (channel    < CYDMA_CH_NR));
 2151              		.loc 1 998 0
 2152 0008 019B     		ldr	r3, [sp, #4]
 2153 000a 002B     		cmp	r3, #0
 2154 000c 04DB     		blt	.L216
 2155              		.loc 1 998 0 is_stmt 0 discriminator 1
 2156 000e 019B     		ldr	r3, [sp, #4]
 2157 0010 072B     		cmp	r3, #7
 2158 0012 01DC     		bgt	.L216
 2159              		.loc 1 998 0 discriminator 3
 2160 0014 0123     		movs	r3, #1
 2161 0016 00E0     		b	.L217
 2162              	.L216:
 2163              		.loc 1 998 0 discriminator 4
 2164 0018 0023     		movs	r3, #0
 2165              	.L217:
 2166              		.loc 1 998 0 discriminator 6
 2167 001a 002B     		cmp	r3, #0
 2168 001c 02D1     		bne	.L218
 2169              		.loc 1 998 0 discriminator 7
 2170 001e 0020     		movs	r0, #0
 2171 0020 FFF7FEFF 		bl	CyHalt
 2172              	.L218:
 999:Generated_Source\PSoC4/CyDMA.c ****     CYASSERT((descriptor >= 0) && (descriptor < CYDMA_DESCR_NR));
 2173              		.loc 1 999 0 is_stmt 1
 2174 0024 009B     		ldr	r3, [sp]
 2175 0026 002B     		cmp	r3, #0
 2176 0028 04DB     		blt	.L219
 2177              		.loc 1 999 0 is_stmt 0 discriminator 1
 2178 002a 009B     		ldr	r3, [sp]
 2179 002c 012B     		cmp	r3, #1
 2180 002e 01DC     		bgt	.L219
 2181              		.loc 1 999 0 discriminator 3
 2182 0030 0123     		movs	r3, #1
 2183 0032 00E0     		b	.L220
ARM GAS  C:\Users\andrew\AppData\Local\Temp\cc52BSo9.s 			page 57


 2184              	.L219:
 2185              		.loc 1 999 0 discriminator 4
 2186 0034 0023     		movs	r3, #0
 2187              	.L220:
 2188              		.loc 1 999 0 discriminator 6
 2189 0036 002B     		cmp	r3, #0
 2190 0038 02D1     		bne	.L221
 2191              		.loc 1 999 0 discriminator 7
 2192 003a 0020     		movs	r0, #0
 2193 003c FFF7FEFF 		bl	CyHalt
 2194              	.L221:
1000:Generated_Source\PSoC4/CyDMA.c **** 
1001:Generated_Source\PSoC4/CyDMA.c ****     return (CYDMA_DESCR_BASE.descriptor[channel][descriptor].ctl & CYDMA_DATA_SIZE);
 2195              		.loc 1 1001 0 is_stmt 1
 2196 0040 0749     		ldr	r1, .L223
 2197 0042 019B     		ldr	r3, [sp, #4]
 2198 0044 5A00     		lsls	r2, r3, #1
 2199 0046 009B     		ldr	r3, [sp]
 2200 0048 D318     		adds	r3, r2, r3
 2201 004a 1B01     		lsls	r3, r3, #4
 2202 004c CB18     		adds	r3, r1, r3
 2203 004e 0833     		adds	r3, r3, #8
 2204 0050 1A68     		ldr	r2, [r3]
 2205 0052 C023     		movs	r3, #192
 2206 0054 9B02     		lsls	r3, r3, #10
 2207 0056 1340     		ands	r3, r2
1002:Generated_Source\PSoC4/CyDMA.c **** }
 2208              		.loc 1 1002 0
 2209 0058 1800     		movs	r0, r3
 2210 005a 03B0     		add	sp, sp, #12
 2211              		@ sp needed
 2212 005c 00BD     		pop	{pc}
 2213              	.L224:
 2214 005e C046     		.align	2
 2215              	.L223:
 2216 0060 00181040 		.word	1074796544
 2217              		.cfi_endproc
 2218              	.LFE35:
 2219              		.size	CyDmaGetDataElementSize, .-CyDmaGetDataElementSize
 2220              		.section	.text.CyDmaSetNumDataElements,"ax",%progbits
 2221              		.align	2
 2222              		.global	CyDmaSetNumDataElements
 2223              		.code	16
 2224              		.thumb_func
 2225              		.type	CyDmaSetNumDataElements, %function
 2226              	CyDmaSetNumDataElements:
 2227              	.LFB36:
1003:Generated_Source\PSoC4/CyDMA.c **** 
1004:Generated_Source\PSoC4/CyDMA.c **** 
1005:Generated_Source\PSoC4/CyDMA.c **** /*******************************************************************************
1006:Generated_Source\PSoC4/CyDMA.c **** * Function Name: CyDmaSetNumDataElements
1007:Generated_Source\PSoC4/CyDMA.c **** ********************************************************************************
1008:Generated_Source\PSoC4/CyDMA.c **** *
1009:Generated_Source\PSoC4/CyDMA.c **** * Summary:
1010:Generated_Source\PSoC4/CyDMA.c **** *  Sets the number of data elements to transfer for specified descriptor.
1011:Generated_Source\PSoC4/CyDMA.c **** *
1012:Generated_Source\PSoC4/CyDMA.c **** * Parameters:
ARM GAS  C:\Users\andrew\AppData\Local\Temp\cc52BSo9.s 			page 58


1013:Generated_Source\PSoC4/CyDMA.c **** *  channel:         Channel used by this function.
1014:Generated_Source\PSoC4/CyDMA.c **** *  descriptor:      Descriptor (0 or 1) modified by this function.
1015:Generated_Source\PSoC4/CyDMA.c **** *  numDataElements: Total number of data elements this descriptor transfers.
1016:Generated_Source\PSoC4/CyDMA.c **** *                   Valid ranges are 1 to 65536.
1017:Generated_Source\PSoC4/CyDMA.c **** *                   
1018:Generated_Source\PSoC4/CyDMA.c **** * Return:
1019:Generated_Source\PSoC4/CyDMA.c **** *  None.
1020:Generated_Source\PSoC4/CyDMA.c **** *
1021:Generated_Source\PSoC4/CyDMA.c **** * Side effect:
1022:Generated_Source\PSoC4/CyDMA.c **** *  This function should not be called when the specified descriptor is active
1023:Generated_Source\PSoC4/CyDMA.c **** *  in the DMA transfer engine. This can be checked by calling CyDmaGetStatus(). 
1024:Generated_Source\PSoC4/CyDMA.c **** *
1025:Generated_Source\PSoC4/CyDMA.c **** *******************************************************************************/
1026:Generated_Source\PSoC4/CyDMA.c **** void CyDmaSetNumDataElements(int32 channel, int32 descriptor, int32 numDataElements)
1027:Generated_Source\PSoC4/CyDMA.c **** {
 2228              		.loc 1 1027 0
 2229              		.cfi_startproc
 2230              		@ args = 0, pretend = 0, frame = 24
 2231              		@ frame_needed = 0, uses_anonymous_args = 0
 2232 0000 00B5     		push	{lr}
 2233              		.cfi_def_cfa_offset 4
 2234              		.cfi_offset 14, -4
 2235 0002 87B0     		sub	sp, sp, #28
 2236              		.cfi_def_cfa_offset 32
 2237 0004 0390     		str	r0, [sp, #12]
 2238 0006 0291     		str	r1, [sp, #8]
 2239 0008 0192     		str	r2, [sp, #4]
1028:Generated_Source\PSoC4/CyDMA.c ****     uint32 regValue;
1029:Generated_Source\PSoC4/CyDMA.c ****     
1030:Generated_Source\PSoC4/CyDMA.c ****     CYASSERT((channel        >= 0) && (channel         <  CYDMA_CH_NR));
 2240              		.loc 1 1030 0
 2241 000a 039B     		ldr	r3, [sp, #12]
 2242 000c 002B     		cmp	r3, #0
 2243 000e 04DB     		blt	.L226
 2244              		.loc 1 1030 0 is_stmt 0 discriminator 1
 2245 0010 039B     		ldr	r3, [sp, #12]
 2246 0012 072B     		cmp	r3, #7
 2247 0014 01DC     		bgt	.L226
 2248              		.loc 1 1030 0 discriminator 3
 2249 0016 0123     		movs	r3, #1
 2250 0018 00E0     		b	.L227
 2251              	.L226:
 2252              		.loc 1 1030 0 discriminator 4
 2253 001a 0023     		movs	r3, #0
 2254              	.L227:
 2255              		.loc 1 1030 0 discriminator 6
 2256 001c 002B     		cmp	r3, #0
 2257 001e 02D1     		bne	.L228
 2258              		.loc 1 1030 0 discriminator 7
 2259 0020 0020     		movs	r0, #0
 2260 0022 FFF7FEFF 		bl	CyHalt
 2261              	.L228:
1031:Generated_Source\PSoC4/CyDMA.c ****     CYASSERT((descriptor     >= 0) && (descriptor      <  CYDMA_DESCR_NR));
 2262              		.loc 1 1031 0 is_stmt 1
 2263 0026 029B     		ldr	r3, [sp, #8]
 2264 0028 002B     		cmp	r3, #0
 2265 002a 04DB     		blt	.L229
ARM GAS  C:\Users\andrew\AppData\Local\Temp\cc52BSo9.s 			page 59


 2266              		.loc 1 1031 0 is_stmt 0 discriminator 1
 2267 002c 029B     		ldr	r3, [sp, #8]
 2268 002e 012B     		cmp	r3, #1
 2269 0030 01DC     		bgt	.L229
 2270              		.loc 1 1031 0 discriminator 3
 2271 0032 0123     		movs	r3, #1
 2272 0034 00E0     		b	.L230
 2273              	.L229:
 2274              		.loc 1 1031 0 discriminator 4
 2275 0036 0023     		movs	r3, #0
 2276              	.L230:
 2277              		.loc 1 1031 0 discriminator 6
 2278 0038 002B     		cmp	r3, #0
 2279 003a 02D1     		bne	.L231
 2280              		.loc 1 1031 0 discriminator 7
 2281 003c 0020     		movs	r0, #0
 2282 003e FFF7FEFF 		bl	CyHalt
 2283              	.L231:
1032:Generated_Source\PSoC4/CyDMA.c ****     CYASSERT((numDataElements > 0) && (numDataElements <= CYDMA_MAX_DATA_NR));
 2284              		.loc 1 1032 0 is_stmt 1
 2285 0042 019B     		ldr	r3, [sp, #4]
 2286 0044 002B     		cmp	r3, #0
 2287 0046 06DD     		ble	.L232
 2288              		.loc 1 1032 0 is_stmt 0 discriminator 1
 2289 0048 019A     		ldr	r2, [sp, #4]
 2290 004a 8023     		movs	r3, #128
 2291 004c 5B02     		lsls	r3, r3, #9
 2292 004e 9A42     		cmp	r2, r3
 2293 0050 01DC     		bgt	.L232
 2294              		.loc 1 1032 0 discriminator 3
 2295 0052 0123     		movs	r3, #1
 2296 0054 00E0     		b	.L233
 2297              	.L232:
 2298              		.loc 1 1032 0 discriminator 4
 2299 0056 0023     		movs	r3, #0
 2300              	.L233:
 2301              		.loc 1 1032 0 discriminator 6
 2302 0058 002B     		cmp	r3, #0
 2303 005a 02D1     		bne	.L234
 2304              		.loc 1 1032 0 discriminator 7
 2305 005c 0020     		movs	r0, #0
 2306 005e FFF7FEFF 		bl	CyHalt
 2307              	.L234:
1033:Generated_Source\PSoC4/CyDMA.c ****     
1034:Generated_Source\PSoC4/CyDMA.c ****     --numDataElements;
 2308              		.loc 1 1034 0 is_stmt 1
 2309 0062 019B     		ldr	r3, [sp, #4]
 2310 0064 013B     		subs	r3, r3, #1
 2311 0066 0193     		str	r3, [sp, #4]
1035:Generated_Source\PSoC4/CyDMA.c ****     regValue = CYDMA_DESCR_BASE.descriptor[channel][descriptor].ctl & (uint32)~CYDMA_DATA_NR;
 2312              		.loc 1 1035 0
 2313 0068 0D49     		ldr	r1, .L235
 2314 006a 039B     		ldr	r3, [sp, #12]
 2315 006c 5A00     		lsls	r2, r3, #1
 2316 006e 029B     		ldr	r3, [sp, #8]
 2317 0070 D318     		adds	r3, r2, r3
 2318 0072 1B01     		lsls	r3, r3, #4
ARM GAS  C:\Users\andrew\AppData\Local\Temp\cc52BSo9.s 			page 60


 2319 0074 CB18     		adds	r3, r1, r3
 2320 0076 0833     		adds	r3, r3, #8
 2321 0078 1B68     		ldr	r3, [r3]
 2322 007a 1B0C     		lsrs	r3, r3, #16
 2323 007c 1B04     		lsls	r3, r3, #16
 2324 007e 0593     		str	r3, [sp, #20]
1036:Generated_Source\PSoC4/CyDMA.c ****     CYDMA_DESCR_BASE.descriptor[channel][descriptor].ctl = regValue | (uint32)numDataElements;
 2325              		.loc 1 1036 0
 2326 0080 0748     		ldr	r0, .L235
 2327 0082 019A     		ldr	r2, [sp, #4]
 2328 0084 059B     		ldr	r3, [sp, #20]
 2329 0086 1A43     		orrs	r2, r3
 2330 0088 039B     		ldr	r3, [sp, #12]
 2331 008a 5900     		lsls	r1, r3, #1
 2332 008c 029B     		ldr	r3, [sp, #8]
 2333 008e CB18     		adds	r3, r1, r3
 2334 0090 1B01     		lsls	r3, r3, #4
 2335 0092 C318     		adds	r3, r0, r3
 2336 0094 0833     		adds	r3, r3, #8
 2337 0096 1A60     		str	r2, [r3]
1037:Generated_Source\PSoC4/CyDMA.c **** }
 2338              		.loc 1 1037 0
 2339 0098 C046     		nop
 2340 009a 07B0     		add	sp, sp, #28
 2341              		@ sp needed
 2342 009c 00BD     		pop	{pc}
 2343              	.L236:
 2344 009e C046     		.align	2
 2345              	.L235:
 2346 00a0 00181040 		.word	1074796544
 2347              		.cfi_endproc
 2348              	.LFE36:
 2349              		.size	CyDmaSetNumDataElements, .-CyDmaSetNumDataElements
 2350              		.section	.text.CyDmaGetNumDataElements,"ax",%progbits
 2351              		.align	2
 2352              		.global	CyDmaGetNumDataElements
 2353              		.code	16
 2354              		.thumb_func
 2355              		.type	CyDmaGetNumDataElements, %function
 2356              	CyDmaGetNumDataElements:
 2357              	.LFB37:
1038:Generated_Source\PSoC4/CyDMA.c **** 
1039:Generated_Source\PSoC4/CyDMA.c **** 
1040:Generated_Source\PSoC4/CyDMA.c **** /*******************************************************************************
1041:Generated_Source\PSoC4/CyDMA.c **** * Function Name: CyDmaGetNumDataElements
1042:Generated_Source\PSoC4/CyDMA.c **** ********************************************************************************
1043:Generated_Source\PSoC4/CyDMA.c **** *
1044:Generated_Source\PSoC4/CyDMA.c **** * Summary:
1045:Generated_Source\PSoC4/CyDMA.c **** *  Returns the number of data elements to be transferred. Only reflects the
1046:Generated_Source\PSoC4/CyDMA.c **** *  value written by CyDmaSetNumDataElements() or CyDmaSetConfiguration(). This
1047:Generated_Source\PSoC4/CyDMA.c **** *  does not reflect how many elements have been transferred. For that
1048:Generated_Source\PSoC4/CyDMA.c **** *  information use the CyDmaGetDescriptorStatus() function.
1049:Generated_Source\PSoC4/CyDMA.c **** *
1050:Generated_Source\PSoC4/CyDMA.c **** * Parameters:
1051:Generated_Source\PSoC4/CyDMA.c **** *  channel:    Channel used by this function.
1052:Generated_Source\PSoC4/CyDMA.c **** *  descriptor: Descriptor (0 or 1) modified by this function.
1053:Generated_Source\PSoC4/CyDMA.c **** *                   
ARM GAS  C:\Users\andrew\AppData\Local\Temp\cc52BSo9.s 			page 61


1054:Generated_Source\PSoC4/CyDMA.c **** * Return:
1055:Generated_Source\PSoC4/CyDMA.c **** *  Number of data elements to transfer.
1056:Generated_Source\PSoC4/CyDMA.c **** *
1057:Generated_Source\PSoC4/CyDMA.c **** *******************************************************************************/
1058:Generated_Source\PSoC4/CyDMA.c **** int32 CyDmaGetNumDataElements(int32 channel, int32 descriptor)
1059:Generated_Source\PSoC4/CyDMA.c **** {
 2358              		.loc 1 1059 0
 2359              		.cfi_startproc
 2360              		@ args = 0, pretend = 0, frame = 16
 2361              		@ frame_needed = 0, uses_anonymous_args = 0
 2362 0000 00B5     		push	{lr}
 2363              		.cfi_def_cfa_offset 4
 2364              		.cfi_offset 14, -4
 2365 0002 85B0     		sub	sp, sp, #20
 2366              		.cfi_def_cfa_offset 24
 2367 0004 0190     		str	r0, [sp, #4]
 2368 0006 0091     		str	r1, [sp]
1060:Generated_Source\PSoC4/CyDMA.c ****     uint32 numElements;
1061:Generated_Source\PSoC4/CyDMA.c **** 
1062:Generated_Source\PSoC4/CyDMA.c ****     CYASSERT((channel    >= 0) && (channel    < CYDMA_CH_NR));
 2369              		.loc 1 1062 0
 2370 0008 019B     		ldr	r3, [sp, #4]
 2371 000a 002B     		cmp	r3, #0
 2372 000c 04DB     		blt	.L238
 2373              		.loc 1 1062 0 is_stmt 0 discriminator 1
 2374 000e 019B     		ldr	r3, [sp, #4]
 2375 0010 072B     		cmp	r3, #7
 2376 0012 01DC     		bgt	.L238
 2377              		.loc 1 1062 0 discriminator 3
 2378 0014 0123     		movs	r3, #1
 2379 0016 00E0     		b	.L239
 2380              	.L238:
 2381              		.loc 1 1062 0 discriminator 4
 2382 0018 0023     		movs	r3, #0
 2383              	.L239:
 2384              		.loc 1 1062 0 discriminator 6
 2385 001a 002B     		cmp	r3, #0
 2386 001c 02D1     		bne	.L240
 2387              		.loc 1 1062 0 discriminator 7
 2388 001e 0020     		movs	r0, #0
 2389 0020 FFF7FEFF 		bl	CyHalt
 2390              	.L240:
1063:Generated_Source\PSoC4/CyDMA.c ****     CYASSERT((descriptor >= 0) && (descriptor < CYDMA_DESCR_NR));
 2391              		.loc 1 1063 0 is_stmt 1
 2392 0024 009B     		ldr	r3, [sp]
 2393 0026 002B     		cmp	r3, #0
 2394 0028 04DB     		blt	.L241
 2395              		.loc 1 1063 0 is_stmt 0 discriminator 1
 2396 002a 009B     		ldr	r3, [sp]
 2397 002c 012B     		cmp	r3, #1
 2398 002e 01DC     		bgt	.L241
 2399              		.loc 1 1063 0 discriminator 3
 2400 0030 0123     		movs	r3, #1
 2401 0032 00E0     		b	.L242
 2402              	.L241:
 2403              		.loc 1 1063 0 discriminator 4
 2404 0034 0023     		movs	r3, #0
ARM GAS  C:\Users\andrew\AppData\Local\Temp\cc52BSo9.s 			page 62


 2405              	.L242:
 2406              		.loc 1 1063 0 discriminator 6
 2407 0036 002B     		cmp	r3, #0
 2408 0038 02D1     		bne	.L243
 2409              		.loc 1 1063 0 discriminator 7
 2410 003a 0020     		movs	r0, #0
 2411 003c FFF7FEFF 		bl	CyHalt
 2412              	.L243:
1064:Generated_Source\PSoC4/CyDMA.c ****     
1065:Generated_Source\PSoC4/CyDMA.c ****     numElements = (CYDMA_DESCR_BASE.descriptor[channel][descriptor].ctl & CYDMA_DATA_NR) + 1u;
 2413              		.loc 1 1065 0 is_stmt 1
 2414 0040 0849     		ldr	r1, .L245
 2415 0042 019B     		ldr	r3, [sp, #4]
 2416 0044 5A00     		lsls	r2, r3, #1
 2417 0046 009B     		ldr	r3, [sp]
 2418 0048 D318     		adds	r3, r2, r3
 2419 004a 1B01     		lsls	r3, r3, #4
 2420 004c CB18     		adds	r3, r1, r3
 2421 004e 0833     		adds	r3, r3, #8
 2422 0050 1B68     		ldr	r3, [r3]
 2423 0052 1B04     		lsls	r3, r3, #16
 2424 0054 1B0C     		lsrs	r3, r3, #16
 2425 0056 0133     		adds	r3, r3, #1
 2426 0058 0393     		str	r3, [sp, #12]
1066:Generated_Source\PSoC4/CyDMA.c ****     return ((int32)numElements);
 2427              		.loc 1 1066 0
 2428 005a 039B     		ldr	r3, [sp, #12]
1067:Generated_Source\PSoC4/CyDMA.c **** }
 2429              		.loc 1 1067 0
 2430 005c 1800     		movs	r0, r3
 2431 005e 05B0     		add	sp, sp, #20
 2432              		@ sp needed
 2433 0060 00BD     		pop	{pc}
 2434              	.L246:
 2435 0062 C046     		.align	2
 2436              	.L245:
 2437 0064 00181040 		.word	1074796544
 2438              		.cfi_endproc
 2439              	.LFE37:
 2440              		.size	CyDmaGetNumDataElements, .-CyDmaGetNumDataElements
 2441              		.section	.text.CyDmaSetSrcDstTransferWidth,"ax",%progbits
 2442              		.align	2
 2443              		.global	CyDmaSetSrcDstTransferWidth
 2444              		.code	16
 2445              		.thumb_func
 2446              		.type	CyDmaSetSrcDstTransferWidth, %function
 2447              	CyDmaSetSrcDstTransferWidth:
 2448              	.LFB38:
1068:Generated_Source\PSoC4/CyDMA.c **** 
1069:Generated_Source\PSoC4/CyDMA.c **** 
1070:Generated_Source\PSoC4/CyDMA.c **** /*******************************************************************************
1071:Generated_Source\PSoC4/CyDMA.c **** * Function Name: CyDmaSetSrcDstTransferWidth
1072:Generated_Source\PSoC4/CyDMA.c **** ********************************************************************************
1073:Generated_Source\PSoC4/CyDMA.c **** *
1074:Generated_Source\PSoC4/CyDMA.c **** * Summary:
1075:Generated_Source\PSoC4/CyDMA.c **** *  Sets the width of the source and destination. The DMA can either read and
1076:Generated_Source\PSoC4/CyDMA.c **** *  write data from the source and destination at the size specified by
ARM GAS  C:\Users\andrew\AppData\Local\Temp\cc52BSo9.s 			page 63


1077:Generated_Source\PSoC4/CyDMA.c **** *  CyDmaSetDataElementSize() or by a word (4bytes). This also determines how
1078:Generated_Source\PSoC4/CyDMA.c **** *  many bytes the addresses are incremented if increment source and destination
1079:Generated_Source\PSoC4/CyDMA.c **** *  address are turned on.
1080:Generated_Source\PSoC4/CyDMA.c **** *
1081:Generated_Source\PSoC4/CyDMA.c **** * Parameters:
1082:Generated_Source\PSoC4/CyDMA.c **** *  channel:       Channel used by this function.
1083:Generated_Source\PSoC4/CyDMA.c **** *  descriptor:    Descriptor (0 or 1) modified by this function.
1084:Generated_Source\PSoC4/CyDMA.c **** *  transferWidth: Specifies the source and destination widths. Refer to 
1085:Generated_Source\PSoC4/CyDMA.c **** *                 the API bit field definitions in CyDMA_P4.h or the API
1086:Generated_Source\PSoC4/CyDMA.c **** *                 description in the DMA channel datasheet for the parameter
1087:Generated_Source\PSoC4/CyDMA.c **** *                 options.
1088:Generated_Source\PSoC4/CyDMA.c **** *                   
1089:Generated_Source\PSoC4/CyDMA.c **** * Return:
1090:Generated_Source\PSoC4/CyDMA.c **** *  None.
1091:Generated_Source\PSoC4/CyDMA.c **** *
1092:Generated_Source\PSoC4/CyDMA.c **** * Side effect:
1093:Generated_Source\PSoC4/CyDMA.c **** *  This function should not be called when the specified descriptor is active
1094:Generated_Source\PSoC4/CyDMA.c **** *  in the DMA transfer engine. This can be checked by calling CyDmaGetStatus(). 
1095:Generated_Source\PSoC4/CyDMA.c **** *
1096:Generated_Source\PSoC4/CyDMA.c **** *******************************************************************************/
1097:Generated_Source\PSoC4/CyDMA.c **** void CyDmaSetSrcDstTransferWidth(int32 channel, int32 descriptor, uint32 transferWidth)
1098:Generated_Source\PSoC4/CyDMA.c **** {
 2449              		.loc 1 1098 0
 2450              		.cfi_startproc
 2451              		@ args = 0, pretend = 0, frame = 24
 2452              		@ frame_needed = 0, uses_anonymous_args = 0
 2453 0000 00B5     		push	{lr}
 2454              		.cfi_def_cfa_offset 4
 2455              		.cfi_offset 14, -4
 2456 0002 87B0     		sub	sp, sp, #28
 2457              		.cfi_def_cfa_offset 32
 2458 0004 0390     		str	r0, [sp, #12]
 2459 0006 0291     		str	r1, [sp, #8]
 2460 0008 0192     		str	r2, [sp, #4]
1099:Generated_Source\PSoC4/CyDMA.c ****     uint32 regValue;
1100:Generated_Source\PSoC4/CyDMA.c **** 
1101:Generated_Source\PSoC4/CyDMA.c ****     CYASSERT((channel    >= 0) && (channel    < CYDMA_CH_NR));
 2461              		.loc 1 1101 0
 2462 000a 039B     		ldr	r3, [sp, #12]
 2463 000c 002B     		cmp	r3, #0
 2464 000e 04DB     		blt	.L248
 2465              		.loc 1 1101 0 is_stmt 0 discriminator 1
 2466 0010 039B     		ldr	r3, [sp, #12]
 2467 0012 072B     		cmp	r3, #7
 2468 0014 01DC     		bgt	.L248
 2469              		.loc 1 1101 0 discriminator 3
 2470 0016 0123     		movs	r3, #1
 2471 0018 00E0     		b	.L249
 2472              	.L248:
 2473              		.loc 1 1101 0 discriminator 4
 2474 001a 0023     		movs	r3, #0
 2475              	.L249:
 2476              		.loc 1 1101 0 discriminator 6
 2477 001c 002B     		cmp	r3, #0
 2478 001e 02D1     		bne	.L250
 2479              		.loc 1 1101 0 discriminator 7
 2480 0020 0020     		movs	r0, #0
ARM GAS  C:\Users\andrew\AppData\Local\Temp\cc52BSo9.s 			page 64


 2481 0022 FFF7FEFF 		bl	CyHalt
 2482              	.L250:
1102:Generated_Source\PSoC4/CyDMA.c ****     CYASSERT((descriptor >= 0) && (descriptor < CYDMA_DESCR_NR));
 2483              		.loc 1 1102 0 is_stmt 1
 2484 0026 029B     		ldr	r3, [sp, #8]
 2485 0028 002B     		cmp	r3, #0
 2486 002a 04DB     		blt	.L251
 2487              		.loc 1 1102 0 is_stmt 0 discriminator 1
 2488 002c 029B     		ldr	r3, [sp, #8]
 2489 002e 012B     		cmp	r3, #1
 2490 0030 01DC     		bgt	.L251
 2491              		.loc 1 1102 0 discriminator 3
 2492 0032 0123     		movs	r3, #1
 2493 0034 00E0     		b	.L252
 2494              	.L251:
 2495              		.loc 1 1102 0 discriminator 4
 2496 0036 0023     		movs	r3, #0
 2497              	.L252:
 2498              		.loc 1 1102 0 discriminator 6
 2499 0038 002B     		cmp	r3, #0
 2500 003a 02D1     		bne	.L253
 2501              		.loc 1 1102 0 discriminator 7
 2502 003c 0020     		movs	r0, #0
 2503 003e FFF7FEFF 		bl	CyHalt
 2504              	.L253:
1103:Generated_Source\PSoC4/CyDMA.c ****     CYASSERT(0u == (transferWidth & (uint32)~CYDMA_TRANSFER_WIDTH));
 2505              		.loc 1 1103 0 is_stmt 1
 2506 0042 019B     		ldr	r3, [sp, #4]
 2507 0044 104A     		ldr	r2, .L255
 2508 0046 1340     		ands	r3, r2
 2509 0048 02D0     		beq	.L254
 2510              		.loc 1 1103 0 is_stmt 0 discriminator 1
 2511 004a 0020     		movs	r0, #0
 2512 004c FFF7FEFF 		bl	CyHalt
 2513              	.L254:
1104:Generated_Source\PSoC4/CyDMA.c **** 
1105:Generated_Source\PSoC4/CyDMA.c ****     regValue = CYDMA_DESCR_BASE.descriptor[channel][descriptor].ctl & (uint32)~CYDMA_TRANSFER_WIDTH
 2514              		.loc 1 1105 0 is_stmt 1
 2515 0050 0E49     		ldr	r1, .L255+4
 2516 0052 039B     		ldr	r3, [sp, #12]
 2517 0054 5A00     		lsls	r2, r3, #1
 2518 0056 029B     		ldr	r3, [sp, #8]
 2519 0058 D318     		adds	r3, r2, r3
 2520 005a 1B01     		lsls	r3, r3, #4
 2521 005c CB18     		adds	r3, r1, r3
 2522 005e 0833     		adds	r3, r3, #8
 2523 0060 1B68     		ldr	r3, [r3]
 2524 0062 094A     		ldr	r2, .L255
 2525 0064 1340     		ands	r3, r2
 2526 0066 0593     		str	r3, [sp, #20]
1106:Generated_Source\PSoC4/CyDMA.c ****     CYDMA_DESCR_BASE.descriptor[channel][descriptor].ctl = regValue | transferWidth;
 2527              		.loc 1 1106 0
 2528 0068 0848     		ldr	r0, .L255+4
 2529 006a 059A     		ldr	r2, [sp, #20]
 2530 006c 019B     		ldr	r3, [sp, #4]
 2531 006e 1A43     		orrs	r2, r3
 2532 0070 039B     		ldr	r3, [sp, #12]
ARM GAS  C:\Users\andrew\AppData\Local\Temp\cc52BSo9.s 			page 65


 2533 0072 5900     		lsls	r1, r3, #1
 2534 0074 029B     		ldr	r3, [sp, #8]
 2535 0076 CB18     		adds	r3, r1, r3
 2536 0078 1B01     		lsls	r3, r3, #4
 2537 007a C318     		adds	r3, r0, r3
 2538 007c 0833     		adds	r3, r3, #8
 2539 007e 1A60     		str	r2, [r3]
1107:Generated_Source\PSoC4/CyDMA.c **** }
 2540              		.loc 1 1107 0
 2541 0080 C046     		nop
 2542 0082 07B0     		add	sp, sp, #28
 2543              		@ sp needed
 2544 0084 00BD     		pop	{pc}
 2545              	.L256:
 2546 0086 C046     		.align	2
 2547              	.L255:
 2548 0088 FFFFAFFF 		.word	-5242881
 2549 008c 00181040 		.word	1074796544
 2550              		.cfi_endproc
 2551              	.LFE38:
 2552              		.size	CyDmaSetSrcDstTransferWidth, .-CyDmaSetSrcDstTransferWidth
 2553              		.section	.text.CyDmaGetSrcDstTransferWidth,"ax",%progbits
 2554              		.align	2
 2555              		.global	CyDmaGetSrcDstTransferWidth
 2556              		.code	16
 2557              		.thumb_func
 2558              		.type	CyDmaGetSrcDstTransferWidth, %function
 2559              	CyDmaGetSrcDstTransferWidth:
 2560              	.LFB39:
1108:Generated_Source\PSoC4/CyDMA.c **** 
1109:Generated_Source\PSoC4/CyDMA.c **** 
1110:Generated_Source\PSoC4/CyDMA.c **** /*******************************************************************************
1111:Generated_Source\PSoC4/CyDMA.c **** * Function Name: CyDmaGetSrcDstTransferWidth
1112:Generated_Source\PSoC4/CyDMA.c **** ********************************************************************************
1113:Generated_Source\PSoC4/CyDMA.c **** *
1114:Generated_Source\PSoC4/CyDMA.c **** * Summary:
1115:Generated_Source\PSoC4/CyDMA.c **** *  Returns the width of the source and destination, as set by 
1116:Generated_Source\PSoC4/CyDMA.c **** *  CyDmaSetSrcDstTransferWidth() or CyDmaSetConfiguration().
1117:Generated_Source\PSoC4/CyDMA.c **** *
1118:Generated_Source\PSoC4/CyDMA.c **** * Parameters:
1119:Generated_Source\PSoC4/CyDMA.c **** *  channel:    Channel used by this function.
1120:Generated_Source\PSoC4/CyDMA.c **** *  descriptor: Descriptor (0 or 1) modified by this function.
1121:Generated_Source\PSoC4/CyDMA.c **** *                   
1122:Generated_Source\PSoC4/CyDMA.c **** * Return:
1123:Generated_Source\PSoC4/CyDMA.c **** *  Width of source and destination. Refer to the API bit field definitions in
1124:Generated_Source\PSoC4/CyDMA.c **** *  CyDMA_P4.h or the API description in the DMA channel datasheet for more
1125:Generated_Source\PSoC4/CyDMA.c **** *  information.
1126:Generated_Source\PSoC4/CyDMA.c **** *
1127:Generated_Source\PSoC4/CyDMA.c **** *******************************************************************************/
1128:Generated_Source\PSoC4/CyDMA.c **** uint32 CyDmaGetSrcDstTransferWidth(int32 channel, int32 descriptor)
1129:Generated_Source\PSoC4/CyDMA.c **** {
 2561              		.loc 1 1129 0
 2562              		.cfi_startproc
 2563              		@ args = 0, pretend = 0, frame = 8
 2564              		@ frame_needed = 0, uses_anonymous_args = 0
 2565 0000 00B5     		push	{lr}
 2566              		.cfi_def_cfa_offset 4
ARM GAS  C:\Users\andrew\AppData\Local\Temp\cc52BSo9.s 			page 66


 2567              		.cfi_offset 14, -4
 2568 0002 83B0     		sub	sp, sp, #12
 2569              		.cfi_def_cfa_offset 16
 2570 0004 0190     		str	r0, [sp, #4]
 2571 0006 0091     		str	r1, [sp]
1130:Generated_Source\PSoC4/CyDMA.c ****     CYASSERT((channel    >= 0) && (channel    < CYDMA_CH_NR));
 2572              		.loc 1 1130 0
 2573 0008 019B     		ldr	r3, [sp, #4]
 2574 000a 002B     		cmp	r3, #0
 2575 000c 04DB     		blt	.L258
 2576              		.loc 1 1130 0 is_stmt 0 discriminator 1
 2577 000e 019B     		ldr	r3, [sp, #4]
 2578 0010 072B     		cmp	r3, #7
 2579 0012 01DC     		bgt	.L258
 2580              		.loc 1 1130 0 discriminator 3
 2581 0014 0123     		movs	r3, #1
 2582 0016 00E0     		b	.L259
 2583              	.L258:
 2584              		.loc 1 1130 0 discriminator 4
 2585 0018 0023     		movs	r3, #0
 2586              	.L259:
 2587              		.loc 1 1130 0 discriminator 6
 2588 001a 002B     		cmp	r3, #0
 2589 001c 02D1     		bne	.L260
 2590              		.loc 1 1130 0 discriminator 7
 2591 001e 0020     		movs	r0, #0
 2592 0020 FFF7FEFF 		bl	CyHalt
 2593              	.L260:
1131:Generated_Source\PSoC4/CyDMA.c ****     CYASSERT((descriptor >= 0) && (descriptor < CYDMA_DESCR_NR));
 2594              		.loc 1 1131 0 is_stmt 1
 2595 0024 009B     		ldr	r3, [sp]
 2596 0026 002B     		cmp	r3, #0
 2597 0028 04DB     		blt	.L261
 2598              		.loc 1 1131 0 is_stmt 0 discriminator 1
 2599 002a 009B     		ldr	r3, [sp]
 2600 002c 012B     		cmp	r3, #1
 2601 002e 01DC     		bgt	.L261
 2602              		.loc 1 1131 0 discriminator 3
 2603 0030 0123     		movs	r3, #1
 2604 0032 00E0     		b	.L262
 2605              	.L261:
 2606              		.loc 1 1131 0 discriminator 4
 2607 0034 0023     		movs	r3, #0
 2608              	.L262:
 2609              		.loc 1 1131 0 discriminator 6
 2610 0036 002B     		cmp	r3, #0
 2611 0038 02D1     		bne	.L263
 2612              		.loc 1 1131 0 discriminator 7
 2613 003a 0020     		movs	r0, #0
 2614 003c FFF7FEFF 		bl	CyHalt
 2615              	.L263:
1132:Generated_Source\PSoC4/CyDMA.c ****     return (CYDMA_DESCR_BASE.descriptor[channel][descriptor].ctl & CYDMA_TRANSFER_WIDTH);
 2616              		.loc 1 1132 0 is_stmt 1
 2617 0040 0749     		ldr	r1, .L265
 2618 0042 019B     		ldr	r3, [sp, #4]
 2619 0044 5A00     		lsls	r2, r3, #1
 2620 0046 009B     		ldr	r3, [sp]
ARM GAS  C:\Users\andrew\AppData\Local\Temp\cc52BSo9.s 			page 67


 2621 0048 D318     		adds	r3, r2, r3
 2622 004a 1B01     		lsls	r3, r3, #4
 2623 004c CB18     		adds	r3, r1, r3
 2624 004e 0833     		adds	r3, r3, #8
 2625 0050 1A68     		ldr	r2, [r3]
 2626 0052 A023     		movs	r3, #160
 2627 0054 DB03     		lsls	r3, r3, #15
 2628 0056 1340     		ands	r3, r2
1133:Generated_Source\PSoC4/CyDMA.c **** }
 2629              		.loc 1 1133 0
 2630 0058 1800     		movs	r0, r3
 2631 005a 03B0     		add	sp, sp, #12
 2632              		@ sp needed
 2633 005c 00BD     		pop	{pc}
 2634              	.L266:
 2635 005e C046     		.align	2
 2636              	.L265:
 2637 0060 00181040 		.word	1074796544
 2638              		.cfi_endproc
 2639              	.LFE39:
 2640              		.size	CyDmaGetSrcDstTransferWidth, .-CyDmaGetSrcDstTransferWidth
 2641              		.section	.text.CyDmaSetAddressIncrement,"ax",%progbits
 2642              		.align	2
 2643              		.global	CyDmaSetAddressIncrement
 2644              		.code	16
 2645              		.thumb_func
 2646              		.type	CyDmaSetAddressIncrement, %function
 2647              	CyDmaSetAddressIncrement:
 2648              	.LFB40:
1134:Generated_Source\PSoC4/CyDMA.c **** 
1135:Generated_Source\PSoC4/CyDMA.c **** 
1136:Generated_Source\PSoC4/CyDMA.c **** /*******************************************************************************
1137:Generated_Source\PSoC4/CyDMA.c **** * Function Name: CyDmaSetAddressIncrement
1138:Generated_Source\PSoC4/CyDMA.c **** ********************************************************************************
1139:Generated_Source\PSoC4/CyDMA.c **** *
1140:Generated_Source\PSoC4/CyDMA.c **** * Summary:
1141:Generated_Source\PSoC4/CyDMA.c **** *  Sets whether the source or destination addresses are incremented after the
1142:Generated_Source\PSoC4/CyDMA.c **** *  transfer of each data element. The amount that the source and destination
1143:Generated_Source\PSoC4/CyDMA.c **** *  address are incremented is determined by the CyDmaSetSrcDstTransferWidth()
1144:Generated_Source\PSoC4/CyDMA.c **** *  function. The addresses will either be incremented by the data element size
1145:Generated_Source\PSoC4/CyDMA.c **** *  or by a word (4 bytes).
1146:Generated_Source\PSoC4/CyDMA.c **** *
1147:Generated_Source\PSoC4/CyDMA.c **** * Parameters:
1148:Generated_Source\PSoC4/CyDMA.c **** *  channel:          Channel used by this function.
1149:Generated_Source\PSoC4/CyDMA.c **** *  descriptor:       Descriptor (0 or 1) modified by this function.
1150:Generated_Source\PSoC4/CyDMA.c **** *  addressIncrement: Address increment settings. Refer to the API bit fields 
1151:Generated_Source\PSoC4/CyDMA.c **** *                    definition in CyDMA_P4.h or the API description in the DMA
1152:Generated_Source\PSoC4/CyDMA.c **** *                    channel datasheet for the parameter options.
1153:Generated_Source\PSoC4/CyDMA.c **** *    
1154:Generated_Source\PSoC4/CyDMA.c **** * Return:
1155:Generated_Source\PSoC4/CyDMA.c **** *  None.
1156:Generated_Source\PSoC4/CyDMA.c **** *
1157:Generated_Source\PSoC4/CyDMA.c **** * Side effect:
1158:Generated_Source\PSoC4/CyDMA.c **** *  This function should not be called when the specified descriptor is active
1159:Generated_Source\PSoC4/CyDMA.c **** *  in the DMA transfer engine. This can be checked by calling CyDmaGetStatus(). 
1160:Generated_Source\PSoC4/CyDMA.c **** *
1161:Generated_Source\PSoC4/CyDMA.c **** *******************************************************************************/
ARM GAS  C:\Users\andrew\AppData\Local\Temp\cc52BSo9.s 			page 68


1162:Generated_Source\PSoC4/CyDMA.c **** void CyDmaSetAddressIncrement(int32 channel, int32 descriptor, uint32 addressIncrement)
1163:Generated_Source\PSoC4/CyDMA.c **** {
 2649              		.loc 1 1163 0
 2650              		.cfi_startproc
 2651              		@ args = 0, pretend = 0, frame = 24
 2652              		@ frame_needed = 0, uses_anonymous_args = 0
 2653 0000 00B5     		push	{lr}
 2654              		.cfi_def_cfa_offset 4
 2655              		.cfi_offset 14, -4
 2656 0002 87B0     		sub	sp, sp, #28
 2657              		.cfi_def_cfa_offset 32
 2658 0004 0390     		str	r0, [sp, #12]
 2659 0006 0291     		str	r1, [sp, #8]
 2660 0008 0192     		str	r2, [sp, #4]
1164:Generated_Source\PSoC4/CyDMA.c ****     uint32 regValue;
1165:Generated_Source\PSoC4/CyDMA.c **** 
1166:Generated_Source\PSoC4/CyDMA.c ****     CYASSERT((channel    >= 0) && (channel    < CYDMA_CH_NR));
 2661              		.loc 1 1166 0
 2662 000a 039B     		ldr	r3, [sp, #12]
 2663 000c 002B     		cmp	r3, #0
 2664 000e 04DB     		blt	.L268
 2665              		.loc 1 1166 0 is_stmt 0 discriminator 1
 2666 0010 039B     		ldr	r3, [sp, #12]
 2667 0012 072B     		cmp	r3, #7
 2668 0014 01DC     		bgt	.L268
 2669              		.loc 1 1166 0 discriminator 3
 2670 0016 0123     		movs	r3, #1
 2671 0018 00E0     		b	.L269
 2672              	.L268:
 2673              		.loc 1 1166 0 discriminator 4
 2674 001a 0023     		movs	r3, #0
 2675              	.L269:
 2676              		.loc 1 1166 0 discriminator 6
 2677 001c 002B     		cmp	r3, #0
 2678 001e 02D1     		bne	.L270
 2679              		.loc 1 1166 0 discriminator 7
 2680 0020 0020     		movs	r0, #0
 2681 0022 FFF7FEFF 		bl	CyHalt
 2682              	.L270:
1167:Generated_Source\PSoC4/CyDMA.c ****     CYASSERT((descriptor >= 0) && (descriptor < CYDMA_DESCR_NR));
 2683              		.loc 1 1167 0 is_stmt 1
 2684 0026 029B     		ldr	r3, [sp, #8]
 2685 0028 002B     		cmp	r3, #0
 2686 002a 04DB     		blt	.L271
 2687              		.loc 1 1167 0 is_stmt 0 discriminator 1
 2688 002c 029B     		ldr	r3, [sp, #8]
 2689 002e 012B     		cmp	r3, #1
 2690 0030 01DC     		bgt	.L271
 2691              		.loc 1 1167 0 discriminator 3
 2692 0032 0123     		movs	r3, #1
 2693 0034 00E0     		b	.L272
 2694              	.L271:
 2695              		.loc 1 1167 0 discriminator 4
 2696 0036 0023     		movs	r3, #0
 2697              	.L272:
 2698              		.loc 1 1167 0 discriminator 6
 2699 0038 002B     		cmp	r3, #0
ARM GAS  C:\Users\andrew\AppData\Local\Temp\cc52BSo9.s 			page 69


 2700 003a 02D1     		bne	.L273
 2701              		.loc 1 1167 0 discriminator 7
 2702 003c 0020     		movs	r0, #0
 2703 003e FFF7FEFF 		bl	CyHalt
 2704              	.L273:
1168:Generated_Source\PSoC4/CyDMA.c ****     CYASSERT(0u == (addressIncrement & (uint32)~CYDMA_ADDR_INCR));
 2705              		.loc 1 1168 0 is_stmt 1
 2706 0042 019B     		ldr	r3, [sp, #4]
 2707 0044 104A     		ldr	r2, .L275
 2708 0046 1340     		ands	r3, r2
 2709 0048 02D0     		beq	.L274
 2710              		.loc 1 1168 0 is_stmt 0 discriminator 1
 2711 004a 0020     		movs	r0, #0
 2712 004c FFF7FEFF 		bl	CyHalt
 2713              	.L274:
1169:Generated_Source\PSoC4/CyDMA.c **** 
1170:Generated_Source\PSoC4/CyDMA.c ****     regValue = CYDMA_DESCR_BASE.descriptor[channel][descriptor].ctl & (uint32)~CYDMA_ADDR_INCR;
 2714              		.loc 1 1170 0 is_stmt 1
 2715 0050 0E49     		ldr	r1, .L275+4
 2716 0052 039B     		ldr	r3, [sp, #12]
 2717 0054 5A00     		lsls	r2, r3, #1
 2718 0056 029B     		ldr	r3, [sp, #8]
 2719 0058 D318     		adds	r3, r2, r3
 2720 005a 1B01     		lsls	r3, r3, #4
 2721 005c CB18     		adds	r3, r1, r3
 2722 005e 0833     		adds	r3, r3, #8
 2723 0060 1B68     		ldr	r3, [r3]
 2724 0062 094A     		ldr	r2, .L275
 2725 0064 1340     		ands	r3, r2
 2726 0066 0593     		str	r3, [sp, #20]
1171:Generated_Source\PSoC4/CyDMA.c ****     CYDMA_DESCR_BASE.descriptor[channel][descriptor].ctl = regValue | addressIncrement;
 2727              		.loc 1 1171 0
 2728 0068 0848     		ldr	r0, .L275+4
 2729 006a 059A     		ldr	r2, [sp, #20]
 2730 006c 019B     		ldr	r3, [sp, #4]
 2731 006e 1A43     		orrs	r2, r3
 2732 0070 039B     		ldr	r3, [sp, #12]
 2733 0072 5900     		lsls	r1, r3, #1
 2734 0074 029B     		ldr	r3, [sp, #8]
 2735 0076 CB18     		adds	r3, r1, r3
 2736 0078 1B01     		lsls	r3, r3, #4
 2737 007a C318     		adds	r3, r0, r3
 2738 007c 0833     		adds	r3, r3, #8
 2739 007e 1A60     		str	r2, [r3]
1172:Generated_Source\PSoC4/CyDMA.c **** }
 2740              		.loc 1 1172 0
 2741 0080 C046     		nop
 2742 0082 07B0     		add	sp, sp, #28
 2743              		@ sp needed
 2744 0084 00BD     		pop	{pc}
 2745              	.L276:
 2746 0086 C046     		.align	2
 2747              	.L275:
 2748 0088 FFFF5FFF 		.word	-10485761
 2749 008c 00181040 		.word	1074796544
 2750              		.cfi_endproc
 2751              	.LFE40:
ARM GAS  C:\Users\andrew\AppData\Local\Temp\cc52BSo9.s 			page 70


 2752              		.size	CyDmaSetAddressIncrement, .-CyDmaSetAddressIncrement
 2753              		.section	.text.CyDmaGetAddressIncrement,"ax",%progbits
 2754              		.align	2
 2755              		.global	CyDmaGetAddressIncrement
 2756              		.code	16
 2757              		.thumb_func
 2758              		.type	CyDmaGetAddressIncrement, %function
 2759              	CyDmaGetAddressIncrement:
 2760              	.LFB41:
1173:Generated_Source\PSoC4/CyDMA.c **** 
1174:Generated_Source\PSoC4/CyDMA.c **** 
1175:Generated_Source\PSoC4/CyDMA.c **** /*******************************************************************************
1176:Generated_Source\PSoC4/CyDMA.c **** * Function Name: CyDmaGetAddressIncrement
1177:Generated_Source\PSoC4/CyDMA.c **** ********************************************************************************
1178:Generated_Source\PSoC4/CyDMA.c **** *
1179:Generated_Source\PSoC4/CyDMA.c **** * Summary:
1180:Generated_Source\PSoC4/CyDMA.c **** *  Returns address increment settings as set by CyDmaSetAddressIncrement() or
1181:Generated_Source\PSoC4/CyDMA.c **** *  CyDmaSetConfiguration().
1182:Generated_Source\PSoC4/CyDMA.c **** *
1183:Generated_Source\PSoC4/CyDMA.c **** * Parameters:
1184:Generated_Source\PSoC4/CyDMA.c **** *  channel:    Channel used by this function.
1185:Generated_Source\PSoC4/CyDMA.c **** *  descriptor: Descriptor (0 or 1) modified by this function.
1186:Generated_Source\PSoC4/CyDMA.c **** *                   
1187:Generated_Source\PSoC4/CyDMA.c **** * Return:
1188:Generated_Source\PSoC4/CyDMA.c **** *  Address increment settings. Refer to the API bit field definitions in
1189:Generated_Source\PSoC4/CyDMA.c **** *  CyDMA_P4.h or the API description in the DMA channel datasheet for more
1190:Generated_Source\PSoC4/CyDMA.c **** *  information.
1191:Generated_Source\PSoC4/CyDMA.c **** *
1192:Generated_Source\PSoC4/CyDMA.c **** *******************************************************************************/
1193:Generated_Source\PSoC4/CyDMA.c **** uint32 CyDmaGetAddressIncrement(int32 channel, int32 descriptor)
1194:Generated_Source\PSoC4/CyDMA.c **** {
 2761              		.loc 1 1194 0
 2762              		.cfi_startproc
 2763              		@ args = 0, pretend = 0, frame = 8
 2764              		@ frame_needed = 0, uses_anonymous_args = 0
 2765 0000 00B5     		push	{lr}
 2766              		.cfi_def_cfa_offset 4
 2767              		.cfi_offset 14, -4
 2768 0002 83B0     		sub	sp, sp, #12
 2769              		.cfi_def_cfa_offset 16
 2770 0004 0190     		str	r0, [sp, #4]
 2771 0006 0091     		str	r1, [sp]
1195:Generated_Source\PSoC4/CyDMA.c ****     CYASSERT((channel    >= 0) && (channel    < CYDMA_CH_NR));
 2772              		.loc 1 1195 0
 2773 0008 019B     		ldr	r3, [sp, #4]
 2774 000a 002B     		cmp	r3, #0
 2775 000c 04DB     		blt	.L278
 2776              		.loc 1 1195 0 is_stmt 0 discriminator 1
 2777 000e 019B     		ldr	r3, [sp, #4]
 2778 0010 072B     		cmp	r3, #7
 2779 0012 01DC     		bgt	.L278
 2780              		.loc 1 1195 0 discriminator 3
 2781 0014 0123     		movs	r3, #1
 2782 0016 00E0     		b	.L279
 2783              	.L278:
 2784              		.loc 1 1195 0 discriminator 4
 2785 0018 0023     		movs	r3, #0
ARM GAS  C:\Users\andrew\AppData\Local\Temp\cc52BSo9.s 			page 71


 2786              	.L279:
 2787              		.loc 1 1195 0 discriminator 6
 2788 001a 002B     		cmp	r3, #0
 2789 001c 02D1     		bne	.L280
 2790              		.loc 1 1195 0 discriminator 7
 2791 001e 0020     		movs	r0, #0
 2792 0020 FFF7FEFF 		bl	CyHalt
 2793              	.L280:
1196:Generated_Source\PSoC4/CyDMA.c ****     CYASSERT((descriptor >= 0) && (descriptor < CYDMA_DESCR_NR));
 2794              		.loc 1 1196 0 is_stmt 1
 2795 0024 009B     		ldr	r3, [sp]
 2796 0026 002B     		cmp	r3, #0
 2797 0028 04DB     		blt	.L281
 2798              		.loc 1 1196 0 is_stmt 0 discriminator 1
 2799 002a 009B     		ldr	r3, [sp]
 2800 002c 012B     		cmp	r3, #1
 2801 002e 01DC     		bgt	.L281
 2802              		.loc 1 1196 0 discriminator 3
 2803 0030 0123     		movs	r3, #1
 2804 0032 00E0     		b	.L282
 2805              	.L281:
 2806              		.loc 1 1196 0 discriminator 4
 2807 0034 0023     		movs	r3, #0
 2808              	.L282:
 2809              		.loc 1 1196 0 discriminator 6
 2810 0036 002B     		cmp	r3, #0
 2811 0038 02D1     		bne	.L283
 2812              		.loc 1 1196 0 discriminator 7
 2813 003a 0020     		movs	r0, #0
 2814 003c FFF7FEFF 		bl	CyHalt
 2815              	.L283:
1197:Generated_Source\PSoC4/CyDMA.c **** 
1198:Generated_Source\PSoC4/CyDMA.c ****     return (CYDMA_DESCR_BASE.descriptor[channel][descriptor].ctl & CYDMA_ADDR_INCR);
 2816              		.loc 1 1198 0 is_stmt 1
 2817 0040 0749     		ldr	r1, .L285
 2818 0042 019B     		ldr	r3, [sp, #4]
 2819 0044 5A00     		lsls	r2, r3, #1
 2820 0046 009B     		ldr	r3, [sp]
 2821 0048 D318     		adds	r3, r2, r3
 2822 004a 1B01     		lsls	r3, r3, #4
 2823 004c CB18     		adds	r3, r1, r3
 2824 004e 0833     		adds	r3, r3, #8
 2825 0050 1A68     		ldr	r2, [r3]
 2826 0052 A023     		movs	r3, #160
 2827 0054 1B04     		lsls	r3, r3, #16
 2828 0056 1340     		ands	r3, r2
1199:Generated_Source\PSoC4/CyDMA.c **** }
 2829              		.loc 1 1199 0
 2830 0058 1800     		movs	r0, r3
 2831 005a 03B0     		add	sp, sp, #12
 2832              		@ sp needed
 2833 005c 00BD     		pop	{pc}
 2834              	.L286:
 2835 005e C046     		.align	2
 2836              	.L285:
 2837 0060 00181040 		.word	1074796544
 2838              		.cfi_endproc
ARM GAS  C:\Users\andrew\AppData\Local\Temp\cc52BSo9.s 			page 72


 2839              	.LFE41:
 2840              		.size	CyDmaGetAddressIncrement, .-CyDmaGetAddressIncrement
 2841              		.section	.text.CyDmaSetTriggerType,"ax",%progbits
 2842              		.align	2
 2843              		.global	CyDmaSetTriggerType
 2844              		.code	16
 2845              		.thumb_func
 2846              		.type	CyDmaSetTriggerType, %function
 2847              	CyDmaSetTriggerType:
 2848              	.LFB42:
1200:Generated_Source\PSoC4/CyDMA.c **** 
1201:Generated_Source\PSoC4/CyDMA.c **** 
1202:Generated_Source\PSoC4/CyDMA.c **** /*******************************************************************************
1203:Generated_Source\PSoC4/CyDMA.c **** * Function Name: CyDmaSetTriggerType
1204:Generated_Source\PSoC4/CyDMA.c **** ********************************************************************************
1205:Generated_Source\PSoC4/CyDMA.c **** *
1206:Generated_Source\PSoC4/CyDMA.c **** * Summary:
1207:Generated_Source\PSoC4/CyDMA.c **** *  Sets the type of input trigger for the DMA For level sensitive triggers sets
1208:Generated_Source\PSoC4/CyDMA.c **** *  how long the DMA waits for the trigger to go low (deactivate) before
1209:Generated_Source\PSoC4/CyDMA.c **** *  triggering the channel again.
1210:Generated_Source\PSoC4/CyDMA.c **** *
1211:Generated_Source\PSoC4/CyDMA.c **** * Parameters:
1212:Generated_Source\PSoC4/CyDMA.c **** *  channel:     Channel used by this function.
1213:Generated_Source\PSoC4/CyDMA.c **** *  descriptor:  Descriptor (0 or 1) modified by this function.
1214:Generated_Source\PSoC4/CyDMA.c **** *  triggerType: Type of DMA trigger. Refer to the API bit field definitions
1215:Generated_Source\PSoC4/CyDMA.c **** *               in CyDMA_P4.h or the API description in the DMA channel
1216:Generated_Source\PSoC4/CyDMA.c **** *               datasheet for the parameter options.
1217:Generated_Source\PSoC4/CyDMA.c **** *                   
1218:Generated_Source\PSoC4/CyDMA.c **** * Return:
1219:Generated_Source\PSoC4/CyDMA.c **** *  None.
1220:Generated_Source\PSoC4/CyDMA.c **** *
1221:Generated_Source\PSoC4/CyDMA.c **** * Side effect:
1222:Generated_Source\PSoC4/CyDMA.c **** *  This function should not be called when the specified descriptor is active
1223:Generated_Source\PSoC4/CyDMA.c **** *  in the DMA transfer engine. This can be checked by calling CyDmaGetStatus(). 
1224:Generated_Source\PSoC4/CyDMA.c **** *
1225:Generated_Source\PSoC4/CyDMA.c **** *******************************************************************************/
1226:Generated_Source\PSoC4/CyDMA.c **** void CyDmaSetTriggerType(int32 channel, int32 descriptor, uint32 triggerType)
1227:Generated_Source\PSoC4/CyDMA.c **** {
 2849              		.loc 1 1227 0
 2850              		.cfi_startproc
 2851              		@ args = 0, pretend = 0, frame = 24
 2852              		@ frame_needed = 0, uses_anonymous_args = 0
 2853 0000 00B5     		push	{lr}
 2854              		.cfi_def_cfa_offset 4
 2855              		.cfi_offset 14, -4
 2856 0002 87B0     		sub	sp, sp, #28
 2857              		.cfi_def_cfa_offset 32
 2858 0004 0390     		str	r0, [sp, #12]
 2859 0006 0291     		str	r1, [sp, #8]
 2860 0008 0192     		str	r2, [sp, #4]
1228:Generated_Source\PSoC4/CyDMA.c ****     uint32 regValue;
1229:Generated_Source\PSoC4/CyDMA.c **** 
1230:Generated_Source\PSoC4/CyDMA.c ****     CYASSERT((channel    >= 0) && (channel    < CYDMA_CH_NR));
 2861              		.loc 1 1230 0
 2862 000a 039B     		ldr	r3, [sp, #12]
 2863 000c 002B     		cmp	r3, #0
 2864 000e 04DB     		blt	.L288
ARM GAS  C:\Users\andrew\AppData\Local\Temp\cc52BSo9.s 			page 73


 2865              		.loc 1 1230 0 is_stmt 0 discriminator 1
 2866 0010 039B     		ldr	r3, [sp, #12]
 2867 0012 072B     		cmp	r3, #7
 2868 0014 01DC     		bgt	.L288
 2869              		.loc 1 1230 0 discriminator 3
 2870 0016 0123     		movs	r3, #1
 2871 0018 00E0     		b	.L289
 2872              	.L288:
 2873              		.loc 1 1230 0 discriminator 4
 2874 001a 0023     		movs	r3, #0
 2875              	.L289:
 2876              		.loc 1 1230 0 discriminator 6
 2877 001c 002B     		cmp	r3, #0
 2878 001e 02D1     		bne	.L290
 2879              		.loc 1 1230 0 discriminator 7
 2880 0020 0020     		movs	r0, #0
 2881 0022 FFF7FEFF 		bl	CyHalt
 2882              	.L290:
1231:Generated_Source\PSoC4/CyDMA.c ****     CYASSERT((descriptor >= 0) && (descriptor < CYDMA_DESCR_NR));
 2883              		.loc 1 1231 0 is_stmt 1
 2884 0026 029B     		ldr	r3, [sp, #8]
 2885 0028 002B     		cmp	r3, #0
 2886 002a 04DB     		blt	.L291
 2887              		.loc 1 1231 0 is_stmt 0 discriminator 1
 2888 002c 029B     		ldr	r3, [sp, #8]
 2889 002e 012B     		cmp	r3, #1
 2890 0030 01DC     		bgt	.L291
 2891              		.loc 1 1231 0 discriminator 3
 2892 0032 0123     		movs	r3, #1
 2893 0034 00E0     		b	.L292
 2894              	.L291:
 2895              		.loc 1 1231 0 discriminator 4
 2896 0036 0023     		movs	r3, #0
 2897              	.L292:
 2898              		.loc 1 1231 0 discriminator 6
 2899 0038 002B     		cmp	r3, #0
 2900 003a 02D1     		bne	.L293
 2901              		.loc 1 1231 0 discriminator 7
 2902 003c 0020     		movs	r0, #0
 2903 003e FFF7FEFF 		bl	CyHalt
 2904              	.L293:
1232:Generated_Source\PSoC4/CyDMA.c ****     CYASSERT(0u == (triggerType & (uint32)~CYDMA_TRIGGER_TYPE));
 2905              		.loc 1 1232 0 is_stmt 1
 2906 0042 019B     		ldr	r3, [sp, #4]
 2907 0044 104A     		ldr	r2, .L295
 2908 0046 1340     		ands	r3, r2
 2909 0048 02D0     		beq	.L294
 2910              		.loc 1 1232 0 is_stmt 0 discriminator 1
 2911 004a 0020     		movs	r0, #0
 2912 004c FFF7FEFF 		bl	CyHalt
 2913              	.L294:
1233:Generated_Source\PSoC4/CyDMA.c **** 
1234:Generated_Source\PSoC4/CyDMA.c ****     regValue = CYDMA_DESCR_BASE.descriptor[channel][descriptor].ctl & (uint32)~CYDMA_TRIGGER_TYPE;
 2914              		.loc 1 1234 0 is_stmt 1
 2915 0050 0E49     		ldr	r1, .L295+4
 2916 0052 039B     		ldr	r3, [sp, #12]
 2917 0054 5A00     		lsls	r2, r3, #1
ARM GAS  C:\Users\andrew\AppData\Local\Temp\cc52BSo9.s 			page 74


 2918 0056 029B     		ldr	r3, [sp, #8]
 2919 0058 D318     		adds	r3, r2, r3
 2920 005a 1B01     		lsls	r3, r3, #4
 2921 005c CB18     		adds	r3, r1, r3
 2922 005e 0833     		adds	r3, r3, #8
 2923 0060 1B68     		ldr	r3, [r3]
 2924 0062 094A     		ldr	r2, .L295
 2925 0064 1340     		ands	r3, r2
 2926 0066 0593     		str	r3, [sp, #20]
1235:Generated_Source\PSoC4/CyDMA.c ****     CYDMA_DESCR_BASE.descriptor[channel][descriptor].ctl = regValue | triggerType;
 2927              		.loc 1 1235 0
 2928 0068 0848     		ldr	r0, .L295+4
 2929 006a 059A     		ldr	r2, [sp, #20]
 2930 006c 019B     		ldr	r3, [sp, #4]
 2931 006e 1A43     		orrs	r2, r3
 2932 0070 039B     		ldr	r3, [sp, #12]
 2933 0072 5900     		lsls	r1, r3, #1
 2934 0074 029B     		ldr	r3, [sp, #8]
 2935 0076 CB18     		adds	r3, r1, r3
 2936 0078 1B01     		lsls	r3, r3, #4
 2937 007a C318     		adds	r3, r0, r3
 2938 007c 0833     		adds	r3, r3, #8
 2939 007e 1A60     		str	r2, [r3]
1236:Generated_Source\PSoC4/CyDMA.c **** }
 2940              		.loc 1 1236 0
 2941 0080 C046     		nop
 2942 0082 07B0     		add	sp, sp, #28
 2943              		@ sp needed
 2944 0084 00BD     		pop	{pc}
 2945              	.L296:
 2946 0086 C046     		.align	2
 2947              	.L295:
 2948 0088 FFFFFFFC 		.word	-50331649
 2949 008c 00181040 		.word	1074796544
 2950              		.cfi_endproc
 2951              	.LFE42:
 2952              		.size	CyDmaSetTriggerType, .-CyDmaSetTriggerType
 2953              		.section	.text.CyDmaGetTriggerType,"ax",%progbits
 2954              		.align	2
 2955              		.global	CyDmaGetTriggerType
 2956              		.code	16
 2957              		.thumb_func
 2958              		.type	CyDmaGetTriggerType, %function
 2959              	CyDmaGetTriggerType:
 2960              	.LFB43:
1237:Generated_Source\PSoC4/CyDMA.c **** 
1238:Generated_Source\PSoC4/CyDMA.c **** 
1239:Generated_Source\PSoC4/CyDMA.c **** /*******************************************************************************
1240:Generated_Source\PSoC4/CyDMA.c **** * Function Name: CyDmaGetTriggerType
1241:Generated_Source\PSoC4/CyDMA.c **** ********************************************************************************
1242:Generated_Source\PSoC4/CyDMA.c **** *
1243:Generated_Source\PSoC4/CyDMA.c **** * Summary:
1244:Generated_Source\PSoC4/CyDMA.c **** *  Returns the trigger deactivation settings as set by CyDmaSetTriggerType() or
1245:Generated_Source\PSoC4/CyDMA.c **** *  CyDmaSetConfiguration().
1246:Generated_Source\PSoC4/CyDMA.c **** *
1247:Generated_Source\PSoC4/CyDMA.c **** * Parameters:
1248:Generated_Source\PSoC4/CyDMA.c **** *  channel:    Channel used by this function.
ARM GAS  C:\Users\andrew\AppData\Local\Temp\cc52BSo9.s 			page 75


1249:Generated_Source\PSoC4/CyDMA.c **** *  descriptor: Descriptor (0 or 1) modified by this function.
1250:Generated_Source\PSoC4/CyDMA.c **** *                   
1251:Generated_Source\PSoC4/CyDMA.c **** * Return:
1252:Generated_Source\PSoC4/CyDMA.c **** *  Trigger deactivation settings. Refer to the API bit field definitions in
1253:Generated_Source\PSoC4/CyDMA.c **** *  CyDMA_P4.h or the API description in the DMA channel datasheet for more
1254:Generated_Source\PSoC4/CyDMA.c **** *  information.
1255:Generated_Source\PSoC4/CyDMA.c **** *
1256:Generated_Source\PSoC4/CyDMA.c **** *******************************************************************************/
1257:Generated_Source\PSoC4/CyDMA.c **** uint32 CyDmaGetTriggerType(int32 channel, int32 descriptor)
1258:Generated_Source\PSoC4/CyDMA.c **** {
 2961              		.loc 1 1258 0
 2962              		.cfi_startproc
 2963              		@ args = 0, pretend = 0, frame = 8
 2964              		@ frame_needed = 0, uses_anonymous_args = 0
 2965 0000 00B5     		push	{lr}
 2966              		.cfi_def_cfa_offset 4
 2967              		.cfi_offset 14, -4
 2968 0002 83B0     		sub	sp, sp, #12
 2969              		.cfi_def_cfa_offset 16
 2970 0004 0190     		str	r0, [sp, #4]
 2971 0006 0091     		str	r1, [sp]
1259:Generated_Source\PSoC4/CyDMA.c ****     CYASSERT((channel    >= 0) && (channel    < CYDMA_CH_NR));
 2972              		.loc 1 1259 0
 2973 0008 019B     		ldr	r3, [sp, #4]
 2974 000a 002B     		cmp	r3, #0
 2975 000c 04DB     		blt	.L298
 2976              		.loc 1 1259 0 is_stmt 0 discriminator 1
 2977 000e 019B     		ldr	r3, [sp, #4]
 2978 0010 072B     		cmp	r3, #7
 2979 0012 01DC     		bgt	.L298
 2980              		.loc 1 1259 0 discriminator 3
 2981 0014 0123     		movs	r3, #1
 2982 0016 00E0     		b	.L299
 2983              	.L298:
 2984              		.loc 1 1259 0 discriminator 4
 2985 0018 0023     		movs	r3, #0
 2986              	.L299:
 2987              		.loc 1 1259 0 discriminator 6
 2988 001a 002B     		cmp	r3, #0
 2989 001c 02D1     		bne	.L300
 2990              		.loc 1 1259 0 discriminator 7
 2991 001e 0020     		movs	r0, #0
 2992 0020 FFF7FEFF 		bl	CyHalt
 2993              	.L300:
1260:Generated_Source\PSoC4/CyDMA.c ****     CYASSERT((descriptor >= 0) && (descriptor < CYDMA_DESCR_NR));
 2994              		.loc 1 1260 0 is_stmt 1
 2995 0024 009B     		ldr	r3, [sp]
 2996 0026 002B     		cmp	r3, #0
 2997 0028 04DB     		blt	.L301
 2998              		.loc 1 1260 0 is_stmt 0 discriminator 1
 2999 002a 009B     		ldr	r3, [sp]
 3000 002c 012B     		cmp	r3, #1
 3001 002e 01DC     		bgt	.L301
 3002              		.loc 1 1260 0 discriminator 3
 3003 0030 0123     		movs	r3, #1
 3004 0032 00E0     		b	.L302
 3005              	.L301:
ARM GAS  C:\Users\andrew\AppData\Local\Temp\cc52BSo9.s 			page 76


 3006              		.loc 1 1260 0 discriminator 4
 3007 0034 0023     		movs	r3, #0
 3008              	.L302:
 3009              		.loc 1 1260 0 discriminator 6
 3010 0036 002B     		cmp	r3, #0
 3011 0038 02D1     		bne	.L303
 3012              		.loc 1 1260 0 discriminator 7
 3013 003a 0020     		movs	r0, #0
 3014 003c FFF7FEFF 		bl	CyHalt
 3015              	.L303:
1261:Generated_Source\PSoC4/CyDMA.c **** 
1262:Generated_Source\PSoC4/CyDMA.c ****     return (CYDMA_DESCR_BASE.descriptor[channel][descriptor].ctl & CYDMA_TRIGGER_TYPE);
 3016              		.loc 1 1262 0 is_stmt 1
 3017 0040 0749     		ldr	r1, .L305
 3018 0042 019B     		ldr	r3, [sp, #4]
 3019 0044 5A00     		lsls	r2, r3, #1
 3020 0046 009B     		ldr	r3, [sp]
 3021 0048 D318     		adds	r3, r2, r3
 3022 004a 1B01     		lsls	r3, r3, #4
 3023 004c CB18     		adds	r3, r1, r3
 3024 004e 0833     		adds	r3, r3, #8
 3025 0050 1A68     		ldr	r2, [r3]
 3026 0052 C023     		movs	r3, #192
 3027 0054 9B04     		lsls	r3, r3, #18
 3028 0056 1340     		ands	r3, r2
1263:Generated_Source\PSoC4/CyDMA.c **** }
 3029              		.loc 1 1263 0
 3030 0058 1800     		movs	r0, r3
 3031 005a 03B0     		add	sp, sp, #12
 3032              		@ sp needed
 3033 005c 00BD     		pop	{pc}
 3034              	.L306:
 3035 005e C046     		.align	2
 3036              	.L305:
 3037 0060 00181040 		.word	1074796544
 3038              		.cfi_endproc
 3039              	.LFE43:
 3040              		.size	CyDmaGetTriggerType, .-CyDmaGetTriggerType
 3041              		.section	.text.CyDmaSetTransferMode,"ax",%progbits
 3042              		.align	2
 3043              		.global	CyDmaSetTransferMode
 3044              		.code	16
 3045              		.thumb_func
 3046              		.type	CyDmaSetTransferMode, %function
 3047              	CyDmaSetTransferMode:
 3048              	.LFB44:
1264:Generated_Source\PSoC4/CyDMA.c **** 
1265:Generated_Source\PSoC4/CyDMA.c **** 
1266:Generated_Source\PSoC4/CyDMA.c **** /*******************************************************************************
1267:Generated_Source\PSoC4/CyDMA.c **** * Function Name: CyDmaSetTransferMode
1268:Generated_Source\PSoC4/CyDMA.c **** ********************************************************************************
1269:Generated_Source\PSoC4/CyDMA.c **** *
1270:Generated_Source\PSoC4/CyDMA.c **** * Summary:
1271:Generated_Source\PSoC4/CyDMA.c **** *  Sets the DMA transfer mode. This determines how the DMA reacts to each trigger
1272:Generated_Source\PSoC4/CyDMA.c **** *  event.
1273:Generated_Source\PSoC4/CyDMA.c **** *
1274:Generated_Source\PSoC4/CyDMA.c **** * Parameters:
ARM GAS  C:\Users\andrew\AppData\Local\Temp\cc52BSo9.s 			page 77


1275:Generated_Source\PSoC4/CyDMA.c **** *  channel:      Channel used by this function.
1276:Generated_Source\PSoC4/CyDMA.c **** *  descriptor:   Descriptor (0 or 1) modified by this function.
1277:Generated_Source\PSoC4/CyDMA.c **** *  transferMode: Specifies the DMA transfer mode settings. Refer to the API bit
1278:Generated_Source\PSoC4/CyDMA.c **** *                field definitions in CyDMA_P4.h or the API description in the
1279:Generated_Source\PSoC4/CyDMA.c **** *                DMA channel datasheet for the parameter options.
1280:Generated_Source\PSoC4/CyDMA.c **** *                   
1281:Generated_Source\PSoC4/CyDMA.c **** * Return:
1282:Generated_Source\PSoC4/CyDMA.c **** *  None.
1283:Generated_Source\PSoC4/CyDMA.c **** *
1284:Generated_Source\PSoC4/CyDMA.c **** * Side effect:
1285:Generated_Source\PSoC4/CyDMA.c **** *  This function should not be called when the specified descriptor is active
1286:Generated_Source\PSoC4/CyDMA.c **** *  in the DMA transfer engine. This can be checked by calling CyDmaGetStatus(). 
1287:Generated_Source\PSoC4/CyDMA.c **** *
1288:Generated_Source\PSoC4/CyDMA.c **** *******************************************************************************/
1289:Generated_Source\PSoC4/CyDMA.c **** void CyDmaSetTransferMode(int32 channel, int32 descriptor, uint32 transferMode)
1290:Generated_Source\PSoC4/CyDMA.c **** {
 3049              		.loc 1 1290 0
 3050              		.cfi_startproc
 3051              		@ args = 0, pretend = 0, frame = 24
 3052              		@ frame_needed = 0, uses_anonymous_args = 0
 3053 0000 00B5     		push	{lr}
 3054              		.cfi_def_cfa_offset 4
 3055              		.cfi_offset 14, -4
 3056 0002 87B0     		sub	sp, sp, #28
 3057              		.cfi_def_cfa_offset 32
 3058 0004 0390     		str	r0, [sp, #12]
 3059 0006 0291     		str	r1, [sp, #8]
 3060 0008 0192     		str	r2, [sp, #4]
1291:Generated_Source\PSoC4/CyDMA.c ****     uint32 regValue;
1292:Generated_Source\PSoC4/CyDMA.c **** 
1293:Generated_Source\PSoC4/CyDMA.c ****     CYASSERT((channel    >= 0) && (channel    < CYDMA_CH_NR));
 3061              		.loc 1 1293 0
 3062 000a 039B     		ldr	r3, [sp, #12]
 3063 000c 002B     		cmp	r3, #0
 3064 000e 04DB     		blt	.L308
 3065              		.loc 1 1293 0 is_stmt 0 discriminator 1
 3066 0010 039B     		ldr	r3, [sp, #12]
 3067 0012 072B     		cmp	r3, #7
 3068 0014 01DC     		bgt	.L308
 3069              		.loc 1 1293 0 discriminator 3
 3070 0016 0123     		movs	r3, #1
 3071 0018 00E0     		b	.L309
 3072              	.L308:
 3073              		.loc 1 1293 0 discriminator 4
 3074 001a 0023     		movs	r3, #0
 3075              	.L309:
 3076              		.loc 1 1293 0 discriminator 6
 3077 001c 002B     		cmp	r3, #0
 3078 001e 02D1     		bne	.L310
 3079              		.loc 1 1293 0 discriminator 7
 3080 0020 0020     		movs	r0, #0
 3081 0022 FFF7FEFF 		bl	CyHalt
 3082              	.L310:
1294:Generated_Source\PSoC4/CyDMA.c ****     CYASSERT((descriptor >= 0) && (descriptor < CYDMA_DESCR_NR));
 3083              		.loc 1 1294 0 is_stmt 1
 3084 0026 029B     		ldr	r3, [sp, #8]
 3085 0028 002B     		cmp	r3, #0
ARM GAS  C:\Users\andrew\AppData\Local\Temp\cc52BSo9.s 			page 78


 3086 002a 04DB     		blt	.L311
 3087              		.loc 1 1294 0 is_stmt 0 discriminator 1
 3088 002c 029B     		ldr	r3, [sp, #8]
 3089 002e 012B     		cmp	r3, #1
 3090 0030 01DC     		bgt	.L311
 3091              		.loc 1 1294 0 discriminator 3
 3092 0032 0123     		movs	r3, #1
 3093 0034 00E0     		b	.L312
 3094              	.L311:
 3095              		.loc 1 1294 0 discriminator 4
 3096 0036 0023     		movs	r3, #0
 3097              	.L312:
 3098              		.loc 1 1294 0 discriminator 6
 3099 0038 002B     		cmp	r3, #0
 3100 003a 02D1     		bne	.L313
 3101              		.loc 1 1294 0 discriminator 7
 3102 003c 0020     		movs	r0, #0
 3103 003e FFF7FEFF 		bl	CyHalt
 3104              	.L313:
1295:Generated_Source\PSoC4/CyDMA.c ****     CYASSERT(0u == (transferMode & (uint32)~CYDMA_TRANSFER_MODE));
 3105              		.loc 1 1295 0 is_stmt 1
 3106 0042 019B     		ldr	r3, [sp, #4]
 3107 0044 9B00     		lsls	r3, r3, #2
 3108 0046 9B08     		lsrs	r3, r3, #2
 3109 0048 02D0     		beq	.L314
 3110              		.loc 1 1295 0 is_stmt 0 discriminator 1
 3111 004a 0020     		movs	r0, #0
 3112 004c FFF7FEFF 		bl	CyHalt
 3113              	.L314:
1296:Generated_Source\PSoC4/CyDMA.c **** 
1297:Generated_Source\PSoC4/CyDMA.c ****     regValue = CYDMA_DESCR_BASE.descriptor[channel][descriptor].ctl & (uint32)~CYDMA_TRANSFER_MODE;
 3114              		.loc 1 1297 0 is_stmt 1
 3115 0050 0D49     		ldr	r1, .L315
 3116 0052 039B     		ldr	r3, [sp, #12]
 3117 0054 5A00     		lsls	r2, r3, #1
 3118 0056 029B     		ldr	r3, [sp, #8]
 3119 0058 D318     		adds	r3, r2, r3
 3120 005a 1B01     		lsls	r3, r3, #4
 3121 005c CB18     		adds	r3, r1, r3
 3122 005e 0833     		adds	r3, r3, #8
 3123 0060 1B68     		ldr	r3, [r3]
 3124 0062 9B00     		lsls	r3, r3, #2
 3125 0064 9B08     		lsrs	r3, r3, #2
 3126 0066 0593     		str	r3, [sp, #20]
1298:Generated_Source\PSoC4/CyDMA.c ****     CYDMA_DESCR_BASE.descriptor[channel][descriptor].ctl = regValue | transferMode;
 3127              		.loc 1 1298 0
 3128 0068 0748     		ldr	r0, .L315
 3129 006a 059A     		ldr	r2, [sp, #20]
 3130 006c 019B     		ldr	r3, [sp, #4]
 3131 006e 1A43     		orrs	r2, r3
 3132 0070 039B     		ldr	r3, [sp, #12]
 3133 0072 5900     		lsls	r1, r3, #1
 3134 0074 029B     		ldr	r3, [sp, #8]
 3135 0076 CB18     		adds	r3, r1, r3
 3136 0078 1B01     		lsls	r3, r3, #4
 3137 007a C318     		adds	r3, r0, r3
 3138 007c 0833     		adds	r3, r3, #8
ARM GAS  C:\Users\andrew\AppData\Local\Temp\cc52BSo9.s 			page 79


 3139 007e 1A60     		str	r2, [r3]
1299:Generated_Source\PSoC4/CyDMA.c **** }
 3140              		.loc 1 1299 0
 3141 0080 C046     		nop
 3142 0082 07B0     		add	sp, sp, #28
 3143              		@ sp needed
 3144 0084 00BD     		pop	{pc}
 3145              	.L316:
 3146 0086 C046     		.align	2
 3147              	.L315:
 3148 0088 00181040 		.word	1074796544
 3149              		.cfi_endproc
 3150              	.LFE44:
 3151              		.size	CyDmaSetTransferMode, .-CyDmaSetTransferMode
 3152              		.section	.text.CyDmaGetTransferMode,"ax",%progbits
 3153              		.align	2
 3154              		.global	CyDmaGetTransferMode
 3155              		.code	16
 3156              		.thumb_func
 3157              		.type	CyDmaGetTransferMode, %function
 3158              	CyDmaGetTransferMode:
 3159              	.LFB45:
1300:Generated_Source\PSoC4/CyDMA.c **** 
1301:Generated_Source\PSoC4/CyDMA.c **** 
1302:Generated_Source\PSoC4/CyDMA.c **** /*******************************************************************************
1303:Generated_Source\PSoC4/CyDMA.c **** * Function Name: CyDmaGetTransferMode
1304:Generated_Source\PSoC4/CyDMA.c **** ********************************************************************************
1305:Generated_Source\PSoC4/CyDMA.c **** *
1306:Generated_Source\PSoC4/CyDMA.c **** * Summary:
1307:Generated_Source\PSoC4/CyDMA.c **** *  Returns the transfer mode for the specified descriptor as set by 
1308:Generated_Source\PSoC4/CyDMA.c **** *  CyDmaSetTransferMode() or CyDmaSetConfiguration.
1309:Generated_Source\PSoC4/CyDMA.c **** *
1310:Generated_Source\PSoC4/CyDMA.c **** * Parameters:
1311:Generated_Source\PSoC4/CyDMA.c **** *  channel:    Channel used by this function.
1312:Generated_Source\PSoC4/CyDMA.c **** *  descriptor: Descriptor (0 or 1) modified by this function.
1313:Generated_Source\PSoC4/CyDMA.c **** *                   
1314:Generated_Source\PSoC4/CyDMA.c **** * Return:
1315:Generated_Source\PSoC4/CyDMA.c **** *  DMA transfer mode settings. Refer to the API bit field definitions in
1316:Generated_Source\PSoC4/CyDMA.c **** *  CyDMA_P4.h or the API description in the DMA channel datasheet for more
1317:Generated_Source\PSoC4/CyDMA.c **** *  information.
1318:Generated_Source\PSoC4/CyDMA.c **** *
1319:Generated_Source\PSoC4/CyDMA.c **** *******************************************************************************/
1320:Generated_Source\PSoC4/CyDMA.c **** uint32 CyDmaGetTransferMode(int32 channel, int32 descriptor)
1321:Generated_Source\PSoC4/CyDMA.c **** {
 3160              		.loc 1 1321 0
 3161              		.cfi_startproc
 3162              		@ args = 0, pretend = 0, frame = 8
 3163              		@ frame_needed = 0, uses_anonymous_args = 0
 3164 0000 00B5     		push	{lr}
 3165              		.cfi_def_cfa_offset 4
 3166              		.cfi_offset 14, -4
 3167 0002 83B0     		sub	sp, sp, #12
 3168              		.cfi_def_cfa_offset 16
 3169 0004 0190     		str	r0, [sp, #4]
 3170 0006 0091     		str	r1, [sp]
1322:Generated_Source\PSoC4/CyDMA.c ****     CYASSERT((channel    >= 0) && (channel    < CYDMA_CH_NR));
 3171              		.loc 1 1322 0
ARM GAS  C:\Users\andrew\AppData\Local\Temp\cc52BSo9.s 			page 80


 3172 0008 019B     		ldr	r3, [sp, #4]
 3173 000a 002B     		cmp	r3, #0
 3174 000c 04DB     		blt	.L318
 3175              		.loc 1 1322 0 is_stmt 0 discriminator 1
 3176 000e 019B     		ldr	r3, [sp, #4]
 3177 0010 072B     		cmp	r3, #7
 3178 0012 01DC     		bgt	.L318
 3179              		.loc 1 1322 0 discriminator 3
 3180 0014 0123     		movs	r3, #1
 3181 0016 00E0     		b	.L319
 3182              	.L318:
 3183              		.loc 1 1322 0 discriminator 4
 3184 0018 0023     		movs	r3, #0
 3185              	.L319:
 3186              		.loc 1 1322 0 discriminator 6
 3187 001a 002B     		cmp	r3, #0
 3188 001c 02D1     		bne	.L320
 3189              		.loc 1 1322 0 discriminator 7
 3190 001e 0020     		movs	r0, #0
 3191 0020 FFF7FEFF 		bl	CyHalt
 3192              	.L320:
1323:Generated_Source\PSoC4/CyDMA.c ****     CYASSERT((descriptor >= 0) && (descriptor < CYDMA_DESCR_NR));
 3193              		.loc 1 1323 0 is_stmt 1
 3194 0024 009B     		ldr	r3, [sp]
 3195 0026 002B     		cmp	r3, #0
 3196 0028 04DB     		blt	.L321
 3197              		.loc 1 1323 0 is_stmt 0 discriminator 1
 3198 002a 009B     		ldr	r3, [sp]
 3199 002c 012B     		cmp	r3, #1
 3200 002e 01DC     		bgt	.L321
 3201              		.loc 1 1323 0 discriminator 3
 3202 0030 0123     		movs	r3, #1
 3203 0032 00E0     		b	.L322
 3204              	.L321:
 3205              		.loc 1 1323 0 discriminator 4
 3206 0034 0023     		movs	r3, #0
 3207              	.L322:
 3208              		.loc 1 1323 0 discriminator 6
 3209 0036 002B     		cmp	r3, #0
 3210 0038 02D1     		bne	.L323
 3211              		.loc 1 1323 0 discriminator 7
 3212 003a 0020     		movs	r0, #0
 3213 003c FFF7FEFF 		bl	CyHalt
 3214              	.L323:
1324:Generated_Source\PSoC4/CyDMA.c **** 
1325:Generated_Source\PSoC4/CyDMA.c ****     return (CYDMA_DESCR_BASE.descriptor[channel][descriptor].ctl & CYDMA_TRANSFER_MODE);
 3215              		.loc 1 1325 0 is_stmt 1
 3216 0040 0649     		ldr	r1, .L325
 3217 0042 019B     		ldr	r3, [sp, #4]
 3218 0044 5A00     		lsls	r2, r3, #1
 3219 0046 009B     		ldr	r3, [sp]
 3220 0048 D318     		adds	r3, r2, r3
 3221 004a 1B01     		lsls	r3, r3, #4
 3222 004c CB18     		adds	r3, r1, r3
 3223 004e 0833     		adds	r3, r3, #8
 3224 0050 1B68     		ldr	r3, [r3]
 3225 0052 9B0F     		lsrs	r3, r3, #30
ARM GAS  C:\Users\andrew\AppData\Local\Temp\cc52BSo9.s 			page 81


 3226 0054 9B07     		lsls	r3, r3, #30
1326:Generated_Source\PSoC4/CyDMA.c **** }
 3227              		.loc 1 1326 0
 3228 0056 1800     		movs	r0, r3
 3229 0058 03B0     		add	sp, sp, #12
 3230              		@ sp needed
 3231 005a 00BD     		pop	{pc}
 3232              	.L326:
 3233              		.align	2
 3234              	.L325:
 3235 005c 00181040 		.word	1074796544
 3236              		.cfi_endproc
 3237              	.LFE45:
 3238              		.size	CyDmaGetTransferMode, .-CyDmaGetTransferMode
 3239              		.section	.text.CyDmaSetPreemptable,"ax",%progbits
 3240              		.align	2
 3241              		.global	CyDmaSetPreemptable
 3242              		.code	16
 3243              		.thumb_func
 3244              		.type	CyDmaSetPreemptable, %function
 3245              	CyDmaSetPreemptable:
 3246              	.LFB46:
1327:Generated_Source\PSoC4/CyDMA.c **** 
1328:Generated_Source\PSoC4/CyDMA.c **** 
1329:Generated_Source\PSoC4/CyDMA.c **** /*******************************************************************************
1330:Generated_Source\PSoC4/CyDMA.c **** * Function Name: CyDmaSetPreemptable
1331:Generated_Source\PSoC4/CyDMA.c **** ********************************************************************************
1332:Generated_Source\PSoC4/CyDMA.c **** *
1333:Generated_Source\PSoC4/CyDMA.c **** * Summary:
1334:Generated_Source\PSoC4/CyDMA.c **** *  Determines if the descriptor is preemptable.
1335:Generated_Source\PSoC4/CyDMA.c **** *
1336:Generated_Source\PSoC4/CyDMA.c **** * Parameters:
1337:Generated_Source\PSoC4/CyDMA.c **** *  channel:     Channel used by this function.
1338:Generated_Source\PSoC4/CyDMA.c **** *  descriptor:  Descriptor (0 or 1) modified by this function.
1339:Generated_Source\PSoC4/CyDMA.c **** *  preemptable: Descriptor preemption settings. Refer to the API bit fields
1340:Generated_Source\PSoC4/CyDMA.c **** *               definition in CyDMA_P4.h or the API description in the DMA 
1341:Generated_Source\PSoC4/CyDMA.c **** *               channel datasheet for the parameter options.
1342:Generated_Source\PSoC4/CyDMA.c **** *                   
1343:Generated_Source\PSoC4/CyDMA.c **** * Return:
1344:Generated_Source\PSoC4/CyDMA.c **** *  None.
1345:Generated_Source\PSoC4/CyDMA.c **** *
1346:Generated_Source\PSoC4/CyDMA.c **** * Side effect:
1347:Generated_Source\PSoC4/CyDMA.c **** *  This function should not be called when the specified descriptor is active
1348:Generated_Source\PSoC4/CyDMA.c **** *  in the DMA transfer engine. This can be checked by calling CyDmaGetStatus(). 
1349:Generated_Source\PSoC4/CyDMA.c **** *
1350:Generated_Source\PSoC4/CyDMA.c **** *******************************************************************************/
1351:Generated_Source\PSoC4/CyDMA.c **** void CyDmaSetPreemptable(int32 channel, int32 descriptor, uint32 preemptable)
1352:Generated_Source\PSoC4/CyDMA.c **** {
 3247              		.loc 1 1352 0
 3248              		.cfi_startproc
 3249              		@ args = 0, pretend = 0, frame = 24
 3250              		@ frame_needed = 0, uses_anonymous_args = 0
 3251 0000 00B5     		push	{lr}
 3252              		.cfi_def_cfa_offset 4
 3253              		.cfi_offset 14, -4
 3254 0002 87B0     		sub	sp, sp, #28
 3255              		.cfi_def_cfa_offset 32
ARM GAS  C:\Users\andrew\AppData\Local\Temp\cc52BSo9.s 			page 82


 3256 0004 0390     		str	r0, [sp, #12]
 3257 0006 0291     		str	r1, [sp, #8]
 3258 0008 0192     		str	r2, [sp, #4]
1353:Generated_Source\PSoC4/CyDMA.c ****     uint32 regValue;
1354:Generated_Source\PSoC4/CyDMA.c **** 
1355:Generated_Source\PSoC4/CyDMA.c ****     CYASSERT((channel    >= 0) && (channel    < CYDMA_CH_NR));
 3259              		.loc 1 1355 0
 3260 000a 039B     		ldr	r3, [sp, #12]
 3261 000c 002B     		cmp	r3, #0
 3262 000e 04DB     		blt	.L328
 3263              		.loc 1 1355 0 is_stmt 0 discriminator 1
 3264 0010 039B     		ldr	r3, [sp, #12]
 3265 0012 072B     		cmp	r3, #7
 3266 0014 01DC     		bgt	.L328
 3267              		.loc 1 1355 0 discriminator 3
 3268 0016 0123     		movs	r3, #1
 3269 0018 00E0     		b	.L329
 3270              	.L328:
 3271              		.loc 1 1355 0 discriminator 4
 3272 001a 0023     		movs	r3, #0
 3273              	.L329:
 3274              		.loc 1 1355 0 discriminator 6
 3275 001c 002B     		cmp	r3, #0
 3276 001e 02D1     		bne	.L330
 3277              		.loc 1 1355 0 discriminator 7
 3278 0020 0020     		movs	r0, #0
 3279 0022 FFF7FEFF 		bl	CyHalt
 3280              	.L330:
1356:Generated_Source\PSoC4/CyDMA.c ****     CYASSERT((descriptor >= 0) && (descriptor < CYDMA_DESCR_NR));
 3281              		.loc 1 1356 0 is_stmt 1
 3282 0026 029B     		ldr	r3, [sp, #8]
 3283 0028 002B     		cmp	r3, #0
 3284 002a 04DB     		blt	.L331
 3285              		.loc 1 1356 0 is_stmt 0 discriminator 1
 3286 002c 029B     		ldr	r3, [sp, #8]
 3287 002e 012B     		cmp	r3, #1
 3288 0030 01DC     		bgt	.L331
 3289              		.loc 1 1356 0 discriminator 3
 3290 0032 0123     		movs	r3, #1
 3291 0034 00E0     		b	.L332
 3292              	.L331:
 3293              		.loc 1 1356 0 discriminator 4
 3294 0036 0023     		movs	r3, #0
 3295              	.L332:
 3296              		.loc 1 1356 0 discriminator 6
 3297 0038 002B     		cmp	r3, #0
 3298 003a 02D1     		bne	.L333
 3299              		.loc 1 1356 0 discriminator 7
 3300 003c 0020     		movs	r0, #0
 3301 003e FFF7FEFF 		bl	CyHalt
 3302              	.L333:
1357:Generated_Source\PSoC4/CyDMA.c ****     CYASSERT(0u == (preemptable & (uint32)~CYDMA_PREEMPTABLE));
 3303              		.loc 1 1357 0 is_stmt 1
 3304 0042 019B     		ldr	r3, [sp, #4]
 3305 0044 104A     		ldr	r2, .L335
 3306 0046 1340     		ands	r3, r2
 3307 0048 02D0     		beq	.L334
ARM GAS  C:\Users\andrew\AppData\Local\Temp\cc52BSo9.s 			page 83


 3308              		.loc 1 1357 0 is_stmt 0 discriminator 1
 3309 004a 0020     		movs	r0, #0
 3310 004c FFF7FEFF 		bl	CyHalt
 3311              	.L334:
1358:Generated_Source\PSoC4/CyDMA.c **** 
1359:Generated_Source\PSoC4/CyDMA.c ****     regValue = CYDMA_DESCR_BASE.descriptor[channel][descriptor].ctl & (uint32)~CYDMA_PREEMPTABLE;
 3312              		.loc 1 1359 0 is_stmt 1
 3313 0050 0E49     		ldr	r1, .L335+4
 3314 0052 039B     		ldr	r3, [sp, #12]
 3315 0054 5A00     		lsls	r2, r3, #1
 3316 0056 029B     		ldr	r3, [sp, #8]
 3317 0058 D318     		adds	r3, r2, r3
 3318 005a 1B01     		lsls	r3, r3, #4
 3319 005c CB18     		adds	r3, r1, r3
 3320 005e 0833     		adds	r3, r3, #8
 3321 0060 1B68     		ldr	r3, [r3]
 3322 0062 094A     		ldr	r2, .L335
 3323 0064 1340     		ands	r3, r2
 3324 0066 0593     		str	r3, [sp, #20]
1360:Generated_Source\PSoC4/CyDMA.c ****     CYDMA_DESCR_BASE.descriptor[channel][descriptor].ctl = regValue | preemptable;
 3325              		.loc 1 1360 0
 3326 0068 0848     		ldr	r0, .L335+4
 3327 006a 059A     		ldr	r2, [sp, #20]
 3328 006c 019B     		ldr	r3, [sp, #4]
 3329 006e 1A43     		orrs	r2, r3
 3330 0070 039B     		ldr	r3, [sp, #12]
 3331 0072 5900     		lsls	r1, r3, #1
 3332 0074 029B     		ldr	r3, [sp, #8]
 3333 0076 CB18     		adds	r3, r1, r3
 3334 0078 1B01     		lsls	r3, r3, #4
 3335 007a C318     		adds	r3, r0, r3
 3336 007c 0833     		adds	r3, r3, #8
 3337 007e 1A60     		str	r2, [r3]
1361:Generated_Source\PSoC4/CyDMA.c **** }
 3338              		.loc 1 1361 0
 3339 0080 C046     		nop
 3340 0082 07B0     		add	sp, sp, #28
 3341              		@ sp needed
 3342 0084 00BD     		pop	{pc}
 3343              	.L336:
 3344 0086 C046     		.align	2
 3345              	.L335:
 3346 0088 FFFFFFEF 		.word	-268435457
 3347 008c 00181040 		.word	1074796544
 3348              		.cfi_endproc
 3349              	.LFE46:
 3350              		.size	CyDmaSetPreemptable, .-CyDmaSetPreemptable
 3351              		.section	.text.CyDmaGetPreemptable,"ax",%progbits
 3352              		.align	2
 3353              		.global	CyDmaGetPreemptable
 3354              		.code	16
 3355              		.thumb_func
 3356              		.type	CyDmaGetPreemptable, %function
 3357              	CyDmaGetPreemptable:
 3358              	.LFB47:
1362:Generated_Source\PSoC4/CyDMA.c **** 
1363:Generated_Source\PSoC4/CyDMA.c **** 
ARM GAS  C:\Users\andrew\AppData\Local\Temp\cc52BSo9.s 			page 84


1364:Generated_Source\PSoC4/CyDMA.c **** /*******************************************************************************
1365:Generated_Source\PSoC4/CyDMA.c **** * Function Name: CyDmaGetPreemptable
1366:Generated_Source\PSoC4/CyDMA.c **** ********************************************************************************
1367:Generated_Source\PSoC4/CyDMA.c **** *
1368:Generated_Source\PSoC4/CyDMA.c **** * Summary:
1369:Generated_Source\PSoC4/CyDMA.c **** *  Returns whether or not the descriptor is preemptable.
1370:Generated_Source\PSoC4/CyDMA.c **** *
1371:Generated_Source\PSoC4/CyDMA.c **** * Parameters:
1372:Generated_Source\PSoC4/CyDMA.c **** *  channel:    Channel used by this function.
1373:Generated_Source\PSoC4/CyDMA.c **** *  descriptor: Descriptor (0 or 1) modified by this function.
1374:Generated_Source\PSoC4/CyDMA.c **** *                   
1375:Generated_Source\PSoC4/CyDMA.c **** * Return:
1376:Generated_Source\PSoC4/CyDMA.c **** *  Descriptor preemption setting. Refer to the API bit field definitions in
1377:Generated_Source\PSoC4/CyDMA.c **** *  CyDMA_P4.h or the API description in the DMA channel datasheet for more
1378:Generated_Source\PSoC4/CyDMA.c **** *  information.
1379:Generated_Source\PSoC4/CyDMA.c **** *
1380:Generated_Source\PSoC4/CyDMA.c **** *******************************************************************************/
1381:Generated_Source\PSoC4/CyDMA.c **** uint32 CyDmaGetPreemptable(int32 channel, int32 descriptor)
1382:Generated_Source\PSoC4/CyDMA.c **** {
 3359              		.loc 1 1382 0
 3360              		.cfi_startproc
 3361              		@ args = 0, pretend = 0, frame = 8
 3362              		@ frame_needed = 0, uses_anonymous_args = 0
 3363 0000 00B5     		push	{lr}
 3364              		.cfi_def_cfa_offset 4
 3365              		.cfi_offset 14, -4
 3366 0002 83B0     		sub	sp, sp, #12
 3367              		.cfi_def_cfa_offset 16
 3368 0004 0190     		str	r0, [sp, #4]
 3369 0006 0091     		str	r1, [sp]
1383:Generated_Source\PSoC4/CyDMA.c ****     CYASSERT((channel    >= 0) && (channel    < CYDMA_CH_NR));
 3370              		.loc 1 1383 0
 3371 0008 019B     		ldr	r3, [sp, #4]
 3372 000a 002B     		cmp	r3, #0
 3373 000c 04DB     		blt	.L338
 3374              		.loc 1 1383 0 is_stmt 0 discriminator 1
 3375 000e 019B     		ldr	r3, [sp, #4]
 3376 0010 072B     		cmp	r3, #7
 3377 0012 01DC     		bgt	.L338
 3378              		.loc 1 1383 0 discriminator 3
 3379 0014 0123     		movs	r3, #1
 3380 0016 00E0     		b	.L339
 3381              	.L338:
 3382              		.loc 1 1383 0 discriminator 4
 3383 0018 0023     		movs	r3, #0
 3384              	.L339:
 3385              		.loc 1 1383 0 discriminator 6
 3386 001a 002B     		cmp	r3, #0
 3387 001c 02D1     		bne	.L340
 3388              		.loc 1 1383 0 discriminator 7
 3389 001e 0020     		movs	r0, #0
 3390 0020 FFF7FEFF 		bl	CyHalt
 3391              	.L340:
1384:Generated_Source\PSoC4/CyDMA.c ****     CYASSERT((descriptor >= 0) && (descriptor < CYDMA_DESCR_NR));
 3392              		.loc 1 1384 0 is_stmt 1
 3393 0024 009B     		ldr	r3, [sp]
 3394 0026 002B     		cmp	r3, #0
ARM GAS  C:\Users\andrew\AppData\Local\Temp\cc52BSo9.s 			page 85


 3395 0028 04DB     		blt	.L341
 3396              		.loc 1 1384 0 is_stmt 0 discriminator 1
 3397 002a 009B     		ldr	r3, [sp]
 3398 002c 012B     		cmp	r3, #1
 3399 002e 01DC     		bgt	.L341
 3400              		.loc 1 1384 0 discriminator 3
 3401 0030 0123     		movs	r3, #1
 3402 0032 00E0     		b	.L342
 3403              	.L341:
 3404              		.loc 1 1384 0 discriminator 4
 3405 0034 0023     		movs	r3, #0
 3406              	.L342:
 3407              		.loc 1 1384 0 discriminator 6
 3408 0036 002B     		cmp	r3, #0
 3409 0038 02D1     		bne	.L343
 3410              		.loc 1 1384 0 discriminator 7
 3411 003a 0020     		movs	r0, #0
 3412 003c FFF7FEFF 		bl	CyHalt
 3413              	.L343:
1385:Generated_Source\PSoC4/CyDMA.c **** 
1386:Generated_Source\PSoC4/CyDMA.c ****     return (CYDMA_DESCR_BASE.descriptor[channel][descriptor].ctl & CYDMA_PREEMPTABLE);
 3414              		.loc 1 1386 0 is_stmt 1
 3415 0040 0749     		ldr	r1, .L345
 3416 0042 019B     		ldr	r3, [sp, #4]
 3417 0044 5A00     		lsls	r2, r3, #1
 3418 0046 009B     		ldr	r3, [sp]
 3419 0048 D318     		adds	r3, r2, r3
 3420 004a 1B01     		lsls	r3, r3, #4
 3421 004c CB18     		adds	r3, r1, r3
 3422 004e 0833     		adds	r3, r3, #8
 3423 0050 1A68     		ldr	r2, [r3]
 3424 0052 8023     		movs	r3, #128
 3425 0054 5B05     		lsls	r3, r3, #21
 3426 0056 1340     		ands	r3, r2
1387:Generated_Source\PSoC4/CyDMA.c **** }
 3427              		.loc 1 1387 0
 3428 0058 1800     		movs	r0, r3
 3429 005a 03B0     		add	sp, sp, #12
 3430              		@ sp needed
 3431 005c 00BD     		pop	{pc}
 3432              	.L346:
 3433 005e C046     		.align	2
 3434              	.L345:
 3435 0060 00181040 		.word	1074796544
 3436              		.cfi_endproc
 3437              	.LFE47:
 3438              		.size	CyDmaGetPreemptable, .-CyDmaGetPreemptable
 3439              		.section	.text.CyDmaSetPostCompletionActions,"ax",%progbits
 3440              		.align	2
 3441              		.global	CyDmaSetPostCompletionActions
 3442              		.code	16
 3443              		.thumb_func
 3444              		.type	CyDmaSetPostCompletionActions, %function
 3445              	CyDmaSetPostCompletionActions:
 3446              	.LFB48:
1388:Generated_Source\PSoC4/CyDMA.c **** 
1389:Generated_Source\PSoC4/CyDMA.c **** 
ARM GAS  C:\Users\andrew\AppData\Local\Temp\cc52BSo9.s 			page 86


1390:Generated_Source\PSoC4/CyDMA.c **** /*******************************************************************************
1391:Generated_Source\PSoC4/CyDMA.c **** * Function Name: CyDmaSetPostCompletionActions
1392:Generated_Source\PSoC4/CyDMA.c **** ********************************************************************************
1393:Generated_Source\PSoC4/CyDMA.c **** *
1394:Generated_Source\PSoC4/CyDMA.c **** * Summary:
