ARM GAS  C:\Users\andrew\AppData\Local\Temp\ccD3fw92.s 			page 1


   1              		.syntax unified
   2              		.cpu cortex-m0
   3              		.fpu softvfp
   4              		.eabi_attribute 20, 1
   5              		.eabi_attribute 21, 1
   6              		.eabi_attribute 23, 3
   7              		.eabi_attribute 24, 1
   8              		.eabi_attribute 25, 1
   9              		.eabi_attribute 26, 1
  10              		.eabi_attribute 30, 6
  11              		.eabi_attribute 34, 0
  12              		.eabi_attribute 18, 4
  13              		.thumb
  14              		.syntax unified
  15              		.file	"hmac.c"
  16              		.text
  17              	.Ltext0:
  18              		.cfi_sections	.debug_frame
  19              		.section	.text.xor_b8,"ax",%progbits
  20              		.align	2
  21              		.code	16
  22              		.thumb_func
  23              		.type	xor_b8, %function
  24              	xor_b8:
  25              	.LFB12:
  26              		.file 1 "bitops.h"
   1:bitops.h      **** /*
   2:bitops.h      ****  * cifra - embedded cryptography library
   3:bitops.h      ****  * Written in 2014 by Joseph Birr-Pixton <jpixton@gmail.com>
   4:bitops.h      ****  *
   5:bitops.h      ****  * To the extent possible under law, the author(s) have dedicated all
   6:bitops.h      ****  * copyright and related and neighboring rights to this software to the
   7:bitops.h      ****  * public domain worldwide. This software is distributed without any
   8:bitops.h      ****  * warranty.
   9:bitops.h      ****  *
  10:bitops.h      ****  * You should have received a copy of the CC0 Public Domain Dedication
  11:bitops.h      ****  * along with this software. If not, see
  12:bitops.h      ****  * <http://creativecommons.org/publicdomain/zero/1.0/>.
  13:bitops.h      ****  */
  14:bitops.h      **** 
  15:bitops.h      **** #ifndef BITOPS_H
  16:bitops.h      **** #define BITOPS_H
  17:bitops.h      **** 
  18:bitops.h      **** #include <stdint.h>
  19:bitops.h      **** #include <stddef.h>
  20:bitops.h      **** 
  21:bitops.h      **** /* Assorted bitwise and common operations used in ciphers. */
  22:bitops.h      **** 
  23:bitops.h      **** /** Circularly rotate right x by n bits.
  24:bitops.h      ****  *  0 > n > 32. */
  25:bitops.h      **** static inline uint32_t rotr32(uint32_t x, unsigned n)
  26:bitops.h      **** {
  27:bitops.h      ****   return (x >> n) | (x << (32 - n));
  28:bitops.h      **** }
  29:bitops.h      **** 
  30:bitops.h      **** /** Circularly rotate left x by n bits.
  31:bitops.h      ****  *  0 > n > 32. */
ARM GAS  C:\Users\andrew\AppData\Local\Temp\ccD3fw92.s 			page 2


  32:bitops.h      **** static inline uint32_t rotl32(uint32_t x, unsigned n)
  33:bitops.h      **** {
  34:bitops.h      ****   return (x << n) | (x >> (32 - n));
  35:bitops.h      **** }
  36:bitops.h      **** 
  37:bitops.h      **** /** Circularly rotate right x by n bits.
  38:bitops.h      ****  *  0 > n > 64. */
  39:bitops.h      **** static inline uint64_t rotr64(uint64_t x, unsigned n)
  40:bitops.h      **** {
  41:bitops.h      ****   return (x >> n) | (x << (64 - n));
  42:bitops.h      **** }
  43:bitops.h      **** 
  44:bitops.h      **** /** Circularly rotate left x by n bits.
  45:bitops.h      ****  *  0 > n > 64. */
  46:bitops.h      **** static inline uint64_t rotl64(uint64_t x, unsigned n)
  47:bitops.h      **** {
  48:bitops.h      ****   return (x << n) | (x >> (64 - n));
  49:bitops.h      **** }
  50:bitops.h      **** 
  51:bitops.h      **** /** Read 4 bytes from buf, as a 32-bit big endian quantity. */
  52:bitops.h      **** static inline uint32_t read32_be(const uint8_t buf[4])
  53:bitops.h      **** {
  54:bitops.h      ****   return (buf[0] << 24) |
  55:bitops.h      ****          (buf[1] << 16) |
  56:bitops.h      ****          (buf[2] << 8) |
  57:bitops.h      ****          (buf[3]);
  58:bitops.h      **** }
  59:bitops.h      **** 
  60:bitops.h      **** /** Read 4 bytes from buf, as a 32-bit little endian quantity. */
  61:bitops.h      **** static inline uint32_t read32_le(const uint8_t buf[4])
  62:bitops.h      **** {
  63:bitops.h      ****   return (buf[3] << 24) |
  64:bitops.h      ****          (buf[2] << 16) |
  65:bitops.h      ****          (buf[1] << 8) |
  66:bitops.h      ****          (buf[0]);
  67:bitops.h      **** }
  68:bitops.h      **** 
  69:bitops.h      **** /** Read 8 bytes from buf, as a 64-bit big endian quantity. */
  70:bitops.h      **** static inline uint64_t read64_be(const uint8_t buf[8])
  71:bitops.h      **** {
  72:bitops.h      ****   uint32_t hi = read32_be(buf),
  73:bitops.h      ****            lo = read32_be(buf + 4);
  74:bitops.h      ****   return ((uint64_t)hi) << 32 |
  75:bitops.h      ****          lo;
  76:bitops.h      **** }
  77:bitops.h      **** 
  78:bitops.h      **** /** Read 8 bytes from buf, as a 64-bit little endian quantity. */
  79:bitops.h      **** static inline uint64_t read64_le(const uint8_t buf[8])
  80:bitops.h      **** {
  81:bitops.h      ****   uint32_t hi = read32_le(buf + 4),
  82:bitops.h      ****            lo = read32_le(buf);
  83:bitops.h      ****   return ((uint64_t)hi) << 32 |
  84:bitops.h      ****          lo;
  85:bitops.h      **** }
  86:bitops.h      **** 
  87:bitops.h      **** /** Encode v as a 32-bit big endian quantity into buf. */
  88:bitops.h      **** static inline void write32_be(uint32_t v, uint8_t buf[4])
ARM GAS  C:\Users\andrew\AppData\Local\Temp\ccD3fw92.s 			page 3


  89:bitops.h      **** {
  90:bitops.h      ****   *buf++ = (v >> 24) & 0xff;
  91:bitops.h      ****   *buf++ = (v >> 16) & 0xff;
  92:bitops.h      ****   *buf++ = (v >> 8) & 0xff;
  93:bitops.h      ****   *buf   = v & 0xff;
  94:bitops.h      **** }
  95:bitops.h      **** 
  96:bitops.h      **** /** Encode v as a 32-bit little endian quantity into buf. */
  97:bitops.h      **** static inline void write32_le(uint32_t v, uint8_t buf[4])
  98:bitops.h      **** {
  99:bitops.h      ****   *buf++ = v & 0xff;
 100:bitops.h      ****   *buf++ = (v >> 8) & 0xff;
 101:bitops.h      ****   *buf++ = (v >> 16) & 0xff;
 102:bitops.h      ****   *buf   = (v >> 24) & 0xff;
 103:bitops.h      **** }
 104:bitops.h      **** 
 105:bitops.h      **** /** Encode v as a 64-bit big endian quantity into buf. */
 106:bitops.h      **** static inline void write64_be(uint64_t v, uint8_t buf[8])
 107:bitops.h      **** {
 108:bitops.h      ****   *buf++ = (v >> 56) & 0xff;
 109:bitops.h      ****   *buf++ = (v >> 48) & 0xff;
 110:bitops.h      ****   *buf++ = (v >> 40) & 0xff;
 111:bitops.h      ****   *buf++ = (v >> 32) & 0xff;
 112:bitops.h      ****   *buf++ = (v >> 24) & 0xff;
 113:bitops.h      ****   *buf++ = (v >> 16) & 0xff;
 114:bitops.h      ****   *buf++ = (v >> 8) & 0xff;
 115:bitops.h      ****   *buf   = v & 0xff;
 116:bitops.h      **** }
 117:bitops.h      **** 
 118:bitops.h      **** /** Encode v as a 64-bit little endian quantity into buf. */
 119:bitops.h      **** static inline void write64_le(uint64_t v, uint8_t buf[8])
 120:bitops.h      **** {
 121:bitops.h      ****   *buf++ = v & 0xff;
 122:bitops.h      ****   *buf++ = (v >> 8) & 0xff;
 123:bitops.h      ****   *buf++ = (v >> 16) & 0xff;
 124:bitops.h      ****   *buf++ = (v >> 24) & 0xff;
 125:bitops.h      ****   *buf++ = (v >> 32) & 0xff;
 126:bitops.h      ****   *buf++ = (v >> 40) & 0xff;
 127:bitops.h      ****   *buf++ = (v >> 48) & 0xff;
 128:bitops.h      ****   *buf   = (v >> 56) & 0xff;
 129:bitops.h      **** }
 130:bitops.h      **** 
 131:bitops.h      **** /** out = in ^ b8.
 132:bitops.h      ****  *  out and in may alias. */
 133:bitops.h      **** static inline void xor_b8(uint8_t *out, const uint8_t *in, uint8_t b8, size_t len)
 134:bitops.h      **** {
  27              		.loc 1 134 0
  28              		.cfi_startproc
  29              		@ args = 0, pretend = 0, frame = 24
  30              		@ frame_needed = 0, uses_anonymous_args = 0
  31              		@ link register save eliminated.
  32 0000 86B0     		sub	sp, sp, #24
  33              		.cfi_def_cfa_offset 24
  34 0002 0390     		str	r0, [sp, #12]
  35 0004 0291     		str	r1, [sp, #8]
  36 0006 0093     		str	r3, [sp]
  37 0008 6B46     		mov	r3, sp
ARM GAS  C:\Users\andrew\AppData\Local\Temp\ccD3fw92.s 			page 4


  38 000a 0733     		adds	r3, r3, #7
  39 000c 1A70     		strb	r2, [r3]
  40              	.LBB2:
 135:bitops.h      ****   for (size_t i = 0; i < len; i++)
  41              		.loc 1 135 0
  42 000e 0023     		movs	r3, #0
  43 0010 0593     		str	r3, [sp, #20]
  44 0012 0FE0     		b	.L2
  45              	.L3:
 136:bitops.h      ****     out[i] = in[i] ^ b8;
  46              		.loc 1 136 0 discriminator 3
  47 0014 039A     		ldr	r2, [sp, #12]
  48 0016 059B     		ldr	r3, [sp, #20]
  49 0018 D318     		adds	r3, r2, r3
  50 001a 0299     		ldr	r1, [sp, #8]
  51 001c 059A     		ldr	r2, [sp, #20]
  52 001e 8A18     		adds	r2, r1, r2
  53 0020 1178     		ldrb	r1, [r2]
  54 0022 6A46     		mov	r2, sp
  55 0024 0732     		adds	r2, r2, #7
  56 0026 1278     		ldrb	r2, [r2]
  57 0028 4A40     		eors	r2, r1
  58 002a D2B2     		uxtb	r2, r2
  59 002c 1A70     		strb	r2, [r3]
 135:bitops.h      ****   for (size_t i = 0; i < len; i++)
  60              		.loc 1 135 0 discriminator 3
  61 002e 059B     		ldr	r3, [sp, #20]
  62 0030 0133     		adds	r3, r3, #1
  63 0032 0593     		str	r3, [sp, #20]
  64              	.L2:
 135:bitops.h      ****   for (size_t i = 0; i < len; i++)
  65              		.loc 1 135 0 is_stmt 0 discriminator 1
  66 0034 059A     		ldr	r2, [sp, #20]
  67 0036 009B     		ldr	r3, [sp]
  68 0038 9A42     		cmp	r2, r3
  69 003a EBD3     		bcc	.L3
  70              	.LBE2:
 137:bitops.h      **** }
  71              		.loc 1 137 0 is_stmt 1
  72 003c C046     		nop
  73 003e 06B0     		add	sp, sp, #24
  74              		@ sp needed
  75 0040 7047     		bx	lr
  76              		.cfi_endproc
  77              	.LFE12:
  78              		.size	xor_b8, .-xor_b8
  79 0042 C046     		.section	.text.mem_clean,"ax",%progbits
  80              		.align	2
  81              		.code	16
  82              		.thumb_func
  83              		.type	mem_clean, %function
  84              	mem_clean:
  85              	.LFB25:
  86              		.file 2 "handy.h"
   1:handy.h       **** #ifndef HANDY_H
   2:handy.h       **** #define HANDY_H
   3:handy.h       **** 
ARM GAS  C:\Users\andrew\AppData\Local\Temp\ccD3fw92.s 			page 5


   4:handy.h       **** #include <stddef.h>
   5:handy.h       **** #include <stdint.h>
   6:handy.h       **** #include <string.h>
   7:handy.h       **** 
   8:handy.h       **** /*
   9:handy.h       ****  * Handy CPP defines and C inline functions.
  10:handy.h       ****  */
  11:handy.h       **** 
  12:handy.h       **** /* Evaluates to the number of items in array-type variable arr. */
  13:handy.h       **** #define ARRAYCOUNT(arr) (sizeof arr / sizeof arr[0])
  14:handy.h       **** 
  15:handy.h       **** /* Normal MIN/MAX macros.  Evaluate argument expressions only once. */
  16:handy.h       **** #ifndef MIN
  17:handy.h       ****   #define MIN(x, y) \
  18:handy.h       ****     ({ typeof (x) __x = (x); \
  19:handy.h       ****        typeof (y) __y = (y); \
  20:handy.h       ****        __x < __y ? __x : __y; })
  21:handy.h       **** #endif
  22:handy.h       **** #ifndef MAX
  23:handy.h       ****   #define MAX(x, y) \
  24:handy.h       ****     ({ typeof (x) __x = (x); \
  25:handy.h       ****        typeof (y) __y = (y); \
  26:handy.h       ****        __x > __y ? __x : __y; })
  27:handy.h       **** #endif
  28:handy.h       **** 
  29:handy.h       **** /* Swap two values.  Uses GCC type inference magic. */
  30:handy.h       **** #ifndef SWAP
  31:handy.h       ****   #define SWAP(x, y) \
  32:handy.h       ****     do { \
  33:handy.h       ****       typeof (x) __tmp = (x); \
  34:handy.h       ****       (x) = (y); \
  35:handy.h       ****       (y) = __tmp; \
  36:handy.h       ****     } while (0)
  37:handy.h       **** #endif
  38:handy.h       **** 
  39:handy.h       **** /** Stringify its argument. */
  40:handy.h       **** #define STRINGIFY(x) STRINGIFY_(x)
  41:handy.h       **** #define STRINGIFY_(x) #x
  42:handy.h       **** 
  43:handy.h       **** /* Error handling macros.
  44:handy.h       ****  *
  45:handy.h       ****  * These expect a zero = success, non-zero = error convention.
  46:handy.h       ****  */
  47:handy.h       **** 
  48:handy.h       **** /** Error: return. 
  49:handy.h       ****  *  
  50:handy.h       ****  *  If the expression fails, return the error from this function. */
  51:handy.h       **** #define ER(expr) do { typeof (expr) err_ = (expr); if (err_) return err_; } while (0)
  52:handy.h       **** 
  53:handy.h       **** /** Error: goto.
  54:handy.h       ****  *
  55:handy.h       ****  *  If the expression fails, goto x_err.  Assumes defn of label
  56:handy.h       ****  *  x_err and 'error_type err'. */
  57:handy.h       **** #define EG(expr) do { err = (expr); if (err) goto x_err; } while (0)
  58:handy.h       **** 
  59:handy.h       **** /** Like memset(ptr, 0, len), but not allowed to be removed by
  60:handy.h       ****  *  compilers. */
ARM GAS  C:\Users\andrew\AppData\Local\Temp\ccD3fw92.s 			page 6


  61:handy.h       **** static inline void mem_clean(volatile void *v, size_t len)
  62:handy.h       **** {
  87              		.loc 2 62 0
  88              		.cfi_startproc
  89              		@ args = 0, pretend = 0, frame = 8
  90              		@ frame_needed = 0, uses_anonymous_args = 0
  91 0000 00B5     		push	{lr}
  92              		.cfi_def_cfa_offset 4
  93              		.cfi_offset 14, -4
  94 0002 83B0     		sub	sp, sp, #12
  95              		.cfi_def_cfa_offset 16
  96 0004 0190     		str	r0, [sp, #4]
  97 0006 0091     		str	r1, [sp]
  63:handy.h       ****   if (len)
  98              		.loc 2 63 0
  99 0008 009B     		ldr	r3, [sp]
 100 000a 002B     		cmp	r3, #0
 101 000c 07D0     		beq	.L6
  64:handy.h       ****   {
  65:handy.h       ****     memset((void *) v, 0, len);
 102              		.loc 2 65 0
 103 000e 009A     		ldr	r2, [sp]
 104 0010 019B     		ldr	r3, [sp, #4]
 105 0012 0021     		movs	r1, #0
 106 0014 1800     		movs	r0, r3
 107 0016 FFF7FEFF 		bl	memset
  66:handy.h       ****     (void) *((volatile uint8_t *) v);
 108              		.loc 2 66 0
 109 001a 019B     		ldr	r3, [sp, #4]
 110 001c 1B78     		ldrb	r3, [r3]
 111              	.L6:
  67:handy.h       ****   }
  68:handy.h       **** }
 112              		.loc 2 68 0
 113 001e C046     		nop
 114 0020 03B0     		add	sp, sp, #12
 115              		@ sp needed
 116 0022 00BD     		pop	{pc}
 117              		.cfi_endproc
 118              	.LFE25:
 119              		.size	mem_clean, .-mem_clean
 120              		.section	.text.cf_hmac_init,"ax",%progbits
 121              		.align	2
 122              		.global	cf_hmac_init
 123              		.code	16
 124              		.thumb_func
 125              		.type	cf_hmac_init, %function
 126              	cf_hmac_init:
 127              	.LFB27:
 128              		.file 3 "hmac.c"
   1:hmac.c        **** /*
   2:hmac.c        ****  * cifra - embedded cryptography library
   3:hmac.c        ****  * Written in 2014 by Joseph Birr-Pixton <jpixton@gmail.com>
   4:hmac.c        ****  *
   5:hmac.c        ****  * To the extent possible under law, the author(s) have dedicated all
   6:hmac.c        ****  * copyright and related and neighboring rights to this software to the
   7:hmac.c        ****  * public domain worldwide. This software is distributed without any
ARM GAS  C:\Users\andrew\AppData\Local\Temp\ccD3fw92.s 			page 7


   8:hmac.c        ****  * warranty.
   9:hmac.c        ****  *
  10:hmac.c        ****  * You should have received a copy of the CC0 Public Domain Dedication
  11:hmac.c        ****  * along with this software. If not, see
  12:hmac.c        ****  * <http://creativecommons.org/publicdomain/zero/1.0/>.
  13:hmac.c        ****  */
  14:hmac.c        **** 
  15:hmac.c        **** #include "hmac.h"
  16:hmac.c        **** #include "chash.h"
  17:hmac.c        **** #include "bitops.h"
  18:hmac.c        **** #include "handy.h"
  19:hmac.c        **** #include "tassert.h"
  20:hmac.c        **** 
  21:hmac.c        **** #include <string.h>
  22:hmac.c        **** 
  23:hmac.c        **** void cf_hmac_init(cf_hmac_ctx *ctx,
  24:hmac.c        ****                   const cf_chash *hash,
  25:hmac.c        ****                   const uint8_t *key, size_t nkey)
  26:hmac.c        **** {
 129              		.loc 3 26 0
 130              		.cfi_startproc
 131              		@ args = 0, pretend = 0, frame = 272
 132              		@ frame_needed = 0, uses_anonymous_args = 0
 133 0000 10B5     		push	{r4, lr}
 134              		.cfi_def_cfa_offset 8
 135              		.cfi_offset 4, -8
 136              		.cfi_offset 14, -4
 137 0002 C4B0     		sub	sp, sp, #272
 138              		.cfi_def_cfa_offset 280
 139 0004 0390     		str	r0, [sp, #12]
 140 0006 0291     		str	r1, [sp, #8]
 141 0008 0192     		str	r2, [sp, #4]
 142 000a 0093     		str	r3, [sp]
  27:hmac.c        ****   assert(ctx);
  28:hmac.c        ****   assert(hash);
  29:hmac.c        **** 
  30:hmac.c        ****   mem_clean(ctx, sizeof *ctx);
 143              		.loc 3 30 0
 144 000c B623     		movs	r3, #182
 145 000e 9A00     		lsls	r2, r3, #2
 146 0010 039B     		ldr	r3, [sp, #12]
 147 0012 1100     		movs	r1, r2
 148 0014 1800     		movs	r0, r3
 149 0016 FFF7FEFF 		bl	mem_clean
  31:hmac.c        ****   ctx->hash = hash;
 150              		.loc 3 31 0
 151 001a 039B     		ldr	r3, [sp, #12]
 152 001c 029A     		ldr	r2, [sp, #8]
 153 001e 1A60     		str	r2, [r3]
  32:hmac.c        **** 
  33:hmac.c        ****   /* Prepare key: */
  34:hmac.c        ****   uint8_t k[CF_CHASH_MAXBLK];
  35:hmac.c        **** 
  36:hmac.c        ****   /* Shorten long keys. */
  37:hmac.c        ****   if (nkey > hash->blocksz)
 154              		.loc 3 37 0
 155 0020 029B     		ldr	r3, [sp, #8]
ARM GAS  C:\Users\andrew\AppData\Local\Temp\ccD3fw92.s 			page 8


 156 0022 5A68     		ldr	r2, [r3, #4]
 157 0024 009B     		ldr	r3, [sp]
 158 0026 9A42     		cmp	r2, r3
 159 0028 0AD2     		bcs	.L8
  38:hmac.c        ****   {
  39:hmac.c        ****     /* Standard doesn't cover case where blocksz < hashsz.
  40:hmac.c        ****      * FIPS186-1 seems to want to append a negative number of zero bytes.
  41:hmac.c        ****      * In any case, we only have a k buffer of CF_CHASH_MAXBLK! */
  42:hmac.c        ****     assert(hash->hashsz <= hash->blocksz);
  43:hmac.c        **** 
  44:hmac.c        ****     cf_hash(hash, key, nkey, k);
 160              		.loc 3 44 0
 161 002a 24AB     		add	r3, sp, #144
 162 002c 009A     		ldr	r2, [sp]
 163 002e 0199     		ldr	r1, [sp, #4]
 164 0030 0298     		ldr	r0, [sp, #8]
 165 0032 FFF7FEFF 		bl	cf_hash
  45:hmac.c        ****     key = k;
 166              		.loc 3 45 0
 167 0036 24AB     		add	r3, sp, #144
 168 0038 0193     		str	r3, [sp, #4]
  46:hmac.c        ****     nkey = hash->hashsz;
 169              		.loc 3 46 0
 170 003a 029B     		ldr	r3, [sp, #8]
 171 003c 1B68     		ldr	r3, [r3]
 172 003e 0093     		str	r3, [sp]
 173              	.L8:
  47:hmac.c        ****   }
  48:hmac.c        **** 
  49:hmac.c        ****   /* Right zero-pad short keys. */
  50:hmac.c        ****   if (k != key)
 174              		.loc 3 50 0
 175 0040 24AB     		add	r3, sp, #144
 176 0042 019A     		ldr	r2, [sp, #4]
 177 0044 9A42     		cmp	r2, r3
 178 0046 05D0     		beq	.L9
  51:hmac.c        ****     memcpy(k, key, nkey);
 179              		.loc 3 51 0
 180 0048 009A     		ldr	r2, [sp]
 181 004a 0199     		ldr	r1, [sp, #4]
 182 004c 24AB     		add	r3, sp, #144
 183 004e 1800     		movs	r0, r3
 184 0050 FFF7FEFF 		bl	memcpy
 185              	.L9:
  52:hmac.c        ****   if (hash->blocksz > nkey)
 186              		.loc 3 52 0
 187 0054 029B     		ldr	r3, [sp, #8]
 188 0056 5A68     		ldr	r2, [r3, #4]
 189 0058 009B     		ldr	r3, [sp]
 190 005a 9A42     		cmp	r2, r3
 191 005c 0AD9     		bls	.L10
  53:hmac.c        ****     memset(k + nkey, 0, hash->blocksz - nkey);
 192              		.loc 3 53 0
 193 005e 24AA     		add	r2, sp, #144
 194 0060 009B     		ldr	r3, [sp]
 195 0062 D018     		adds	r0, r2, r3
 196 0064 029B     		ldr	r3, [sp, #8]
ARM GAS  C:\Users\andrew\AppData\Local\Temp\ccD3fw92.s 			page 9


 197 0066 5A68     		ldr	r2, [r3, #4]
 198 0068 009B     		ldr	r3, [sp]
 199 006a D31A     		subs	r3, r2, r3
 200 006c 1A00     		movs	r2, r3
 201 006e 0021     		movs	r1, #0
 202 0070 FFF7FEFF 		bl	memset
 203              	.L10:
  54:hmac.c        **** 
  55:hmac.c        ****   /* Start inner hash computation */
  56:hmac.c        ****   uint8_t blk[CF_CHASH_MAXBLK];
  57:hmac.c        **** 
  58:hmac.c        ****   xor_b8(blk, k, 0x36, hash->blocksz);
 204              		.loc 3 58 0
 205 0074 029B     		ldr	r3, [sp, #8]
 206 0076 5B68     		ldr	r3, [r3, #4]
 207 0078 24A9     		add	r1, sp, #144
 208 007a 04A8     		add	r0, sp, #16
 209 007c 3622     		movs	r2, #54
 210 007e FFF7FEFF 		bl	xor_b8
  59:hmac.c        ****   hash->init(&ctx->inner);
 211              		.loc 3 59 0
 212 0082 029B     		ldr	r3, [sp, #8]
 213 0084 9B68     		ldr	r3, [r3, #8]
 214 0086 039A     		ldr	r2, [sp, #12]
 215 0088 0832     		adds	r2, r2, #8
 216 008a 1000     		movs	r0, r2
 217 008c 9847     		blx	r3
  60:hmac.c        ****   hash->update(&ctx->inner, blk, hash->blocksz);
 218              		.loc 3 60 0
 219 008e 029B     		ldr	r3, [sp, #8]
 220 0090 DC68     		ldr	r4, [r3, #12]
 221 0092 039B     		ldr	r3, [sp, #12]
 222 0094 0833     		adds	r3, r3, #8
 223 0096 1800     		movs	r0, r3
 224 0098 029B     		ldr	r3, [sp, #8]
 225 009a 5A68     		ldr	r2, [r3, #4]
 226 009c 04AB     		add	r3, sp, #16
 227 009e 1900     		movs	r1, r3
 228 00a0 A047     		blx	r4
  61:hmac.c        **** 
  62:hmac.c        ****   /* And outer. */
  63:hmac.c        ****   xor_b8(blk, k, 0x5c, hash->blocksz);
 229              		.loc 3 63 0
 230 00a2 029B     		ldr	r3, [sp, #8]
 231 00a4 5B68     		ldr	r3, [r3, #4]
 232 00a6 24A9     		add	r1, sp, #144
 233 00a8 04A8     		add	r0, sp, #16
 234 00aa 5C22     		movs	r2, #92
 235 00ac FFF7FEFF 		bl	xor_b8
  64:hmac.c        ****   hash->init(&ctx->outer);
 236              		.loc 3 64 0
 237 00b0 029B     		ldr	r3, [sp, #8]
 238 00b2 9B68     		ldr	r3, [r3, #8]
 239 00b4 039A     		ldr	r2, [sp, #12]
 240 00b6 7132     		adds	r2, r2, #113
 241 00b8 FF32     		adds	r2, r2, #255
 242 00ba 1000     		movs	r0, r2
ARM GAS  C:\Users\andrew\AppData\Local\Temp\ccD3fw92.s 			page 10


 243 00bc 9847     		blx	r3
  65:hmac.c        ****   hash->update(&ctx->outer, blk, hash->blocksz);
 244              		.loc 3 65 0
 245 00be 029B     		ldr	r3, [sp, #8]
 246 00c0 DC68     		ldr	r4, [r3, #12]
 247 00c2 039B     		ldr	r3, [sp, #12]
 248 00c4 7133     		adds	r3, r3, #113
 249 00c6 FF33     		adds	r3, r3, #255
 250 00c8 1800     		movs	r0, r3
 251 00ca 029B     		ldr	r3, [sp, #8]
 252 00cc 5A68     		ldr	r2, [r3, #4]
 253 00ce 04AB     		add	r3, sp, #16
 254 00d0 1900     		movs	r1, r3
 255 00d2 A047     		blx	r4
  66:hmac.c        **** 
  67:hmac.c        ****   mem_clean(blk, sizeof blk);
 256              		.loc 3 67 0
 257 00d4 04AB     		add	r3, sp, #16
 258 00d6 8021     		movs	r1, #128
 259 00d8 1800     		movs	r0, r3
 260 00da FFF7FEFF 		bl	mem_clean
  68:hmac.c        ****   mem_clean(k, sizeof k);
 261              		.loc 3 68 0
 262 00de 24AB     		add	r3, sp, #144
 263 00e0 8021     		movs	r1, #128
 264 00e2 1800     		movs	r0, r3
 265 00e4 FFF7FEFF 		bl	mem_clean
  69:hmac.c        **** }
 266              		.loc 3 69 0
 267 00e8 C046     		nop
 268 00ea 44B0     		add	sp, sp, #272
 269              		@ sp needed
 270 00ec 10BD     		pop	{r4, pc}
 271              		.cfi_endproc
 272              	.LFE27:
 273              		.size	cf_hmac_init, .-cf_hmac_init
 274 00ee C046     		.section	.text.cf_hmac_update,"ax",%progbits
 275              		.align	2
 276              		.global	cf_hmac_update
 277              		.code	16
 278              		.thumb_func
 279              		.type	cf_hmac_update, %function
 280              	cf_hmac_update:
 281              	.LFB28:
  70:hmac.c        **** 
  71:hmac.c        **** void cf_hmac_update(cf_hmac_ctx *ctx, const void *data, size_t ndata)
  72:hmac.c        **** {
 282              		.loc 3 72 0
 283              		.cfi_startproc
 284              		@ args = 0, pretend = 0, frame = 16
 285              		@ frame_needed = 0, uses_anonymous_args = 0
 286 0000 00B5     		push	{lr}
 287              		.cfi_def_cfa_offset 4
 288              		.cfi_offset 14, -4
 289 0002 85B0     		sub	sp, sp, #20
 290              		.cfi_def_cfa_offset 24
 291 0004 0390     		str	r0, [sp, #12]
ARM GAS  C:\Users\andrew\AppData\Local\Temp\ccD3fw92.s 			page 11


 292 0006 0291     		str	r1, [sp, #8]
 293 0008 0192     		str	r2, [sp, #4]
  73:hmac.c        ****   assert(ctx && ctx->hash);
  74:hmac.c        **** 
  75:hmac.c        ****   ctx->hash->update(&ctx->inner, data, ndata);
 294              		.loc 3 75 0
 295 000a 039B     		ldr	r3, [sp, #12]
 296 000c 1B68     		ldr	r3, [r3]
 297 000e DB68     		ldr	r3, [r3, #12]
 298 0010 039A     		ldr	r2, [sp, #12]
 299 0012 0832     		adds	r2, r2, #8
 300 0014 1000     		movs	r0, r2
 301 0016 019A     		ldr	r2, [sp, #4]
 302 0018 0299     		ldr	r1, [sp, #8]
 303 001a 9847     		blx	r3
  76:hmac.c        **** }
 304              		.loc 3 76 0
 305 001c C046     		nop
 306 001e 05B0     		add	sp, sp, #20
 307              		@ sp needed
 308 0020 00BD     		pop	{pc}
 309              		.cfi_endproc
 310              	.LFE28:
 311              		.size	cf_hmac_update, .-cf_hmac_update
 312 0022 C046     		.section	.text.cf_hmac_finish,"ax",%progbits
 313              		.align	2
 314              		.global	cf_hmac_finish
 315              		.code	16
 316              		.thumb_func
 317              		.type	cf_hmac_finish, %function
 318              	cf_hmac_finish:
 319              	.LFB29:
  77:hmac.c        **** 
  78:hmac.c        **** void cf_hmac_finish(cf_hmac_ctx *ctx, uint8_t *out)
  79:hmac.c        **** {
 320              		.loc 3 79 0
 321              		.cfi_startproc
 322              		@ args = 0, pretend = 0, frame = 72
 323              		@ frame_needed = 0, uses_anonymous_args = 0
 324 0000 10B5     		push	{r4, lr}
 325              		.cfi_def_cfa_offset 8
 326              		.cfi_offset 4, -8
 327              		.cfi_offset 14, -4
 328 0002 92B0     		sub	sp, sp, #72
 329              		.cfi_def_cfa_offset 80
 330 0004 0190     		str	r0, [sp, #4]
 331 0006 0091     		str	r1, [sp]
  80:hmac.c        ****   assert(ctx && ctx->hash);
  81:hmac.c        ****   assert(out);
  82:hmac.c        **** 
  83:hmac.c        ****   uint8_t innerh[CF_MAXHASH];
  84:hmac.c        ****   ctx->hash->digest(&ctx->inner, innerh);
 332              		.loc 3 84 0
 333 0008 019B     		ldr	r3, [sp, #4]
 334 000a 1B68     		ldr	r3, [r3]
 335 000c 1B69     		ldr	r3, [r3, #16]
 336 000e 019A     		ldr	r2, [sp, #4]
ARM GAS  C:\Users\andrew\AppData\Local\Temp\ccD3fw92.s 			page 12


 337 0010 0832     		adds	r2, r2, #8
 338 0012 02A9     		add	r1, sp, #8
 339 0014 1000     		movs	r0, r2
 340 0016 9847     		blx	r3
  85:hmac.c        **** 
  86:hmac.c        ****   ctx->hash->update(&ctx->outer, innerh, ctx->hash->hashsz);
 341              		.loc 3 86 0
 342 0018 019B     		ldr	r3, [sp, #4]
 343 001a 1B68     		ldr	r3, [r3]
 344 001c DC68     		ldr	r4, [r3, #12]
 345 001e 019B     		ldr	r3, [sp, #4]
 346 0020 7133     		adds	r3, r3, #113
 347 0022 FF33     		adds	r3, r3, #255
 348 0024 1800     		movs	r0, r3
 349 0026 019B     		ldr	r3, [sp, #4]
 350 0028 1B68     		ldr	r3, [r3]
 351 002a 1A68     		ldr	r2, [r3]
 352 002c 02AB     		add	r3, sp, #8
 353 002e 1900     		movs	r1, r3
 354 0030 A047     		blx	r4
  87:hmac.c        ****   ctx->hash->digest(&ctx->outer, out);
 355              		.loc 3 87 0
 356 0032 019B     		ldr	r3, [sp, #4]
 357 0034 1B68     		ldr	r3, [r3]
 358 0036 1B69     		ldr	r3, [r3, #16]
 359 0038 019A     		ldr	r2, [sp, #4]
 360 003a 7132     		adds	r2, r2, #113
 361 003c FF32     		adds	r2, r2, #255
 362 003e 0099     		ldr	r1, [sp]
 363 0040 1000     		movs	r0, r2
 364 0042 9847     		blx	r3
  88:hmac.c        **** 
  89:hmac.c        ****   mem_clean(ctx, sizeof *ctx);
 365              		.loc 3 89 0
 366 0044 B623     		movs	r3, #182
 367 0046 9A00     		lsls	r2, r3, #2
 368 0048 019B     		ldr	r3, [sp, #4]
 369 004a 1100     		movs	r1, r2
 370 004c 1800     		movs	r0, r3
 371 004e FFF7FEFF 		bl	mem_clean
  90:hmac.c        **** }
 372              		.loc 3 90 0
 373 0052 C046     		nop
 374 0054 12B0     		add	sp, sp, #72
 375              		@ sp needed
 376 0056 10BD     		pop	{r4, pc}
 377              		.cfi_endproc
 378              	.LFE29:
 379              		.size	cf_hmac_finish, .-cf_hmac_finish
 380              		.section	.text.cf_hmac,"ax",%progbits
 381              		.align	2
 382              		.global	cf_hmac
 383              		.code	16
 384              		.thumb_func
 385              		.type	cf_hmac, %function
 386              	cf_hmac:
 387              	.LFB30:
ARM GAS  C:\Users\andrew\AppData\Local\Temp\ccD3fw92.s 			page 13


  91:hmac.c        **** 
  92:hmac.c        **** void cf_hmac(const uint8_t *key, size_t nkey,
  93:hmac.c        ****              const uint8_t *msg, size_t nmsg,
  94:hmac.c        ****              uint8_t *out,
  95:hmac.c        ****              const cf_chash *hash)
  96:hmac.c        **** {
 388              		.loc 3 96 0
 389              		.cfi_startproc
 390              		@ args = 8, pretend = 0, frame = 744
 391              		@ frame_needed = 0, uses_anonymous_args = 0
 392 0000 80B5     		push	{r7, lr}
 393              		.cfi_def_cfa_offset 8
 394              		.cfi_offset 7, -8
 395              		.cfi_offset 14, -4
 396 0002 0E4F     		ldr	r7, .L16
 397 0004 BD44     		add	sp, sp, r7
 398              		.cfi_def_cfa_offset 752
 399 0006 0390     		str	r0, [sp, #12]
 400 0008 0291     		str	r1, [sp, #8]
 401 000a 0192     		str	r2, [sp, #4]
 402 000c 0093     		str	r3, [sp]
  97:hmac.c        ****   cf_hmac_ctx ctx;
  98:hmac.c        ****   
  99:hmac.c        ****   assert(out);
 100:hmac.c        ****   assert(hash);
 101:hmac.c        **** 
 102:hmac.c        ****   cf_hmac_init(&ctx, hash, key, nkey);
 403              		.loc 3 102 0
 404 000e 029B     		ldr	r3, [sp, #8]
 405 0010 039A     		ldr	r2, [sp, #12]
 406 0012 BD99     		ldr	r1, [sp, #756]
 407 0014 04A8     		add	r0, sp, #16
 408 0016 FFF7FEFF 		bl	cf_hmac_init
 103:hmac.c        ****   cf_hmac_update(&ctx, msg, nmsg);
 409              		.loc 3 103 0
 410 001a 009A     		ldr	r2, [sp]
 411 001c 0199     		ldr	r1, [sp, #4]
 412 001e 04AB     		add	r3, sp, #16
 413 0020 1800     		movs	r0, r3
 414 0022 FFF7FEFF 		bl	cf_hmac_update
 104:hmac.c        ****   cf_hmac_finish(&ctx, out);
 415              		.loc 3 104 0
 416 0026 BC9A     		ldr	r2, [sp, #752]
 417 0028 04AB     		add	r3, sp, #16
 418 002a 1100     		movs	r1, r2
 419 002c 1800     		movs	r0, r3
 420 002e FFF7FEFF 		bl	cf_hmac_finish
 105:hmac.c        **** }
 421              		.loc 3 105 0
 422 0032 C046     		nop
 423 0034 BA23     		movs	r3, #186
 424 0036 9B00     		lsls	r3, r3, #2
 425 0038 9D44     		add	sp, sp, r3
 426              		@ sp needed
 427 003a 80BD     		pop	{r7, pc}
 428              	.L17:
 429              		.align	2
ARM GAS  C:\Users\andrew\AppData\Local\Temp\ccD3fw92.s 			page 14


 430              	.L16:
 431 003c 18FDFFFF 		.word	-744
 432              		.cfi_endproc
 433              	.LFE30:
 434              		.size	cf_hmac, .-cf_hmac
 435              		.text
 436              	.Letext0:
 437              		.file 4 "c:\\program files (x86)\\cypress\\psoc creator\\4.1\\psoc creator\\import\\gnu\\arm\\5.4.
 438              		.file 5 "c:\\program files (x86)\\cypress\\psoc creator\\4.1\\psoc creator\\import\\gnu\\arm\\5.4.
 439              		.file 6 "c:\\program files (x86)\\cypress\\psoc creator\\4.1\\psoc creator\\import\\gnu\\arm\\5.4.
 440              		.file 7 "chash.h"
 441              		.file 8 "hmac.h"