ARM GAS  C:\Users\andrew\AppData\Local\Temp\ccGQ7h9h.s 			page 1


   1              		.syntax unified
   2              		.cpu cortex-m0
   3              		.fpu softvfp
   4              		.eabi_attribute 20, 1
   5              		.eabi_attribute 21, 1
   6              		.eabi_attribute 23, 3
   7              		.eabi_attribute 24, 1
   8              		.eabi_attribute 25, 1
   9              		.eabi_attribute 26, 1
  10              		.eabi_attribute 30, 6
  11              		.eabi_attribute 34, 0
  12              		.eabi_attribute 18, 4
  13              		.thumb
  14              		.syntax unified
  15              		.file	"modes.c"
  16              		.text
  17              	.Ltext0:
  18              		.cfi_sections	.debug_frame
  19              		.section	.text.xor_bb,"ax",%progbits
  20              		.align	2
  21              		.code	16
  22              		.thumb_func
  23              		.type	xor_bb, %function
  24              	xor_bb:
  25              	.LFB13:
  26              		.file 1 "bitops.h"
   1:bitops.h      **** /*
   2:bitops.h      ****  * cifra - embedded cryptography library
   3:bitops.h      ****  * Written in 2014 by Joseph Birr-Pixton <jpixton@gmail.com>
   4:bitops.h      ****  *
   5:bitops.h      ****  * To the extent possible under law, the author(s) have dedicated all
   6:bitops.h      ****  * copyright and related and neighboring rights to this software to the
   7:bitops.h      ****  * public domain worldwide. This software is distributed without any
   8:bitops.h      ****  * warranty.
   9:bitops.h      ****  *
  10:bitops.h      ****  * You should have received a copy of the CC0 Public Domain Dedication
  11:bitops.h      ****  * along with this software. If not, see
  12:bitops.h      ****  * <http://creativecommons.org/publicdomain/zero/1.0/>.
  13:bitops.h      ****  */
  14:bitops.h      **** 
  15:bitops.h      **** #ifndef BITOPS_H
  16:bitops.h      **** #define BITOPS_H
  17:bitops.h      **** 
  18:bitops.h      **** #include <stdint.h>
  19:bitops.h      **** #include <stddef.h>
  20:bitops.h      **** 
  21:bitops.h      **** /* Assorted bitwise and common operations used in ciphers. */
  22:bitops.h      **** 
  23:bitops.h      **** /** Circularly rotate right x by n bits.
  24:bitops.h      ****  *  0 > n > 32. */
  25:bitops.h      **** static inline uint32_t rotr32(uint32_t x, unsigned n)
  26:bitops.h      **** {
  27:bitops.h      ****   return (x >> n) | (x << (32 - n));
  28:bitops.h      **** }
  29:bitops.h      **** 
  30:bitops.h      **** /** Circularly rotate left x by n bits.
  31:bitops.h      ****  *  0 > n > 32. */
ARM GAS  C:\Users\andrew\AppData\Local\Temp\ccGQ7h9h.s 			page 2


  32:bitops.h      **** static inline uint32_t rotl32(uint32_t x, unsigned n)
  33:bitops.h      **** {
  34:bitops.h      ****   return (x << n) | (x >> (32 - n));
  35:bitops.h      **** }
  36:bitops.h      **** 
  37:bitops.h      **** /** Circularly rotate right x by n bits.
  38:bitops.h      ****  *  0 > n > 64. */
  39:bitops.h      **** static inline uint64_t rotr64(uint64_t x, unsigned n)
  40:bitops.h      **** {
  41:bitops.h      ****   return (x >> n) | (x << (64 - n));
  42:bitops.h      **** }
  43:bitops.h      **** 
  44:bitops.h      **** /** Circularly rotate left x by n bits.
  45:bitops.h      ****  *  0 > n > 64. */
  46:bitops.h      **** static inline uint64_t rotl64(uint64_t x, unsigned n)
  47:bitops.h      **** {
  48:bitops.h      ****   return (x << n) | (x >> (64 - n));
  49:bitops.h      **** }
  50:bitops.h      **** 
  51:bitops.h      **** /** Read 4 bytes from buf, as a 32-bit big endian quantity. */
  52:bitops.h      **** static inline uint32_t read32_be(const uint8_t buf[4])
  53:bitops.h      **** {
  54:bitops.h      ****   return (buf[0] << 24) |
  55:bitops.h      ****          (buf[1] << 16) |
  56:bitops.h      ****          (buf[2] << 8) |
  57:bitops.h      ****          (buf[3]);
  58:bitops.h      **** }
  59:bitops.h      **** 
  60:bitops.h      **** /** Read 4 bytes from buf, as a 32-bit little endian quantity. */
  61:bitops.h      **** static inline uint32_t read32_le(const uint8_t buf[4])
  62:bitops.h      **** {
  63:bitops.h      ****   return (buf[3] << 24) |
  64:bitops.h      ****          (buf[2] << 16) |
  65:bitops.h      ****          (buf[1] << 8) |
  66:bitops.h      ****          (buf[0]);
  67:bitops.h      **** }
  68:bitops.h      **** 
  69:bitops.h      **** /** Read 8 bytes from buf, as a 64-bit big endian quantity. */
  70:bitops.h      **** static inline uint64_t read64_be(const uint8_t buf[8])
  71:bitops.h      **** {
  72:bitops.h      ****   uint32_t hi = read32_be(buf),
  73:bitops.h      ****            lo = read32_be(buf + 4);
  74:bitops.h      ****   return ((uint64_t)hi) << 32 |
  75:bitops.h      ****          lo;
  76:bitops.h      **** }
  77:bitops.h      **** 
  78:bitops.h      **** /** Read 8 bytes from buf, as a 64-bit little endian quantity. */
  79:bitops.h      **** static inline uint64_t read64_le(const uint8_t buf[8])
  80:bitops.h      **** {
  81:bitops.h      ****   uint32_t hi = read32_le(buf + 4),
  82:bitops.h      ****            lo = read32_le(buf);
  83:bitops.h      ****   return ((uint64_t)hi) << 32 |
  84:bitops.h      ****          lo;
  85:bitops.h      **** }
  86:bitops.h      **** 
  87:bitops.h      **** /** Encode v as a 32-bit big endian quantity into buf. */
  88:bitops.h      **** static inline void write32_be(uint32_t v, uint8_t buf[4])
ARM GAS  C:\Users\andrew\AppData\Local\Temp\ccGQ7h9h.s 			page 3


  89:bitops.h      **** {
  90:bitops.h      ****   *buf++ = (v >> 24) & 0xff;
  91:bitops.h      ****   *buf++ = (v >> 16) & 0xff;
  92:bitops.h      ****   *buf++ = (v >> 8) & 0xff;
  93:bitops.h      ****   *buf   = v & 0xff;
  94:bitops.h      **** }
  95:bitops.h      **** 
  96:bitops.h      **** /** Encode v as a 32-bit little endian quantity into buf. */
  97:bitops.h      **** static inline void write32_le(uint32_t v, uint8_t buf[4])
  98:bitops.h      **** {
  99:bitops.h      ****   *buf++ = v & 0xff;
 100:bitops.h      ****   *buf++ = (v >> 8) & 0xff;
 101:bitops.h      ****   *buf++ = (v >> 16) & 0xff;
 102:bitops.h      ****   *buf   = (v >> 24) & 0xff;
 103:bitops.h      **** }
 104:bitops.h      **** 
 105:bitops.h      **** /** Encode v as a 64-bit big endian quantity into buf. */
 106:bitops.h      **** static inline void write64_be(uint64_t v, uint8_t buf[8])
 107:bitops.h      **** {
 108:bitops.h      ****   *buf++ = (v >> 56) & 0xff;
 109:bitops.h      ****   *buf++ = (v >> 48) & 0xff;
 110:bitops.h      ****   *buf++ = (v >> 40) & 0xff;
 111:bitops.h      ****   *buf++ = (v >> 32) & 0xff;
 112:bitops.h      ****   *buf++ = (v >> 24) & 0xff;
 113:bitops.h      ****   *buf++ = (v >> 16) & 0xff;
 114:bitops.h      ****   *buf++ = (v >> 8) & 0xff;
 115:bitops.h      ****   *buf   = v & 0xff;
 116:bitops.h      **** }
 117:bitops.h      **** 
 118:bitops.h      **** /** Encode v as a 64-bit little endian quantity into buf. */
 119:bitops.h      **** static inline void write64_le(uint64_t v, uint8_t buf[8])
 120:bitops.h      **** {
 121:bitops.h      ****   *buf++ = v & 0xff;
 122:bitops.h      ****   *buf++ = (v >> 8) & 0xff;
 123:bitops.h      ****   *buf++ = (v >> 16) & 0xff;
 124:bitops.h      ****   *buf++ = (v >> 24) & 0xff;
 125:bitops.h      ****   *buf++ = (v >> 32) & 0xff;
 126:bitops.h      ****   *buf++ = (v >> 40) & 0xff;
 127:bitops.h      ****   *buf++ = (v >> 48) & 0xff;
 128:bitops.h      ****   *buf   = (v >> 56) & 0xff;
 129:bitops.h      **** }
 130:bitops.h      **** 
 131:bitops.h      **** /** out = in ^ b8.
 132:bitops.h      ****  *  out and in may alias. */
 133:bitops.h      **** static inline void xor_b8(uint8_t *out, const uint8_t *in, uint8_t b8, size_t len)
 134:bitops.h      **** {
 135:bitops.h      ****   for (size_t i = 0; i < len; i++)
 136:bitops.h      ****     out[i] = in[i] ^ b8;
 137:bitops.h      **** }
 138:bitops.h      **** 
 139:bitops.h      **** /** out = x ^ y.
 140:bitops.h      ****  *  out, x and y may alias. */
 141:bitops.h      **** static inline void xor_bb(uint8_t *out, const uint8_t *x, const uint8_t *y, size_t len)
 142:bitops.h      **** {
  27              		.loc 1 142 0
  28              		.cfi_startproc
  29              		@ args = 0, pretend = 0, frame = 24
ARM GAS  C:\Users\andrew\AppData\Local\Temp\ccGQ7h9h.s 			page 4


  30              		@ frame_needed = 0, uses_anonymous_args = 0
  31              		@ link register save eliminated.
  32 0000 86B0     		sub	sp, sp, #24
  33              		.cfi_def_cfa_offset 24
  34 0002 0390     		str	r0, [sp, #12]
  35 0004 0291     		str	r1, [sp, #8]
  36 0006 0192     		str	r2, [sp, #4]
  37 0008 0093     		str	r3, [sp]
  38              	.LBB2:
 143:bitops.h      ****   for (size_t i = 0; i < len; i++)
  39              		.loc 1 143 0
  40 000a 0023     		movs	r3, #0
  41 000c 0593     		str	r3, [sp, #20]
  42 000e 10E0     		b	.L2
  43              	.L3:
 144:bitops.h      ****     out[i] = x[i] ^ y[i];
  44              		.loc 1 144 0 discriminator 3
  45 0010 039A     		ldr	r2, [sp, #12]
  46 0012 059B     		ldr	r3, [sp, #20]
  47 0014 D318     		adds	r3, r2, r3
  48 0016 0299     		ldr	r1, [sp, #8]
  49 0018 059A     		ldr	r2, [sp, #20]
  50 001a 8A18     		adds	r2, r1, r2
  51 001c 1178     		ldrb	r1, [r2]
  52 001e 0198     		ldr	r0, [sp, #4]
  53 0020 059A     		ldr	r2, [sp, #20]
  54 0022 8218     		adds	r2, r0, r2
  55 0024 1278     		ldrb	r2, [r2]
  56 0026 4A40     		eors	r2, r1
  57 0028 D2B2     		uxtb	r2, r2
  58 002a 1A70     		strb	r2, [r3]
 143:bitops.h      ****   for (size_t i = 0; i < len; i++)
  59              		.loc 1 143 0 discriminator 3
  60 002c 059B     		ldr	r3, [sp, #20]
  61 002e 0133     		adds	r3, r3, #1
  62 0030 0593     		str	r3, [sp, #20]
  63              	.L2:
 143:bitops.h      ****   for (size_t i = 0; i < len; i++)
  64              		.loc 1 143 0 is_stmt 0 discriminator 1
  65 0032 059A     		ldr	r2, [sp, #20]
  66 0034 009B     		ldr	r3, [sp]
  67 0036 9A42     		cmp	r2, r3
  68 0038 EAD3     		bcc	.L3
  69              	.LBE2:
 145:bitops.h      **** }
  70              		.loc 1 145 0 is_stmt 1
  71 003a C046     		nop
  72 003c 06B0     		add	sp, sp, #24
  73              		@ sp needed
  74 003e 7047     		bx	lr
  75              		.cfi_endproc
  76              	.LFE13:
  77              		.size	xor_bb, .-xor_bb
  78              		.section	.text.incr_be,"ax",%progbits
  79              		.align	2
  80              		.code	16
  81              		.thumb_func
ARM GAS  C:\Users\andrew\AppData\Local\Temp\ccGQ7h9h.s 			page 5


  82              		.type	incr_be, %function
  83              	incr_be:
  84              	.LFB22:
 146:bitops.h      **** 
 147:bitops.h      **** /* out ^= x
 148:bitops.h      ****  * out and x may alias. */
 149:bitops.h      **** static inline void xor_words(uint32_t *out, const uint32_t *x, size_t nwords)
 150:bitops.h      **** {
 151:bitops.h      ****   for (size_t i = 0; i < nwords; i++)
 152:bitops.h      ****     out[i] ^= x[i];
 153:bitops.h      **** }
 154:bitops.h      **** 
 155:bitops.h      **** /** Produce 0xffffffff if x == y, zero otherwise, without branching. */
 156:bitops.h      **** static inline uint32_t mask_u32(uint32_t x, uint32_t y)
 157:bitops.h      **** {
 158:bitops.h      ****   uint32_t diff = x ^ y;
 159:bitops.h      ****   uint32_t diff_is_zero = ~diff & (diff - 1);
 160:bitops.h      ****   return - (diff_is_zero >> 31);
 161:bitops.h      **** }
 162:bitops.h      **** 
 163:bitops.h      **** /** Product 0xff if x == y, zero otherwise, without branching. */
 164:bitops.h      **** static inline uint8_t mask_u8(uint32_t x, uint32_t y)
 165:bitops.h      **** {
 166:bitops.h      ****   uint32_t diff = x ^ y;
 167:bitops.h      ****   uint8_t diff_is_zero = ~diff & (diff - 1);
 168:bitops.h      ****   return - (diff_is_zero >> 7);
 169:bitops.h      **** }
 170:bitops.h      **** 
 171:bitops.h      **** /** Select the ith entry from the given table of n values, in a side channel-silent
 172:bitops.h      ****  *  way. */
 173:bitops.h      **** static inline uint32_t select_u32(uint32_t i, volatile const uint32_t *tab, uint32_t n)
 174:bitops.h      **** {
 175:bitops.h      ****   uint32_t r = 0;
 176:bitops.h      **** 
 177:bitops.h      ****   for (uint32_t ii = 0; ii < n; ii++)
 178:bitops.h      ****   {
 179:bitops.h      ****     uint32_t mask = mask_u32(i, ii);
 180:bitops.h      ****     r = (r & ~mask) | (tab[ii] & mask);
 181:bitops.h      ****   }
 182:bitops.h      **** 
 183:bitops.h      ****   return r;
 184:bitops.h      **** }
 185:bitops.h      **** 
 186:bitops.h      **** /** Select the ith entry from the given table of n values, in a side channel-silent
 187:bitops.h      ****  *  way. */
 188:bitops.h      **** static inline uint8_t select_u8(uint32_t i, volatile const uint8_t *tab, uint32_t n)
 189:bitops.h      **** {
 190:bitops.h      ****   uint8_t r = 0;
 191:bitops.h      **** 
 192:bitops.h      ****   for (uint32_t ii = 0; ii < n; ii++)
 193:bitops.h      ****   {
 194:bitops.h      ****     uint8_t mask = mask_u8(i, ii);
 195:bitops.h      ****     r = (r & ~mask) | (tab[ii] & mask);
 196:bitops.h      ****   }
 197:bitops.h      **** 
 198:bitops.h      ****   return r;
 199:bitops.h      **** }
ARM GAS  C:\Users\andrew\AppData\Local\Temp\ccGQ7h9h.s 			page 6


 200:bitops.h      **** 
 201:bitops.h      **** /** Select the ath, bth, cth and dth entries from the given table of n values,
 202:bitops.h      ****  *  placing the results into a, b, c and d. */
 203:bitops.h      **** static inline void select_u8x4(uint8_t *a, uint8_t *b, uint8_t *c, uint8_t *d,
 204:bitops.h      ****                                volatile const uint8_t *tab, uint32_t n)
 205:bitops.h      **** {
 206:bitops.h      ****   uint8_t ra = 0,
 207:bitops.h      ****           rb = 0,
 208:bitops.h      ****           rc = 0,
 209:bitops.h      ****           rd = 0;
 210:bitops.h      ****   uint8_t mask;
 211:bitops.h      **** 
 212:bitops.h      ****   for (uint32_t i = 0; i < n; i++)
 213:bitops.h      ****   {
 214:bitops.h      ****     uint8_t item = tab[i];
 215:bitops.h      **** 
 216:bitops.h      ****     mask = mask_u8(*a, i); ra = (ra & ~mask) | (item & mask);
 217:bitops.h      ****     mask = mask_u8(*b, i); rb = (rb & ~mask) | (item & mask);
 218:bitops.h      ****     mask = mask_u8(*c, i); rc = (rc & ~mask) | (item & mask);
 219:bitops.h      ****     mask = mask_u8(*d, i); rd = (rd & ~mask) | (item & mask);
 220:bitops.h      ****   }
 221:bitops.h      **** 
 222:bitops.h      ****   *a = ra;
 223:bitops.h      ****   *b = rb;
 224:bitops.h      ****   *c = rc;
 225:bitops.h      ****   *d = rd;
 226:bitops.h      **** }
 227:bitops.h      **** 
 228:bitops.h      **** /** out ^= if0 or if1, depending on the value of bit. */
 229:bitops.h      **** static inline void select_xor128(uint32_t out[4],
 230:bitops.h      ****                                  const uint32_t if0[4],
 231:bitops.h      ****                                  const uint32_t if1[4],
 232:bitops.h      ****                                  uint8_t bit)
 233:bitops.h      **** {
 234:bitops.h      ****   uint32_t mask1 = mask_u32(bit, 1);
 235:bitops.h      ****   uint32_t mask0 = ~mask1;
 236:bitops.h      **** 
 237:bitops.h      ****   out[0] ^= (if0[0] & mask0) | (if1[0] & mask1);
 238:bitops.h      ****   out[1] ^= (if0[1] & mask0) | (if1[1] & mask1);
 239:bitops.h      ****   out[2] ^= (if0[2] & mask0) | (if1[2] & mask1);
 240:bitops.h      ****   out[3] ^= (if0[3] & mask0) | (if1[3] & mask1);
 241:bitops.h      **** }
 242:bitops.h      **** 
 243:bitops.h      **** /** Increments the integer stored at v (of non-zero length len)
 244:bitops.h      ****  *  with the least significant byte first. */
 245:bitops.h      **** static inline void incr_le(uint8_t *v, size_t len)
 246:bitops.h      **** {
 247:bitops.h      ****   size_t i = 0;
 248:bitops.h      ****   while (1)
 249:bitops.h      ****   {
 250:bitops.h      ****     if (++v[i] != 0)
 251:bitops.h      ****       return;
 252:bitops.h      ****     i++;
 253:bitops.h      ****     if (i == len)
 254:bitops.h      ****       return;
 255:bitops.h      ****   }
 256:bitops.h      **** }
ARM GAS  C:\Users\andrew\AppData\Local\Temp\ccGQ7h9h.s 			page 7


 257:bitops.h      **** 
 258:bitops.h      **** /** Increments the integer stored at v (of non-zero length len)
 259:bitops.h      ****  *  with the most significant byte last. */
 260:bitops.h      **** static inline void incr_be(uint8_t *v, size_t len)
 261:bitops.h      **** {
  85              		.loc 1 261 0
  86              		.cfi_startproc
  87              		@ args = 0, pretend = 0, frame = 8
  88              		@ frame_needed = 0, uses_anonymous_args = 0
  89              		@ link register save eliminated.
  90 0000 82B0     		sub	sp, sp, #8
  91              		.cfi_def_cfa_offset 8
  92 0002 0190     		str	r0, [sp, #4]
  93 0004 0091     		str	r1, [sp]
 262:bitops.h      ****   len--;
  94              		.loc 1 262 0
  95 0006 009B     		ldr	r3, [sp]
  96 0008 013B     		subs	r3, r3, #1
  97 000a 0093     		str	r3, [sp]
  98              	.L8:
 263:bitops.h      ****   while (1)
 264:bitops.h      ****   {
 265:bitops.h      ****     if (++v[len] != 0)
  99              		.loc 1 265 0
 100 000c 019A     		ldr	r2, [sp, #4]
 101 000e 009B     		ldr	r3, [sp]
 102 0010 D318     		adds	r3, r2, r3
 103 0012 1A78     		ldrb	r2, [r3]
 104 0014 0132     		adds	r2, r2, #1
 105 0016 D2B2     		uxtb	r2, r2
 106 0018 1A70     		strb	r2, [r3]
 107 001a 1B78     		ldrb	r3, [r3]
 108 001c 002B     		cmp	r3, #0
 109 001e 06D1     		bne	.L9
 266:bitops.h      ****       return;
 267:bitops.h      ****     if (len == 0)
 110              		.loc 1 267 0
 111 0020 009B     		ldr	r3, [sp]
 112 0022 002B     		cmp	r3, #0
 113 0024 05D0     		beq	.L10
 268:bitops.h      ****       return;
 269:bitops.h      ****     len--;
 114              		.loc 1 269 0
 115 0026 009B     		ldr	r3, [sp]
 116 0028 013B     		subs	r3, r3, #1
 117 002a 0093     		str	r3, [sp]
 270:bitops.h      ****   }
 118              		.loc 1 270 0
 119 002c EEE7     		b	.L8
 120              	.L9:
 266:bitops.h      ****       return;
 121              		.loc 1 266 0
 122 002e C046     		nop
 123 0030 00E0     		b	.L4
 124              	.L10:
 268:bitops.h      ****       return;
 125              		.loc 1 268 0
ARM GAS  C:\Users\andrew\AppData\Local\Temp\ccGQ7h9h.s 			page 8


 126 0032 C046     		nop
 127              	.L4:
 271:bitops.h      **** }
 128              		.loc 1 271 0
 129 0034 02B0     		add	sp, sp, #8
 130              		@ sp needed
 131 0036 7047     		bx	lr
 132              		.cfi_endproc
 133              	.LFE22:
 134              		.size	incr_be, .-incr_be
 135              		.section	.text.cf_cbc_init,"ax",%progbits
 136              		.align	2
 137              		.global	cf_cbc_init
 138              		.code	16
 139              		.thumb_func
 140              		.type	cf_cbc_init, %function
 141              	cf_cbc_init:
 142              	.LFB25:
 143              		.file 2 "modes.c"
   1:modes.c       **** /*
   2:modes.c       ****  * cifra - embedded cryptography library
   3:modes.c       ****  * Written in 2014 by Joseph Birr-Pixton <jpixton@gmail.com>
   4:modes.c       ****  *
   5:modes.c       ****  * To the extent possible under law, the author(s) have dedicated all
   6:modes.c       ****  * copyright and related and neighboring rights to this software to the
   7:modes.c       ****  * public domain worldwide. This software is distributed without any
   8:modes.c       ****  * warranty.
   9:modes.c       ****  *
  10:modes.c       ****  * You should have received a copy of the CC0 Public Domain Dedication
  11:modes.c       ****  * along with this software. If not, see
  12:modes.c       ****  * <http://creativecommons.org/publicdomain/zero/1.0/>.
  13:modes.c       ****  */
  14:modes.c       **** 
  15:modes.c       **** #include "prp.h"
  16:modes.c       **** #include "modes.h"
  17:modes.c       **** #include "bitops.h"
  18:modes.c       **** #include "blockwise.h"
  19:modes.c       **** 
  20:modes.c       **** #include <string.h>
  21:modes.c       **** #include "tassert.h"
  22:modes.c       **** 
  23:modes.c       **** /* CBC */
  24:modes.c       **** void cf_cbc_init(cf_cbc *ctx, const cf_prp *prp, void *prpctx, const uint8_t iv[CF_MAXBLOCK])
  25:modes.c       **** {
 144              		.loc 2 25 0
 145              		.cfi_startproc
 146              		@ args = 0, pretend = 0, frame = 16
 147              		@ frame_needed = 0, uses_anonymous_args = 0
 148 0000 00B5     		push	{lr}
 149              		.cfi_def_cfa_offset 4
 150              		.cfi_offset 14, -4
 151 0002 85B0     		sub	sp, sp, #20
 152              		.cfi_def_cfa_offset 24
 153 0004 0390     		str	r0, [sp, #12]
 154 0006 0291     		str	r1, [sp, #8]
 155 0008 0192     		str	r2, [sp, #4]
 156 000a 0093     		str	r3, [sp]
ARM GAS  C:\Users\andrew\AppData\Local\Temp\ccGQ7h9h.s 			page 9


  26:modes.c       ****   ctx->prp = prp;
 157              		.loc 2 26 0
 158 000c 039B     		ldr	r3, [sp, #12]
 159 000e 029A     		ldr	r2, [sp, #8]
 160 0010 1A60     		str	r2, [r3]
  27:modes.c       ****   ctx->prpctx = prpctx;
 161              		.loc 2 27 0
 162 0012 039B     		ldr	r3, [sp, #12]
 163 0014 019A     		ldr	r2, [sp, #4]
 164 0016 5A60     		str	r2, [r3, #4]
  28:modes.c       ****   memcpy(ctx->block, iv, prp->blocksz);
 165              		.loc 2 28 0
 166 0018 039B     		ldr	r3, [sp, #12]
 167 001a 0833     		adds	r3, r3, #8
 168 001c 1800     		movs	r0, r3
 169 001e 029B     		ldr	r3, [sp, #8]
 170 0020 1A68     		ldr	r2, [r3]
 171 0022 009B     		ldr	r3, [sp]
 172 0024 1900     		movs	r1, r3
 173 0026 FFF7FEFF 		bl	memcpy
  29:modes.c       **** }
 174              		.loc 2 29 0
 175 002a C046     		nop
 176 002c 05B0     		add	sp, sp, #20
 177              		@ sp needed
 178 002e 00BD     		pop	{pc}
 179              		.cfi_endproc
 180              	.LFE25:
 181              		.size	cf_cbc_init, .-cf_cbc_init
 182              		.section	.text.cf_cbc_encrypt,"ax",%progbits
 183              		.align	2
 184              		.global	cf_cbc_encrypt
 185              		.code	16
 186              		.thumb_func
 187              		.type	cf_cbc_encrypt, %function
 188              	cf_cbc_encrypt:
 189              	.LFB26:
  30:modes.c       **** 
  31:modes.c       **** void cf_cbc_encrypt(cf_cbc *ctx, const uint8_t *input, uint8_t *output, size_t blocks)
  32:modes.c       **** {
 190              		.loc 2 32 0
 191              		.cfi_startproc
 192              		@ args = 0, pretend = 0, frame = 40
 193              		@ frame_needed = 0, uses_anonymous_args = 0
 194 0000 10B5     		push	{r4, lr}
 195              		.cfi_def_cfa_offset 8
 196              		.cfi_offset 4, -8
 197              		.cfi_offset 14, -4
 198 0002 8AB0     		sub	sp, sp, #40
 199              		.cfi_def_cfa_offset 48
 200 0004 0390     		str	r0, [sp, #12]
 201 0006 0291     		str	r1, [sp, #8]
 202 0008 0192     		str	r2, [sp, #4]
 203 000a 0093     		str	r3, [sp]
  33:modes.c       ****   uint8_t buf[CF_MAXBLOCK];
  34:modes.c       ****   size_t nblk = ctx->prp->blocksz;
 204              		.loc 2 34 0
ARM GAS  C:\Users\andrew\AppData\Local\Temp\ccGQ7h9h.s 			page 10


 205 000c 039B     		ldr	r3, [sp, #12]
 206 000e 1B68     		ldr	r3, [r3]
 207 0010 1B68     		ldr	r3, [r3]
 208 0012 0993     		str	r3, [sp, #36]
  35:modes.c       **** 
  36:modes.c       ****   while (blocks--)
 209              		.loc 2 36 0
 210 0014 22E0     		b	.L13
 211              	.L14:
  37:modes.c       ****   {
  38:modes.c       ****     xor_bb(buf, input, ctx->block, nblk);
 212              		.loc 2 38 0
 213 0016 039B     		ldr	r3, [sp, #12]
 214 0018 0833     		adds	r3, r3, #8
 215 001a 1A00     		movs	r2, r3
 216 001c 099B     		ldr	r3, [sp, #36]
 217 001e 0299     		ldr	r1, [sp, #8]
 218 0020 05A8     		add	r0, sp, #20
 219 0022 FFF7FEFF 		bl	xor_bb
  39:modes.c       ****     ctx->prp->encrypt(ctx->prpctx, buf, ctx->block);
 220              		.loc 2 39 0
 221 0026 039B     		ldr	r3, [sp, #12]
 222 0028 1B68     		ldr	r3, [r3]
 223 002a 5C68     		ldr	r4, [r3, #4]
 224 002c 039B     		ldr	r3, [sp, #12]
 225 002e 5868     		ldr	r0, [r3, #4]
 226 0030 039B     		ldr	r3, [sp, #12]
 227 0032 0833     		adds	r3, r3, #8
 228 0034 1A00     		movs	r2, r3
 229 0036 05AB     		add	r3, sp, #20
 230 0038 1900     		movs	r1, r3
 231 003a A047     		blx	r4
  40:modes.c       ****     memcpy(output, ctx->block, nblk);
 232              		.loc 2 40 0
 233 003c 039B     		ldr	r3, [sp, #12]
 234 003e 0833     		adds	r3, r3, #8
 235 0040 1900     		movs	r1, r3
 236 0042 099A     		ldr	r2, [sp, #36]
 237 0044 019B     		ldr	r3, [sp, #4]
 238 0046 1800     		movs	r0, r3
 239 0048 FFF7FEFF 		bl	memcpy
  41:modes.c       ****     input += nblk;
 240              		.loc 2 41 0
 241 004c 029A     		ldr	r2, [sp, #8]
 242 004e 099B     		ldr	r3, [sp, #36]
 243 0050 D318     		adds	r3, r2, r3
 244 0052 0293     		str	r3, [sp, #8]
  42:modes.c       ****     output += nblk;
 245              		.loc 2 42 0
 246 0054 019A     		ldr	r2, [sp, #4]
 247 0056 099B     		ldr	r3, [sp, #36]
 248 0058 D318     		adds	r3, r2, r3
 249 005a 0193     		str	r3, [sp, #4]
 250              	.L13:
  36:modes.c       ****   {
 251              		.loc 2 36 0
 252 005c 009B     		ldr	r3, [sp]
ARM GAS  C:\Users\andrew\AppData\Local\Temp\ccGQ7h9h.s 			page 11


 253 005e 5A1E     		subs	r2, r3, #1
 254 0060 0092     		str	r2, [sp]
 255 0062 002B     		cmp	r3, #0
 256 0064 D7D1     		bne	.L14
  43:modes.c       ****   }
  44:modes.c       **** }
 257              		.loc 2 44 0
 258 0066 C046     		nop
 259 0068 0AB0     		add	sp, sp, #40
 260              		@ sp needed
 261 006a 10BD     		pop	{r4, pc}
 262              		.cfi_endproc
 263              	.LFE26:
 264              		.size	cf_cbc_encrypt, .-cf_cbc_encrypt
 265              		.section	.text.cf_cbc_decrypt,"ax",%progbits
 266              		.align	2
 267              		.global	cf_cbc_decrypt
 268              		.code	16
 269              		.thumb_func
 270              		.type	cf_cbc_decrypt, %function
 271              	cf_cbc_decrypt:
 272              	.LFB27:
  45:modes.c       **** 
  46:modes.c       **** void cf_cbc_decrypt(cf_cbc *ctx, const uint8_t *input, uint8_t *output, size_t blocks)
  47:modes.c       **** {
 273              		.loc 2 47 0
 274              		.cfi_startproc
 275              		@ args = 0, pretend = 0, frame = 40
 276              		@ frame_needed = 0, uses_anonymous_args = 0
 277 0000 10B5     		push	{r4, lr}
 278              		.cfi_def_cfa_offset 8
 279              		.cfi_offset 4, -8
 280              		.cfi_offset 14, -4
 281 0002 8AB0     		sub	sp, sp, #40
 282              		.cfi_def_cfa_offset 48
 283 0004 0390     		str	r0, [sp, #12]
 284 0006 0291     		str	r1, [sp, #8]
 285 0008 0192     		str	r2, [sp, #4]
 286 000a 0093     		str	r3, [sp]
  48:modes.c       ****   uint8_t buf[CF_MAXBLOCK];
  49:modes.c       ****   size_t nblk = ctx->prp->blocksz;
 287              		.loc 2 49 0
 288 000c 039B     		ldr	r3, [sp, #12]
 289 000e 1B68     		ldr	r3, [r3]
 290 0010 1B68     		ldr	r3, [r3]
 291 0012 0993     		str	r3, [sp, #36]
  50:modes.c       **** 
  51:modes.c       ****   while (blocks--)
 292              		.loc 2 51 0
 293 0014 1FE0     		b	.L16
 294              	.L17:
  52:modes.c       ****   {
  53:modes.c       ****     ctx->prp->decrypt(ctx->prpctx, input, buf);
 295              		.loc 2 53 0
 296 0016 039B     		ldr	r3, [sp, #12]
 297 0018 1B68     		ldr	r3, [r3]
 298 001a 9C68     		ldr	r4, [r3, #8]
ARM GAS  C:\Users\andrew\AppData\Local\Temp\ccGQ7h9h.s 			page 12


 299 001c 039B     		ldr	r3, [sp, #12]
 300 001e 5B68     		ldr	r3, [r3, #4]
 301 0020 05AA     		add	r2, sp, #20
 302 0022 0299     		ldr	r1, [sp, #8]
 303 0024 1800     		movs	r0, r3
 304 0026 A047     		blx	r4
  54:modes.c       ****     xor_bb(output, buf, ctx->block, nblk);
 305              		.loc 2 54 0
 306 0028 039B     		ldr	r3, [sp, #12]
 307 002a 0833     		adds	r3, r3, #8
 308 002c 1A00     		movs	r2, r3
 309 002e 099B     		ldr	r3, [sp, #36]
 310 0030 05A9     		add	r1, sp, #20
 311 0032 0198     		ldr	r0, [sp, #4]
 312 0034 FFF7FEFF 		bl	xor_bb
  55:modes.c       ****     memcpy(ctx->block, input, nblk);
 313              		.loc 2 55 0
 314 0038 039B     		ldr	r3, [sp, #12]
 315 003a 0833     		adds	r3, r3, #8
 316 003c 099A     		ldr	r2, [sp, #36]
 317 003e 0299     		ldr	r1, [sp, #8]
 318 0040 1800     		movs	r0, r3
 319 0042 FFF7FEFF 		bl	memcpy
  56:modes.c       ****     input += nblk;
 320              		.loc 2 56 0
 321 0046 029A     		ldr	r2, [sp, #8]
 322 0048 099B     		ldr	r3, [sp, #36]
 323 004a D318     		adds	r3, r2, r3
 324 004c 0293     		str	r3, [sp, #8]
  57:modes.c       ****     output += nblk;
 325              		.loc 2 57 0
 326 004e 019A     		ldr	r2, [sp, #4]
 327 0050 099B     		ldr	r3, [sp, #36]
 328 0052 D318     		adds	r3, r2, r3
 329 0054 0193     		str	r3, [sp, #4]
 330              	.L16:
  51:modes.c       ****   {
 331              		.loc 2 51 0
 332 0056 009B     		ldr	r3, [sp]
 333 0058 5A1E     		subs	r2, r3, #1
 334 005a 0092     		str	r2, [sp]
 335 005c 002B     		cmp	r3, #0
 336 005e DAD1     		bne	.L17
  58:modes.c       ****   }
  59:modes.c       **** }
 337              		.loc 2 59 0
 338 0060 C046     		nop
 339 0062 0AB0     		add	sp, sp, #40
 340              		@ sp needed
 341 0064 10BD     		pop	{r4, pc}
 342              		.cfi_endproc
 343              	.LFE27:
 344              		.size	cf_cbc_decrypt, .-cf_cbc_decrypt
 345 0066 C046     		.section	.text.cf_ctr_init,"ax",%progbits
 346              		.align	2
 347              		.global	cf_ctr_init
 348              		.code	16
ARM GAS  C:\Users\andrew\AppData\Local\Temp\ccGQ7h9h.s 			page 13


 349              		.thumb_func
 350              		.type	cf_ctr_init, %function
 351              	cf_ctr_init:
 352              	.LFB28:
  60:modes.c       **** 
  61:modes.c       **** /* CTR */
  62:modes.c       **** void cf_ctr_init(cf_ctr *ctx, const cf_prp *prp, void *prpctx, const uint8_t nonce[CF_MAXBLOCK])
  63:modes.c       **** {
 353              		.loc 2 63 0
 354              		.cfi_startproc
 355              		@ args = 0, pretend = 0, frame = 16
 356              		@ frame_needed = 0, uses_anonymous_args = 0
 357 0000 00B5     		push	{lr}
 358              		.cfi_def_cfa_offset 4
 359              		.cfi_offset 14, -4
 360 0002 85B0     		sub	sp, sp, #20
 361              		.cfi_def_cfa_offset 24
 362 0004 0390     		str	r0, [sp, #12]
 363 0006 0291     		str	r1, [sp, #8]
 364 0008 0192     		str	r2, [sp, #4]
 365 000a 0093     		str	r3, [sp]
  64:modes.c       ****   memset(ctx, 0, sizeof *ctx);
 366              		.loc 2 64 0
 367 000c 039B     		ldr	r3, [sp, #12]
 368 000e 3422     		movs	r2, #52
 369 0010 0021     		movs	r1, #0
 370 0012 1800     		movs	r0, r3
 371 0014 FFF7FEFF 		bl	memset
  65:modes.c       ****   ctx->counter_offset = 0;
 372              		.loc 2 65 0
 373 0018 039B     		ldr	r3, [sp, #12]
 374 001a 0022     		movs	r2, #0
 375 001c DA62     		str	r2, [r3, #44]
  66:modes.c       ****   ctx->counter_width = prp->blocksz;
 376              		.loc 2 66 0
 377 001e 029B     		ldr	r3, [sp, #8]
 378 0020 1A68     		ldr	r2, [r3]
 379 0022 039B     		ldr	r3, [sp, #12]
 380 0024 1A63     		str	r2, [r3, #48]
  67:modes.c       ****   ctx->prp = prp;
 381              		.loc 2 67 0
 382 0026 039B     		ldr	r3, [sp, #12]
 383 0028 029A     		ldr	r2, [sp, #8]
 384 002a 1A60     		str	r2, [r3]
  68:modes.c       ****   ctx->prpctx = prpctx;
 385              		.loc 2 68 0
 386 002c 039B     		ldr	r3, [sp, #12]
 387 002e 019A     		ldr	r2, [sp, #4]
 388 0030 5A60     		str	r2, [r3, #4]
  69:modes.c       ****   ctx->nkeymat = 0;
 389              		.loc 2 69 0
 390 0032 039B     		ldr	r3, [sp, #12]
 391 0034 0022     		movs	r2, #0
 392 0036 9A62     		str	r2, [r3, #40]
  70:modes.c       ****   memcpy(ctx->nonce, nonce, prp->blocksz);
 393              		.loc 2 70 0
 394 0038 039B     		ldr	r3, [sp, #12]
ARM GAS  C:\Users\andrew\AppData\Local\Temp\ccGQ7h9h.s 			page 14


 395 003a 0833     		adds	r3, r3, #8
 396 003c 1800     		movs	r0, r3
 397 003e 029B     		ldr	r3, [sp, #8]
 398 0040 1A68     		ldr	r2, [r3]
 399 0042 009B     		ldr	r3, [sp]
 400 0044 1900     		movs	r1, r3
 401 0046 FFF7FEFF 		bl	memcpy
  71:modes.c       **** }
 402              		.loc 2 71 0
 403 004a C046     		nop
 404 004c 05B0     		add	sp, sp, #20
 405              		@ sp needed
 406 004e 00BD     		pop	{pc}
 407              		.cfi_endproc
 408              	.LFE28:
 409              		.size	cf_ctr_init, .-cf_ctr_init
 410              		.section	.text.cf_ctr_custom_counter,"ax",%progbits
 411              		.align	2
 412              		.global	cf_ctr_custom_counter
 413              		.code	16
 414              		.thumb_func
 415              		.type	cf_ctr_custom_counter, %function
 416              	cf_ctr_custom_counter:
 417              	.LFB29:
  72:modes.c       **** 
  73:modes.c       **** void cf_ctr_custom_counter(cf_ctr *ctx, size_t offset, size_t width)
  74:modes.c       **** {
 418              		.loc 2 74 0
 419              		.cfi_startproc
 420              		@ args = 0, pretend = 0, frame = 16
 421              		@ frame_needed = 0, uses_anonymous_args = 0
 422              		@ link register save eliminated.
 423 0000 84B0     		sub	sp, sp, #16
 424              		.cfi_def_cfa_offset 16
 425 0002 0390     		str	r0, [sp, #12]
 426 0004 0291     		str	r1, [sp, #8]
 427 0006 0192     		str	r2, [sp, #4]
  75:modes.c       ****   assert(ctx->prp->blocksz <= offset + width);
  76:modes.c       ****   ctx->counter_offset = offset;
 428              		.loc 2 76 0
 429 0008 039B     		ldr	r3, [sp, #12]
 430 000a 029A     		ldr	r2, [sp, #8]
 431 000c DA62     		str	r2, [r3, #44]
  77:modes.c       ****   ctx->counter_width = width;
 432              		.loc 2 77 0
 433 000e 039B     		ldr	r3, [sp, #12]
 434 0010 019A     		ldr	r2, [sp, #4]
 435 0012 1A63     		str	r2, [r3, #48]
  78:modes.c       **** }
 436              		.loc 2 78 0
 437 0014 C046     		nop
 438 0016 04B0     		add	sp, sp, #16
 439              		@ sp needed
 440 0018 7047     		bx	lr
 441              		.cfi_endproc
 442              	.LFE29:
 443              		.size	cf_ctr_custom_counter, .-cf_ctr_custom_counter
ARM GAS  C:\Users\andrew\AppData\Local\Temp\ccGQ7h9h.s 			page 15


 444 001a C046     		.section	.text.ctr_next_block,"ax",%progbits
 445              		.align	2
 446              		.code	16
 447              		.thumb_func
 448              		.type	ctr_next_block, %function
 449              	ctr_next_block:
 450              	.LFB30:
  79:modes.c       **** 
  80:modes.c       **** static void ctr_next_block(void *vctx, uint8_t *out)
  81:modes.c       **** {
 451              		.loc 2 81 0
 452              		.cfi_startproc
 453              		@ args = 0, pretend = 0, frame = 16
 454              		@ frame_needed = 0, uses_anonymous_args = 0
 455 0000 10B5     		push	{r4, lr}
 456              		.cfi_def_cfa_offset 8
 457              		.cfi_offset 4, -8
 458              		.cfi_offset 14, -4
 459 0002 84B0     		sub	sp, sp, #16
 460              		.cfi_def_cfa_offset 24
 461 0004 0190     		str	r0, [sp, #4]
 462 0006 0091     		str	r1, [sp]
  82:modes.c       ****   cf_ctr *ctx = vctx;
 463              		.loc 2 82 0
 464 0008 019B     		ldr	r3, [sp, #4]
 465 000a 0393     		str	r3, [sp, #12]
  83:modes.c       ****   ctx->prp->encrypt(ctx->prpctx, ctx->nonce, out);
 466              		.loc 2 83 0
 467 000c 039B     		ldr	r3, [sp, #12]
 468 000e 1B68     		ldr	r3, [r3]
 469 0010 5C68     		ldr	r4, [r3, #4]
 470 0012 039B     		ldr	r3, [sp, #12]
 471 0014 5868     		ldr	r0, [r3, #4]
 472 0016 039B     		ldr	r3, [sp, #12]
 473 0018 0833     		adds	r3, r3, #8
 474 001a 009A     		ldr	r2, [sp]
 475 001c 1900     		movs	r1, r3
 476 001e A047     		blx	r4
  84:modes.c       ****   incr_be(ctx->nonce + ctx->counter_offset, ctx->counter_width);
 477              		.loc 2 84 0
 478 0020 039B     		ldr	r3, [sp, #12]
 479 0022 0833     		adds	r3, r3, #8
 480 0024 1A00     		movs	r2, r3
 481 0026 039B     		ldr	r3, [sp, #12]
 482 0028 DB6A     		ldr	r3, [r3, #44]
 483 002a D218     		adds	r2, r2, r3
 484 002c 039B     		ldr	r3, [sp, #12]
 485 002e 1B6B     		ldr	r3, [r3, #48]
 486 0030 1900     		movs	r1, r3
 487 0032 1000     		movs	r0, r2
 488 0034 FFF7FEFF 		bl	incr_be
  85:modes.c       **** }
 489              		.loc 2 85 0
 490 0038 C046     		nop
 491 003a 04B0     		add	sp, sp, #16
 492              		@ sp needed
 493 003c 10BD     		pop	{r4, pc}
ARM GAS  C:\Users\andrew\AppData\Local\Temp\ccGQ7h9h.s 			page 16


 494              		.cfi_endproc
 495              	.LFE30:
 496              		.size	ctr_next_block, .-ctr_next_block
 497 003e C046     		.section	.text.cf_ctr_cipher,"ax",%progbits
 498              		.align	2
 499              		.global	cf_ctr_cipher
 500              		.code	16
 501              		.thumb_func
 502              		.type	cf_ctr_cipher, %function
 503              	cf_ctr_cipher:
 504              	.LFB31:
  86:modes.c       **** 
  87:modes.c       **** void cf_ctr_cipher(cf_ctr *ctx, const uint8_t *input, uint8_t *output, size_t bytes)
  88:modes.c       **** {
 505              		.loc 2 88 0
 506              		.cfi_startproc
 507              		@ args = 0, pretend = 0, frame = 16
 508              		@ frame_needed = 0, uses_anonymous_args = 0
 509 0000 10B5     		push	{r4, lr}
 510              		.cfi_def_cfa_offset 8
 511              		.cfi_offset 4, -8
 512              		.cfi_offset 14, -4
 513 0002 88B0     		sub	sp, sp, #32
 514              		.cfi_def_cfa_offset 40
 515 0004 0790     		str	r0, [sp, #28]
 516 0006 0691     		str	r1, [sp, #24]
 517 0008 0592     		str	r2, [sp, #20]
 518 000a 0493     		str	r3, [sp, #16]
  89:modes.c       ****   cf_blockwise_xor(ctx->keymat, &ctx->nkeymat,
 519              		.loc 2 89 0
 520 000c 079B     		ldr	r3, [sp, #28]
 521 000e 1833     		adds	r3, r3, #24
 522 0010 1800     		movs	r0, r3
 523 0012 079B     		ldr	r3, [sp, #28]
 524 0014 2833     		adds	r3, r3, #40
 525 0016 1900     		movs	r1, r3
  90:modes.c       ****                    ctx->prp->blocksz,
 526              		.loc 2 90 0
 527 0018 079B     		ldr	r3, [sp, #28]
 528 001a 1B68     		ldr	r3, [r3]
  89:modes.c       ****   cf_blockwise_xor(ctx->keymat, &ctx->nkeymat,
 529              		.loc 2 89 0
 530 001c 1A68     		ldr	r2, [r3]
 531 001e 069C     		ldr	r4, [sp, #24]
 532 0020 079B     		ldr	r3, [sp, #28]
 533 0022 0393     		str	r3, [sp, #12]
 534 0024 054B     		ldr	r3, .L22
 535 0026 0293     		str	r3, [sp, #8]
 536 0028 049B     		ldr	r3, [sp, #16]
 537 002a 0193     		str	r3, [sp, #4]
 538 002c 059B     		ldr	r3, [sp, #20]
 539 002e 0093     		str	r3, [sp]
 540 0030 2300     		movs	r3, r4
 541 0032 FFF7FEFF 		bl	cf_blockwise_xor
  91:modes.c       ****                    input, output, bytes,
  92:modes.c       ****                    ctr_next_block,
  93:modes.c       ****                    ctx);
ARM GAS  C:\Users\andrew\AppData\Local\Temp\ccGQ7h9h.s 			page 17


  94:modes.c       **** }
 542              		.loc 2 94 0
 543 0036 C046     		nop
 544 0038 08B0     		add	sp, sp, #32
 545              		@ sp needed
 546 003a 10BD     		pop	{r4, pc}
 547              	.L23:
 548              		.align	2
 549              	.L22:
 550 003c 00000000 		.word	ctr_next_block
 551              		.cfi_endproc
 552              	.LFE31:
 553              		.size	cf_ctr_cipher, .-cf_ctr_cipher
 554              		.section	.text.cf_ctr_discard_block,"ax",%progbits
 555              		.align	2
 556              		.global	cf_ctr_discard_block
 557              		.code	16
 558              		.thumb_func
 559              		.type	cf_ctr_discard_block, %function
 560              	cf_ctr_discard_block:
 561              	.LFB32:
  95:modes.c       **** 
  96:modes.c       **** void cf_ctr_discard_block(cf_ctr *ctx)
  97:modes.c       **** {
 562              		.loc 2 97 0
 563              		.cfi_startproc
 564              		@ args = 0, pretend = 0, frame = 8
 565              		@ frame_needed = 0, uses_anonymous_args = 0
 566              		@ link register save eliminated.
 567 0000 82B0     		sub	sp, sp, #8
 568              		.cfi_def_cfa_offset 8
 569 0002 0190     		str	r0, [sp, #4]
  98:modes.c       ****   ctx->nkeymat = 0;
 570              		.loc 2 98 0
 571 0004 019B     		ldr	r3, [sp, #4]
 572 0006 0022     		movs	r2, #0
 573 0008 9A62     		str	r2, [r3, #40]
  99:modes.c       **** }
 574              		.loc 2 99 0
 575 000a C046     		nop
 576 000c 02B0     		add	sp, sp, #8
 577              		@ sp needed
 578 000e 7047     		bx	lr
 579              		.cfi_endproc
 580              	.LFE32:
 581              		.size	cf_ctr_discard_block, .-cf_ctr_discard_block
 582              		.text
 583              	.Letext0:
 584              		.file 3 "c:\\program files (x86)\\cypress\\psoc creator\\4.1\\psoc creator\\import\\gnu\\arm\\5.4.
 585              		.file 4 "c:\\program files (x86)\\cypress\\psoc creator\\4.1\\psoc creator\\import\\gnu\\arm\\5.4.
 586              		.file 5 "c:\\program files (x86)\\cypress\\psoc creator\\4.1\\psoc creator\\import\\gnu\\arm\\5.4.
 587              		.file 6 "prp.h"
 588              		.file 7 "modes.h"