ARM GAS  C:\Users\andrew\AppData\Local\Temp\ccN9Mpsj.s 			page 1


   1              		.syntax unified
   2              		.cpu cortex-m0
   3              		.fpu softvfp
   4              		.eabi_attribute 20, 1
   5              		.eabi_attribute 21, 1
   6              		.eabi_attribute 23, 3
   7              		.eabi_attribute 24, 1
   8              		.eabi_attribute 25, 1
   9              		.eabi_attribute 26, 1
  10              		.eabi_attribute 30, 6
  11              		.eabi_attribute 34, 0
  12              		.eabi_attribute 18, 4
  13              		.thumb
  14              		.syntax unified
  15              		.file	"uECC.c"
  16              		.text
  17              	.Ltext0:
  18              		.cfi_sections	.debug_frame
  19              		.section	.text.uECC_vli_add,"ax",%progbits
  20              		.align	2
  21              		.code	16
  22              		.thumb_func
  23              		.type	uECC_vli_add, %function
  24              	uECC_vli_add:
  25              	.LFB0:
  26              		.file 1 "asm_arm.inc"
   1:asm_arm.inc   **** /* Copyright 2015, Kenneth MacKay. Licensed under the BSD 2-clause license. */
   2:asm_arm.inc   **** 
   3:asm_arm.inc   **** #ifndef _UECC_ASM_ARM_H_
   4:asm_arm.inc   **** #define _UECC_ASM_ARM_H_
   5:asm_arm.inc   **** 
   6:asm_arm.inc   **** #if (uECC_SUPPORTS_secp256r1 || uECC_SUPPORTS_secp256k1)
   7:asm_arm.inc   ****     #define uECC_MIN_WORDS 8
   8:asm_arm.inc   **** #endif
   9:asm_arm.inc   **** #if uECC_SUPPORTS_secp224r1
  10:asm_arm.inc   ****     #undef uECC_MIN_WORDS
  11:asm_arm.inc   ****     #define uECC_MIN_WORDS 7
  12:asm_arm.inc   **** #endif
  13:asm_arm.inc   **** #if uECC_SUPPORTS_secp192r1
  14:asm_arm.inc   ****     #undef uECC_MIN_WORDS
  15:asm_arm.inc   ****     #define uECC_MIN_WORDS 6
  16:asm_arm.inc   **** #endif
  17:asm_arm.inc   **** #if uECC_SUPPORTS_secp160r1
  18:asm_arm.inc   ****     #undef uECC_MIN_WORDS
  19:asm_arm.inc   ****     #define uECC_MIN_WORDS 5
  20:asm_arm.inc   **** #endif
  21:asm_arm.inc   **** 
  22:asm_arm.inc   **** #if (uECC_PLATFORM == uECC_arm_thumb)
  23:asm_arm.inc   ****     #define REG_RW "+l"
  24:asm_arm.inc   ****     #define REG_WRITE "=l"
  25:asm_arm.inc   **** #else
  26:asm_arm.inc   ****     #define REG_RW "+r"
  27:asm_arm.inc   ****     #define REG_WRITE "=r"
  28:asm_arm.inc   **** #endif
  29:asm_arm.inc   **** 
  30:asm_arm.inc   **** #if (uECC_PLATFORM == uECC_arm_thumb || uECC_PLATFORM == uECC_arm_thumb2)
  31:asm_arm.inc   ****     #define REG_RW_LO "+l"
ARM GAS  C:\Users\andrew\AppData\Local\Temp\ccN9Mpsj.s 			page 2


  32:asm_arm.inc   ****     #define REG_WRITE_LO "=l"
  33:asm_arm.inc   **** #else
  34:asm_arm.inc   ****     #define REG_RW_LO "+r"
  35:asm_arm.inc   ****     #define REG_WRITE_LO "=r"
  36:asm_arm.inc   **** #endif
  37:asm_arm.inc   **** 
  38:asm_arm.inc   **** #if (uECC_PLATFORM == uECC_arm_thumb2)
  39:asm_arm.inc   ****     #define RESUME_SYNTAX
  40:asm_arm.inc   **** #else
  41:asm_arm.inc   ****     #define RESUME_SYNTAX ".syntax divided \n\t"
  42:asm_arm.inc   **** #endif
  43:asm_arm.inc   **** 
  44:asm_arm.inc   **** #if (uECC_OPTIMIZATION_LEVEL >= 2)
  45:asm_arm.inc   **** 
  46:asm_arm.inc   **** uECC_VLI_API uECC_word_t uECC_vli_add(uECC_word_t *result,
  47:asm_arm.inc   ****                                       const uECC_word_t *left,
  48:asm_arm.inc   ****                                       const uECC_word_t *right,
  49:asm_arm.inc   ****                                       wordcount_t num_words) {
  27              		.loc 1 49 0
  28              		.cfi_startproc
  29              		@ args = 0, pretend = 0, frame = 32
  30              		@ frame_needed = 0, uses_anonymous_args = 0
  31 0000 70B5     		push	{r4, r5, r6, lr}
  32              		.cfi_def_cfa_offset 16
  33              		.cfi_offset 4, -16
  34              		.cfi_offset 5, -12
  35              		.cfi_offset 6, -8
  36              		.cfi_offset 14, -4
  37 0002 88B0     		sub	sp, sp, #32
  38              		.cfi_def_cfa_offset 48
  39 0004 0390     		str	r0, [sp, #12]
  40 0006 0291     		str	r1, [sp, #8]
  41 0008 0192     		str	r2, [sp, #4]
  42 000a 1A00     		movs	r2, r3
  43 000c 6B46     		mov	r3, sp
  44 000e 0333     		adds	r3, r3, #3
  45 0010 1A70     		strb	r2, [r3]
  50:asm_arm.inc   **** #if (uECC_MAX_WORDS != uECC_MIN_WORDS)
  51:asm_arm.inc   ****   #if (uECC_PLATFORM == uECC_arm_thumb) || (uECC_PLATFORM == uECC_arm_thumb2)
  52:asm_arm.inc   ****     uint32_t jump = (uECC_MAX_WORDS - num_words) * 4 * 2 + 1;
  46              		.loc 1 52 0
  47 0012 6B46     		mov	r3, sp
  48 0014 0333     		adds	r3, r3, #3
  49 0016 1B78     		ldrb	r3, [r3]
  50 0018 5BB2     		sxtb	r3, r3
  51 001a 0822     		movs	r2, #8
  52 001c D31A     		subs	r3, r2, r3
  53 001e DB00     		lsls	r3, r3, #3
  54 0020 0133     		adds	r3, r3, #1
  55 0022 0793     		str	r3, [sp, #28]
  53:asm_arm.inc   ****   #else /* ARM */
  54:asm_arm.inc   ****     uint32_t jump = (uECC_MAX_WORDS - num_words) * 4 * 4;
  55:asm_arm.inc   ****   #endif
  56:asm_arm.inc   **** #endif
  57:asm_arm.inc   ****     uint32_t carry;
  58:asm_arm.inc   ****     uint32_t left_word;
  59:asm_arm.inc   ****     uint32_t right_word;
ARM GAS  C:\Users\andrew\AppData\Local\Temp\ccN9Mpsj.s 			page 3


  60:asm_arm.inc   ****     
  61:asm_arm.inc   ****     __asm__ volatile (
  56              		.loc 1 61 0
  57 0024 0398     		ldr	r0, [sp, #12]
  58 0026 0299     		ldr	r1, [sp, #8]
  59 0028 019A     		ldr	r2, [sp, #4]
  60 002a 079B     		ldr	r3, [sp, #28]
  61              		.syntax divided
  62              	@ 61 "asm_arm.inc" 1
  63              		.syntax unified 
  64 002c 0026     		movs r6, #0 
  65 002e 03A5     		adr r5, 1f 
  66              		.align 4 
  67 0030 5B19     		adds r3, r5 
  68 0032 20C9     		ldmia r1!, {r5} 
  69 0034 10CA     		ldmia r2!, {r4} 
  70 0036 2D19     		adds r5, r4 
  71 0038 20C0     		stmia r0!, {r5} 
  72 003a 1847     		bx r3 
  73              		1: 
  74 003c 20C9     		ldmia r1!, {r5} 
  75 003e 10CA     		ldmia r2!, {r4} 
  76 0040 6541     		adcs r5, r4 
  77 0042 20C0     		stmia r0!, {r5} 
  78 0044 20C9     		ldmia r1!, {r5} 
  79 0046 10CA     		ldmia r2!, {r4} 
  80 0048 6541     		adcs r5, r4 
  81 004a 20C0     		stmia r0!, {r5} 
  82 004c 20C9     		ldmia r1!, {r5} 
  83 004e 10CA     		ldmia r2!, {r4} 
  84 0050 6541     		adcs r5, r4 
  85 0052 20C0     		stmia r0!, {r5} 
  86 0054 20C9     		ldmia r1!, {r5} 
  87 0056 10CA     		ldmia r2!, {r4} 
  88 0058 6541     		adcs r5, r4 
  89 005a 20C0     		stmia r0!, {r5} 
  90 005c 20C9     		ldmia r1!, {r5} 
  91 005e 10CA     		ldmia r2!, {r4} 
  92 0060 6541     		adcs r5, r4 
  93 0062 20C0     		stmia r0!, {r5} 
  94 0064 20C9     		ldmia r1!, {r5} 
  95 0066 10CA     		ldmia r2!, {r4} 
  96 0068 6541     		adcs r5, r4 
  97 006a 20C0     		stmia r0!, {r5} 
  98 006c 20C9     		ldmia r1!, {r5} 
  99 006e 10CA     		ldmia r2!, {r4} 
 100 0070 6541     		adcs r5, r4 
 101 0072 20C0     		stmia r0!, {r5} 
 102 0074 7641     		adcs r6, r6 
 103              		.syntax divided 
 104              		
 105              	@ 0 "" 2
 106              		.thumb
 107              		.syntax unified
 108 0076 0390     		str	r0, [sp, #12]
 109 0078 0291     		str	r1, [sp, #8]
 110 007a 0192     		str	r2, [sp, #4]
ARM GAS  C:\Users\andrew\AppData\Local\Temp\ccN9Mpsj.s 			page 4


 111 007c 0793     		str	r3, [sp, #28]
 112 007e 0696     		str	r6, [sp, #24]
 113 0080 0595     		str	r5, [sp, #20]
 114 0082 0494     		str	r4, [sp, #16]
  62:asm_arm.inc   ****         ".syntax unified \n\t"
  63:asm_arm.inc   ****         "movs %[carry], #0 \n\t"
  64:asm_arm.inc   ****     #if (uECC_MAX_WORDS != uECC_MIN_WORDS)
  65:asm_arm.inc   ****         "adr %[left], 1f \n\t"
  66:asm_arm.inc   ****         ".align 4 \n\t"
  67:asm_arm.inc   ****         "adds %[jump], %[left] \n\t"
  68:asm_arm.inc   ****     #endif
  69:asm_arm.inc   ****         
  70:asm_arm.inc   ****         "ldmia %[lptr]!, {%[left]} \n\t"
  71:asm_arm.inc   ****         "ldmia %[rptr]!, {%[right]} \n\t"
  72:asm_arm.inc   ****         "adds %[left], %[right] \n\t"
  73:asm_arm.inc   ****         "stmia %[dptr]!, {%[left]} \n\t"
  74:asm_arm.inc   ****         
  75:asm_arm.inc   ****     #if (uECC_MAX_WORDS != uECC_MIN_WORDS)
  76:asm_arm.inc   ****         "bx %[jump] \n\t"
  77:asm_arm.inc   ****     #endif
  78:asm_arm.inc   ****         "1: \n\t"
  79:asm_arm.inc   ****         REPEAT(DEC(uECC_MAX_WORDS),
  80:asm_arm.inc   ****             "ldmia %[lptr]!, {%[left]} \n\t"
  81:asm_arm.inc   ****             "ldmia %[rptr]!, {%[right]} \n\t"
  82:asm_arm.inc   ****             "adcs %[left], %[right] \n\t"
  83:asm_arm.inc   ****             "stmia %[dptr]!, {%[left]} \n\t")
  84:asm_arm.inc   ****         
  85:asm_arm.inc   ****         "adcs %[carry], %[carry] \n\t"
  86:asm_arm.inc   ****         RESUME_SYNTAX
  87:asm_arm.inc   ****         : [dptr] REG_RW_LO (result), [lptr] REG_RW_LO (left), [rptr] REG_RW_LO (right),
  88:asm_arm.inc   ****     #if (uECC_MAX_WORDS != uECC_MIN_WORDS)
  89:asm_arm.inc   ****           [jump] REG_RW_LO (jump),
  90:asm_arm.inc   ****     #endif
  91:asm_arm.inc   ****           [carry] REG_WRITE_LO (carry), [left] REG_WRITE_LO (left_word),
  92:asm_arm.inc   ****           [right] REG_WRITE_LO (right_word)
  93:asm_arm.inc   ****         :
  94:asm_arm.inc   ****         : "cc", "memory"
  95:asm_arm.inc   ****     );
  96:asm_arm.inc   ****     return carry;
 115              		.loc 1 96 0
 116 0084 069B     		ldr	r3, [sp, #24]
  97:asm_arm.inc   **** }
 117              		.loc 1 97 0
 118 0086 1800     		movs	r0, r3
 119 0088 08B0     		add	sp, sp, #32
 120              		@ sp needed
 121 008a 70BD     		pop	{r4, r5, r6, pc}
 122              		.cfi_endproc
 123              	.LFE0:
 124              		.size	uECC_vli_add, .-uECC_vli_add
 125              		.section	.text.uECC_vli_sub,"ax",%progbits
 126              		.align	2
 127              		.code	16
 128              		.thumb_func
 129              		.type	uECC_vli_sub, %function
 130              	uECC_vli_sub:
 131              	.LFB1:
ARM GAS  C:\Users\andrew\AppData\Local\Temp\ccN9Mpsj.s 			page 5


  98:asm_arm.inc   **** #define asm_add 1
  99:asm_arm.inc   **** 
 100:asm_arm.inc   **** uECC_VLI_API uECC_word_t uECC_vli_sub(uECC_word_t *result,
 101:asm_arm.inc   ****                                       const uECC_word_t *left,
 102:asm_arm.inc   ****                                       const uECC_word_t *right,
 103:asm_arm.inc   ****                                       wordcount_t num_words) {
 132              		.loc 1 103 0
 133              		.cfi_startproc
 134              		@ args = 0, pretend = 0, frame = 32
 135              		@ frame_needed = 0, uses_anonymous_args = 0
 136 0000 70B5     		push	{r4, r5, r6, lr}
 137              		.cfi_def_cfa_offset 16
 138              		.cfi_offset 4, -16
 139              		.cfi_offset 5, -12
 140              		.cfi_offset 6, -8
 141              		.cfi_offset 14, -4
 142 0002 88B0     		sub	sp, sp, #32
 143              		.cfi_def_cfa_offset 48
 144 0004 0390     		str	r0, [sp, #12]
 145 0006 0291     		str	r1, [sp, #8]
 146 0008 0192     		str	r2, [sp, #4]
 147 000a 1A00     		movs	r2, r3
 148 000c 6B46     		mov	r3, sp
 149 000e 0333     		adds	r3, r3, #3
 150 0010 1A70     		strb	r2, [r3]
 104:asm_arm.inc   **** #if (uECC_MAX_WORDS != uECC_MIN_WORDS)
 105:asm_arm.inc   ****   #if (uECC_PLATFORM == uECC_arm_thumb) || (uECC_PLATFORM == uECC_arm_thumb2)
 106:asm_arm.inc   ****     uint32_t jump = (uECC_MAX_WORDS - num_words) * 4 * 2 + 1;
 151              		.loc 1 106 0
 152 0012 6B46     		mov	r3, sp
 153 0014 0333     		adds	r3, r3, #3
 154 0016 1B78     		ldrb	r3, [r3]
 155 0018 5BB2     		sxtb	r3, r3
 156 001a 0822     		movs	r2, #8
 157 001c D31A     		subs	r3, r2, r3
 158 001e DB00     		lsls	r3, r3, #3
 159 0020 0133     		adds	r3, r3, #1
 160 0022 0793     		str	r3, [sp, #28]
 107:asm_arm.inc   ****   #else /* ARM */
 108:asm_arm.inc   ****     uint32_t jump = (uECC_MAX_WORDS - num_words) * 4 * 4;
 109:asm_arm.inc   ****   #endif
 110:asm_arm.inc   **** #endif
 111:asm_arm.inc   ****     uint32_t carry;
 112:asm_arm.inc   ****     uint32_t left_word;
 113:asm_arm.inc   ****     uint32_t right_word;
 114:asm_arm.inc   ****     
 115:asm_arm.inc   ****     __asm__ volatile (
 161              		.loc 1 115 0
 162 0024 0398     		ldr	r0, [sp, #12]
 163 0026 0299     		ldr	r1, [sp, #8]
 164 0028 019A     		ldr	r2, [sp, #4]
 165 002a 079B     		ldr	r3, [sp, #28]
 166              		.syntax divided
 167              	@ 115 "asm_arm.inc" 1
 168              		.syntax unified 
 169 002c 0026     		movs r6, #0 
 170 002e 03A5     		adr r5, 1f 
ARM GAS  C:\Users\andrew\AppData\Local\Temp\ccN9Mpsj.s 			page 6


 171              		.align 4 
 172 0030 5B19     		adds r3, r5 
 173 0032 20C9     		ldmia r1!, {r5} 
 174 0034 10CA     		ldmia r2!, {r4} 
 175 0036 2D1B     		subs r5, r4 
 176 0038 20C0     		stmia r0!, {r5} 
 177 003a 1847     		bx r3 
 178              		1: 
 179 003c 20C9     		ldmia r1!, {r5} 
 180 003e 10CA     		ldmia r2!, {r4} 
 181 0040 A541     		sbcs r5, r4 
 182 0042 20C0     		stmia r0!, {r5} 
 183 0044 20C9     		ldmia r1!, {r5} 
 184 0046 10CA     		ldmia r2!, {r4} 
 185 0048 A541     		sbcs r5, r4 
 186 004a 20C0     		stmia r0!, {r5} 
 187 004c 20C9     		ldmia r1!, {r5} 
 188 004e 10CA     		ldmia r2!, {r4} 
 189 0050 A541     		sbcs r5, r4 
 190 0052 20C0     		stmia r0!, {r5} 
 191 0054 20C9     		ldmia r1!, {r5} 
 192 0056 10CA     		ldmia r2!, {r4} 
 193 0058 A541     		sbcs r5, r4 
 194 005a 20C0     		stmia r0!, {r5} 
 195 005c 20C9     		ldmia r1!, {r5} 
 196 005e 10CA     		ldmia r2!, {r4} 
 197 0060 A541     		sbcs r5, r4 
 198 0062 20C0     		stmia r0!, {r5} 
 199 0064 20C9     		ldmia r1!, {r5} 
 200 0066 10CA     		ldmia r2!, {r4} 
 201 0068 A541     		sbcs r5, r4 
 202 006a 20C0     		stmia r0!, {r5} 
 203 006c 20C9     		ldmia r1!, {r5} 
 204 006e 10CA     		ldmia r2!, {r4} 
 205 0070 A541     		sbcs r5, r4 
 206 0072 20C0     		stmia r0!, {r5} 
 207 0074 7641     		adcs r6, r6 
 208              		.syntax divided 
 209              		
 210              	@ 0 "" 2
 211              		.thumb
 212              		.syntax unified
 213 0076 0390     		str	r0, [sp, #12]
 214 0078 0291     		str	r1, [sp, #8]
 215 007a 0192     		str	r2, [sp, #4]
 216 007c 0793     		str	r3, [sp, #28]
 217 007e 0696     		str	r6, [sp, #24]
 218 0080 0595     		str	r5, [sp, #20]
 219 0082 0494     		str	r4, [sp, #16]
 116:asm_arm.inc   ****         ".syntax unified \n\t"
 117:asm_arm.inc   ****         "movs %[carry], #0 \n\t"
 118:asm_arm.inc   ****     #if (uECC_MAX_WORDS != uECC_MIN_WORDS)
 119:asm_arm.inc   ****         "adr %[left], 1f \n\t"
 120:asm_arm.inc   ****         ".align 4 \n\t"
 121:asm_arm.inc   ****         "adds %[jump], %[left] \n\t"
 122:asm_arm.inc   ****     #endif
 123:asm_arm.inc   ****         
ARM GAS  C:\Users\andrew\AppData\Local\Temp\ccN9Mpsj.s 			page 7


 124:asm_arm.inc   ****         "ldmia %[lptr]!, {%[left]} \n\t"
 125:asm_arm.inc   ****         "ldmia %[rptr]!, {%[right]} \n\t"
 126:asm_arm.inc   ****         "subs %[left], %[right] \n\t"
 127:asm_arm.inc   ****         "stmia %[dptr]!, {%[left]} \n\t"
 128:asm_arm.inc   ****         
 129:asm_arm.inc   ****     #if (uECC_MAX_WORDS != uECC_MIN_WORDS)
 130:asm_arm.inc   ****         "bx %[jump] \n\t"
 131:asm_arm.inc   ****     #endif
 132:asm_arm.inc   ****         "1: \n\t"
 133:asm_arm.inc   ****         REPEAT(DEC(uECC_MAX_WORDS),
 134:asm_arm.inc   ****             "ldmia %[lptr]!, {%[left]} \n\t"
 135:asm_arm.inc   ****             "ldmia %[rptr]!, {%[right]} \n\t"
 136:asm_arm.inc   ****             "sbcs %[left], %[right] \n\t"
 137:asm_arm.inc   ****             "stmia %[dptr]!, {%[left]} \n\t")
 138:asm_arm.inc   ****         
 139:asm_arm.inc   ****         "adcs %[carry], %[carry] \n\t"
 140:asm_arm.inc   ****         RESUME_SYNTAX
 141:asm_arm.inc   ****         : [dptr] REG_RW_LO (result), [lptr] REG_RW_LO (left), [rptr] REG_RW_LO (right),
 142:asm_arm.inc   ****     #if (uECC_MAX_WORDS != uECC_MIN_WORDS)
 143:asm_arm.inc   ****           [jump] REG_RW_LO (jump),
 144:asm_arm.inc   ****     #endif
 145:asm_arm.inc   ****           [carry] REG_WRITE_LO (carry), [left] REG_WRITE_LO (left_word),
 146:asm_arm.inc   ****           [right] REG_WRITE_LO (right_word)
 147:asm_arm.inc   ****         :
 148:asm_arm.inc   ****         : "cc", "memory"
 149:asm_arm.inc   ****     );
 150:asm_arm.inc   ****     return !carry; /* Note that on ARM, carry flag set means "no borrow" when subtracting
 220              		.loc 1 150 0
 221 0084 069B     		ldr	r3, [sp, #24]
 222 0086 5A42     		rsbs	r2, r3, #0
 223 0088 5341     		adcs	r3, r3, r2
 224 008a DBB2     		uxtb	r3, r3
 151:asm_arm.inc   ****                       (for some reason...) */
 152:asm_arm.inc   **** }
 225              		.loc 1 152 0
 226 008c 1800     		movs	r0, r3
 227 008e 08B0     		add	sp, sp, #32
 228              		@ sp needed
 229 0090 70BD     		pop	{r4, r5, r6, pc}
 230              		.cfi_endproc
 231              	.LFE1:
 232              		.size	uECC_vli_sub, .-uECC_vli_sub
 233 0092 C046     		.section	.text.uECC_vli_mult,"ax",%progbits
 234              		.align	2
 235              		.code	16
 236              		.thumb_func
 237              		.type	uECC_vli_mult, %function
 238              	uECC_vli_mult:
 239              	.LFB2:
 153:asm_arm.inc   **** #define asm_sub 1
 154:asm_arm.inc   **** 
 155:asm_arm.inc   **** #endif /* (uECC_OPTIMIZATION_LEVEL >= 2) */
 156:asm_arm.inc   **** 
 157:asm_arm.inc   **** #if (uECC_OPTIMIZATION_LEVEL >= 3)
 158:asm_arm.inc   **** 
 159:asm_arm.inc   **** #if (uECC_PLATFORM != uECC_arm_thumb)
 160:asm_arm.inc   **** 
ARM GAS  C:\Users\andrew\AppData\Local\Temp\ccN9Mpsj.s 			page 8


 161:asm_arm.inc   **** #if uECC_ARM_USE_UMAAL
 162:asm_arm.inc   ****     #include "asm_arm_mult_square_umaal.inc"
 163:asm_arm.inc   **** #else
 164:asm_arm.inc   ****     #include "asm_arm_mult_square.inc"
 165:asm_arm.inc   **** #endif
 166:asm_arm.inc   **** 
 167:asm_arm.inc   **** #if (uECC_OPTIMIZATION_LEVEL == 3)
 168:asm_arm.inc   **** 
 169:asm_arm.inc   **** uECC_VLI_API void uECC_vli_mult(uint32_t *result,
 170:asm_arm.inc   ****                                 const uint32_t *left,
 171:asm_arm.inc   ****                                 const uint32_t *right,
 172:asm_arm.inc   ****                                 wordcount_t num_words) {
 173:asm_arm.inc   ****     register uint32_t *r0 __asm__("r0") = result;
 174:asm_arm.inc   ****     register const uint32_t *r1 __asm__("r1") = left;
 175:asm_arm.inc   ****     register const uint32_t *r2 __asm__("r2") = right;
 176:asm_arm.inc   ****     register uint32_t r3 __asm__("r3") = num_words;
 177:asm_arm.inc   ****     
 178:asm_arm.inc   ****     __asm__ volatile (
 179:asm_arm.inc   ****         ".syntax unified \n\t"
 180:asm_arm.inc   **** #if (uECC_MIN_WORDS == 5)
 181:asm_arm.inc   ****         FAST_MULT_ASM_5
 182:asm_arm.inc   ****     #if (uECC_MAX_WORDS > 5)
 183:asm_arm.inc   ****         FAST_MULT_ASM_5_TO_6
 184:asm_arm.inc   ****     #endif
 185:asm_arm.inc   ****     #if (uECC_MAX_WORDS > 6)
 186:asm_arm.inc   ****         FAST_MULT_ASM_6_TO_7
 187:asm_arm.inc   ****     #endif
 188:asm_arm.inc   ****     #if (uECC_MAX_WORDS > 7)
 189:asm_arm.inc   ****         FAST_MULT_ASM_7_TO_8
 190:asm_arm.inc   ****     #endif
 191:asm_arm.inc   **** #elif (uECC_MIN_WORDS == 6)
 192:asm_arm.inc   ****         FAST_MULT_ASM_6
 193:asm_arm.inc   ****     #if (uECC_MAX_WORDS > 6)
 194:asm_arm.inc   ****         FAST_MULT_ASM_6_TO_7
 195:asm_arm.inc   ****     #endif
 196:asm_arm.inc   ****     #if (uECC_MAX_WORDS > 7)
 197:asm_arm.inc   ****         FAST_MULT_ASM_7_TO_8
 198:asm_arm.inc   ****     #endif
 199:asm_arm.inc   **** #elif (uECC_MIN_WORDS == 7)
 200:asm_arm.inc   ****         FAST_MULT_ASM_7
 201:asm_arm.inc   ****     #if (uECC_MAX_WORDS > 7)
 202:asm_arm.inc   ****         FAST_MULT_ASM_7_TO_8
 203:asm_arm.inc   ****     #endif
 204:asm_arm.inc   **** #elif (uECC_MIN_WORDS == 8)
 205:asm_arm.inc   ****         FAST_MULT_ASM_8
 206:asm_arm.inc   **** #endif
 207:asm_arm.inc   ****         "1: \n\t"
 208:asm_arm.inc   ****         RESUME_SYNTAX
 209:asm_arm.inc   ****         : "+r" (r0), "+r" (r1), "+r" (r2)
 210:asm_arm.inc   ****         : "r" (r3)
 211:asm_arm.inc   ****         : "r4", "r5", "r6", "r7", "r8", "r9", "r10", "r11", "r12", "r14", "cc", "memory"
 212:asm_arm.inc   ****     );
 213:asm_arm.inc   **** }
 214:asm_arm.inc   **** #define asm_mult 1
 215:asm_arm.inc   **** 
 216:asm_arm.inc   **** #if uECC_SQUARE_FUNC
 217:asm_arm.inc   **** uECC_VLI_API void uECC_vli_square(uECC_word_t *result,
ARM GAS  C:\Users\andrew\AppData\Local\Temp\ccN9Mpsj.s 			page 9


 218:asm_arm.inc   ****                                   const uECC_word_t *left,
 219:asm_arm.inc   ****                                   wordcount_t num_words) {
 220:asm_arm.inc   ****     register uint32_t *r0 __asm__("r0") = result;
 221:asm_arm.inc   ****     register const uint32_t *r1 __asm__("r1") = left;
 222:asm_arm.inc   ****     register uint32_t r2 __asm__("r2") = num_words;
 223:asm_arm.inc   ****     
 224:asm_arm.inc   ****     __asm__ volatile (
 225:asm_arm.inc   ****         ".syntax unified \n\t"
 226:asm_arm.inc   **** #if (uECC_MIN_WORDS == 5)
 227:asm_arm.inc   ****         FAST_SQUARE_ASM_5
 228:asm_arm.inc   ****     #if (uECC_MAX_WORDS > 5)
 229:asm_arm.inc   ****         FAST_SQUARE_ASM_5_TO_6
 230:asm_arm.inc   ****     #endif
 231:asm_arm.inc   ****     #if (uECC_MAX_WORDS > 6)
 232:asm_arm.inc   ****         FAST_SQUARE_ASM_6_TO_7
 233:asm_arm.inc   ****     #endif
 234:asm_arm.inc   ****     #if (uECC_MAX_WORDS > 7)
 235:asm_arm.inc   ****         FAST_SQUARE_ASM_7_TO_8
 236:asm_arm.inc   ****     #endif
 237:asm_arm.inc   **** #elif (uECC_MIN_WORDS == 6)
 238:asm_arm.inc   ****         FAST_SQUARE_ASM_6
 239:asm_arm.inc   ****     #if (uECC_MAX_WORDS > 6)
 240:asm_arm.inc   ****         FAST_SQUARE_ASM_6_TO_7
 241:asm_arm.inc   ****     #endif
 242:asm_arm.inc   ****     #if (uECC_MAX_WORDS > 7)
 243:asm_arm.inc   ****         FAST_SQUARE_ASM_7_TO_8
 244:asm_arm.inc   ****     #endif
 245:asm_arm.inc   **** #elif (uECC_MIN_WORDS == 7)
 246:asm_arm.inc   ****         FAST_SQUARE_ASM_7
 247:asm_arm.inc   ****     #if (uECC_MAX_WORDS > 7)
 248:asm_arm.inc   ****         FAST_SQUARE_ASM_7_TO_8
 249:asm_arm.inc   ****     #endif
 250:asm_arm.inc   **** #elif (uECC_MIN_WORDS == 8)
 251:asm_arm.inc   ****         FAST_SQUARE_ASM_8
 252:asm_arm.inc   **** #endif
 253:asm_arm.inc   **** 
 254:asm_arm.inc   ****         "1: \n\t"
 255:asm_arm.inc   ****         RESUME_SYNTAX
 256:asm_arm.inc   ****         : "+r" (r0), "+r" (r1)
 257:asm_arm.inc   ****         : "r" (r2)
 258:asm_arm.inc   ****         : "r3", "r4", "r5", "r6", "r7", "r8", "r9", "r10", "r11", "r12", "r14", "cc", "memory"
 259:asm_arm.inc   ****     );
 260:asm_arm.inc   **** }
 261:asm_arm.inc   **** #define asm_square 1
 262:asm_arm.inc   **** #endif /* uECC_SQUARE_FUNC */
 263:asm_arm.inc   **** 
 264:asm_arm.inc   **** #else /* (uECC_OPTIMIZATION_LEVEL > 3) */
 265:asm_arm.inc   **** 
 266:asm_arm.inc   **** uECC_VLI_API void uECC_vli_mult(uint32_t *result,
 267:asm_arm.inc   ****                                 const uint32_t *left,
 268:asm_arm.inc   ****                                 const uint32_t *right,
 269:asm_arm.inc   ****                                 wordcount_t num_words) {
 270:asm_arm.inc   ****     register uint32_t *r0 __asm__("r0") = result;
 271:asm_arm.inc   ****     register const uint32_t *r1 __asm__("r1") = left;
 272:asm_arm.inc   ****     register const uint32_t *r2 __asm__("r2") = right;
 273:asm_arm.inc   ****     register uint32_t r3 __asm__("r3") = num_words;
 274:asm_arm.inc   ****     
ARM GAS  C:\Users\andrew\AppData\Local\Temp\ccN9Mpsj.s 			page 10


 275:asm_arm.inc   **** #if uECC_SUPPORTS_secp160r1
 276:asm_arm.inc   ****     if (num_words == 5) {
 277:asm_arm.inc   ****         __asm__ volatile (
 278:asm_arm.inc   ****             ".syntax unified \n\t"
 279:asm_arm.inc   ****             FAST_MULT_ASM_5
 280:asm_arm.inc   ****             RESUME_SYNTAX
 281:asm_arm.inc   ****             : "+r" (r0), "+r" (r1), "+r" (r2)
 282:asm_arm.inc   ****             : "r" (r3)
 283:asm_arm.inc   ****             : "r4", "r5", "r6", "r7", "r8", "r9", "r10", "r11", "r12", "r14", "cc", "memory"
 284:asm_arm.inc   ****         );
 285:asm_arm.inc   ****         return;
 286:asm_arm.inc   ****     }
 287:asm_arm.inc   **** #endif
 288:asm_arm.inc   **** #if uECC_SUPPORTS_secp192r1
 289:asm_arm.inc   ****     if (num_words == 6) {
 290:asm_arm.inc   ****         __asm__ volatile (
 291:asm_arm.inc   ****             ".syntax unified \n\t"
 292:asm_arm.inc   ****             FAST_MULT_ASM_6
 293:asm_arm.inc   ****             RESUME_SYNTAX
 294:asm_arm.inc   ****             : "+r" (r0), "+r" (r1), "+r" (r2)
 295:asm_arm.inc   ****             : "r" (r3)
 296:asm_arm.inc   ****             : "r4", "r5", "r6", "r7", "r8", "r9", "r10", "r11", "r12", "r14", "cc", "memory"
 297:asm_arm.inc   ****         );
 298:asm_arm.inc   ****         return;
 299:asm_arm.inc   ****     }
 300:asm_arm.inc   **** #endif
 301:asm_arm.inc   **** #if uECC_SUPPORTS_secp224r1
 302:asm_arm.inc   ****     if (num_words == 7) {
 303:asm_arm.inc   ****         __asm__ volatile (
 304:asm_arm.inc   ****             ".syntax unified \n\t"
 305:asm_arm.inc   ****             FAST_MULT_ASM_7
 306:asm_arm.inc   ****             RESUME_SYNTAX
 307:asm_arm.inc   ****             : "+r" (r0), "+r" (r1), "+r" (r2)
 308:asm_arm.inc   ****             : "r" (r3)
 309:asm_arm.inc   ****             : "r4", "r5", "r6", "r7", "r8", "r9", "r10", "r11", "r12", "r14", "cc", "memory"
 310:asm_arm.inc   ****         );
 311:asm_arm.inc   ****         return;
 312:asm_arm.inc   ****     }
 313:asm_arm.inc   **** #endif
 314:asm_arm.inc   **** #if (uECC_SUPPORTS_secp256r1 || uECC_SUPPORTS_secp256k1)
 315:asm_arm.inc   ****     if (num_words == 8) {
 316:asm_arm.inc   ****         __asm__ volatile (
 317:asm_arm.inc   ****             ".syntax unified \n\t"
 318:asm_arm.inc   ****             FAST_MULT_ASM_8
 319:asm_arm.inc   ****             RESUME_SYNTAX
 320:asm_arm.inc   ****             : "+r" (r0), "+r" (r1), "+r" (r2)
 321:asm_arm.inc   ****             : "r" (r3)
 322:asm_arm.inc   ****             : "r4", "r5", "r6", "r7", "r8", "r9", "r10", "r11", "r12", "r14", "cc", "memory"
 323:asm_arm.inc   ****         );
 324:asm_arm.inc   ****         return;
 325:asm_arm.inc   ****     }
 326:asm_arm.inc   **** #endif
 327:asm_arm.inc   **** }
 328:asm_arm.inc   **** #define asm_mult 1
 329:asm_arm.inc   **** 
 330:asm_arm.inc   **** #if uECC_SQUARE_FUNC
 331:asm_arm.inc   **** uECC_VLI_API void uECC_vli_square(uECC_word_t *result,
ARM GAS  C:\Users\andrew\AppData\Local\Temp\ccN9Mpsj.s 			page 11


 332:asm_arm.inc   ****                                   const uECC_word_t *left,
 333:asm_arm.inc   ****                                   wordcount_t num_words) {
 334:asm_arm.inc   ****     register uint32_t *r0 __asm__("r0") = result;
 335:asm_arm.inc   ****     register const uint32_t *r1 __asm__("r1") = left;
 336:asm_arm.inc   ****     register uint32_t r2 __asm__("r2") = num_words;
 337:asm_arm.inc   ****     
 338:asm_arm.inc   **** #if uECC_SUPPORTS_secp160r1
 339:asm_arm.inc   ****     if (num_words == 5) {
 340:asm_arm.inc   ****         __asm__ volatile (
 341:asm_arm.inc   ****             ".syntax unified \n\t"
 342:asm_arm.inc   ****             FAST_SQUARE_ASM_5
 343:asm_arm.inc   ****             RESUME_SYNTAX
 344:asm_arm.inc   ****             : "+r" (r0), "+r" (r1)
 345:asm_arm.inc   ****             : "r" (r2)
 346:asm_arm.inc   ****             : "r3", "r4", "r5", "r6", "r7", "r8", "r9", "r10", "r11", "r12", "r14", "cc", "memory"
 347:asm_arm.inc   ****         );
 348:asm_arm.inc   ****         return;
 349:asm_arm.inc   ****     }
 350:asm_arm.inc   **** #endif
 351:asm_arm.inc   **** #if uECC_SUPPORTS_secp192r1
 352:asm_arm.inc   ****     if (num_words == 6) {
 353:asm_arm.inc   ****         __asm__ volatile (
 354:asm_arm.inc   ****             ".syntax unified \n\t"
 355:asm_arm.inc   ****             FAST_SQUARE_ASM_6
 356:asm_arm.inc   ****             RESUME_SYNTAX
 357:asm_arm.inc   ****             : "+r" (r0), "+r" (r1)
 358:asm_arm.inc   ****             : "r" (r2)
 359:asm_arm.inc   ****             : "r3", "r4", "r5", "r6", "r7", "r8", "r9", "r10", "r11", "r12", "r14", "cc", "memory"
 360:asm_arm.inc   ****         );
 361:asm_arm.inc   ****         return;
 362:asm_arm.inc   ****     }
 363:asm_arm.inc   **** #endif
 364:asm_arm.inc   **** #if uECC_SUPPORTS_secp224r1
 365:asm_arm.inc   ****     if (num_words == 7) {
 366:asm_arm.inc   ****         __asm__ volatile (
 367:asm_arm.inc   ****             ".syntax unified \n\t"
 368:asm_arm.inc   ****             FAST_SQUARE_ASM_7
 369:asm_arm.inc   ****             RESUME_SYNTAX
 370:asm_arm.inc   ****             : "+r" (r0), "+r" (r1)
 371:asm_arm.inc   ****             : "r" (r2)
 372:asm_arm.inc   ****             : "r3", "r4", "r5", "r6", "r7", "r8", "r9", "r10", "r11", "r12", "r14", "cc", "memory"
 373:asm_arm.inc   ****         );
 374:asm_arm.inc   ****         return;
 375:asm_arm.inc   ****     }
 376:asm_arm.inc   **** #endif
 377:asm_arm.inc   **** #if (uECC_SUPPORTS_secp256r1 || uECC_SUPPORTS_secp256k1)
 378:asm_arm.inc   ****     if (num_words == 8) {
 379:asm_arm.inc   ****         __asm__ volatile (
 380:asm_arm.inc   ****             ".syntax unified \n\t"
 381:asm_arm.inc   ****             FAST_SQUARE_ASM_8
 382:asm_arm.inc   ****             RESUME_SYNTAX
 383:asm_arm.inc   ****             : "+r" (r0), "+r" (r1)
 384:asm_arm.inc   ****             : "r" (r2)
 385:asm_arm.inc   ****             : "r3", "r4", "r5", "r6", "r7", "r8", "r9", "r10", "r11", "r12", "r14", "cc", "memory"
 386:asm_arm.inc   ****         );
 387:asm_arm.inc   ****         return;
 388:asm_arm.inc   ****     }
ARM GAS  C:\Users\andrew\AppData\Local\Temp\ccN9Mpsj.s 			page 12


 389:asm_arm.inc   **** #endif
 390:asm_arm.inc   **** }
 391:asm_arm.inc   **** #define asm_square 1
 392:asm_arm.inc   **** #endif /* uECC_SQUARE_FUNC */
 393:asm_arm.inc   **** 
 394:asm_arm.inc   **** #endif /* (uECC_OPTIMIZATION_LEVEL > 3) */
 395:asm_arm.inc   **** 
 396:asm_arm.inc   **** #endif /* uECC_PLATFORM != uECC_arm_thumb */
 397:asm_arm.inc   **** 
 398:asm_arm.inc   **** #endif /* (uECC_OPTIMIZATION_LEVEL >= 3) */
 399:asm_arm.inc   **** 
 400:asm_arm.inc   **** /* ---- "Small" implementations ---- */
 401:asm_arm.inc   **** 
 402:asm_arm.inc   **** #if !asm_add
 403:asm_arm.inc   **** uECC_VLI_API uECC_word_t uECC_vli_add(uECC_word_t *result,
 404:asm_arm.inc   ****                                       const uECC_word_t *left,
 405:asm_arm.inc   ****                                       const uECC_word_t *right,
 406:asm_arm.inc   ****                                       wordcount_t num_words) {
 407:asm_arm.inc   ****     uint32_t carry = 0;
 408:asm_arm.inc   ****     uint32_t left_word;
 409:asm_arm.inc   ****     uint32_t right_word;
 410:asm_arm.inc   ****     
 411:asm_arm.inc   ****     __asm__ volatile (
 412:asm_arm.inc   ****         ".syntax unified \n\t"
 413:asm_arm.inc   ****         "1: \n\t"
 414:asm_arm.inc   ****         "ldmia %[lptr]!, {%[left]} \n\t"  /* Load left word. */
 415:asm_arm.inc   ****         "ldmia %[rptr]!, {%[right]} \n\t" /* Load right word. */
 416:asm_arm.inc   ****         "lsrs %[carry], #1 \n\t"          /* Set up carry flag (carry = 0 after this). */
 417:asm_arm.inc   ****         "adcs %[left], %[left], %[right] \n\t"   /* Add with carry. */
 418:asm_arm.inc   ****         "adcs %[carry], %[carry], %[carry] \n\t" /* Store carry bit. */
 419:asm_arm.inc   ****         "stmia %[dptr]!, {%[left]} \n\t"  /* Store result word. */
 420:asm_arm.inc   ****         "subs %[ctr], #1 \n\t"            /* Decrement counter. */
 421:asm_arm.inc   ****         "bne 1b \n\t"                     /* Loop until counter == 0. */
 422:asm_arm.inc   ****         RESUME_SYNTAX
 423:asm_arm.inc   ****         : [dptr] REG_RW (result), [lptr] REG_RW (left), [rptr] REG_RW (right),
 424:asm_arm.inc   ****           [ctr] REG_RW (num_words), [carry] REG_RW (carry),
 425:asm_arm.inc   ****           [left] REG_WRITE (left_word), [right] REG_WRITE (right_word)
 426:asm_arm.inc   ****         :
 427:asm_arm.inc   ****         : "cc", "memory"
 428:asm_arm.inc   ****     );
 429:asm_arm.inc   ****     return carry;
 430:asm_arm.inc   **** }
 431:asm_arm.inc   **** #define asm_add 1
 432:asm_arm.inc   **** #endif
 433:asm_arm.inc   **** 
 434:asm_arm.inc   **** #if !asm_sub
 435:asm_arm.inc   **** uECC_VLI_API uECC_word_t uECC_vli_sub(uECC_word_t *result,
 436:asm_arm.inc   ****                                       const uECC_word_t *left,
 437:asm_arm.inc   ****                                       const uECC_word_t *right,
 438:asm_arm.inc   ****                                       wordcount_t num_words) {
 439:asm_arm.inc   ****     uint32_t carry = 1; /* carry = 1 initially (means don't borrow) */
 440:asm_arm.inc   ****     uint32_t left_word;
 441:asm_arm.inc   ****     uint32_t right_word;
 442:asm_arm.inc   ****     
 443:asm_arm.inc   ****     __asm__ volatile (
 444:asm_arm.inc   ****         ".syntax unified \n\t"
 445:asm_arm.inc   ****         "1: \n\t"
ARM GAS  C:\Users\andrew\AppData\Local\Temp\ccN9Mpsj.s 			page 13


 446:asm_arm.inc   ****         "ldmia %[lptr]!, {%[left]} \n\t"  /* Load left word. */
 447:asm_arm.inc   ****         "ldmia %[rptr]!, {%[right]} \n\t" /* Load right word. */
 448:asm_arm.inc   ****         "lsrs %[carry], #1 \n\t"          /* Set up carry flag (carry = 0 after this). */
 449:asm_arm.inc   ****         "sbcs %[left], %[left], %[right] \n\t"   /* Subtract with borrow. */
 450:asm_arm.inc   ****         "adcs %[carry], %[carry], %[carry] \n\t" /* Store carry bit. */
 451:asm_arm.inc   ****         "stmia %[dptr]!, {%[left]} \n\t"  /* Store result word. */
 452:asm_arm.inc   ****         "subs %[ctr], #1 \n\t"            /* Decrement counter. */
 453:asm_arm.inc   ****         "bne 1b \n\t"                     /* Loop until counter == 0. */
 454:asm_arm.inc   ****         RESUME_SYNTAX
 455:asm_arm.inc   ****         : [dptr] REG_RW (result), [lptr] REG_RW (left), [rptr] REG_RW (right),
 456:asm_arm.inc   ****           [ctr] REG_RW (num_words), [carry] REG_RW (carry),
 457:asm_arm.inc   ****           [left] REG_WRITE (left_word), [right] REG_WRITE (right_word)
 458:asm_arm.inc   ****         :
 459:asm_arm.inc   ****         : "cc", "memory"
 460:asm_arm.inc   ****     );
 461:asm_arm.inc   ****     return !carry;
 462:asm_arm.inc   **** }
 463:asm_arm.inc   **** #define asm_sub 1
 464:asm_arm.inc   **** #endif
 465:asm_arm.inc   **** 
 466:asm_arm.inc   **** #if !asm_mult
 467:asm_arm.inc   **** uECC_VLI_API void uECC_vli_mult(uECC_word_t *result,
 468:asm_arm.inc   ****                                 const uECC_word_t *left,
 469:asm_arm.inc   ****                                 const uECC_word_t *right,
 470:asm_arm.inc   ****                                 wordcount_t num_words) {
 240              		.loc 1 470 0
 241              		.cfi_startproc
 242              		@ args = 0, pretend = 0, frame = 32
 243              		@ frame_needed = 0, uses_anonymous_args = 0
 244 0000 F0B5     		push	{r4, r5, r6, r7, lr}
 245              		.cfi_def_cfa_offset 20
 246              		.cfi_offset 4, -20
 247              		.cfi_offset 5, -16
 248              		.cfi_offset 6, -12
 249              		.cfi_offset 7, -8
 250              		.cfi_offset 14, -4
 251 0002 5F46     		mov	r7, fp
 252 0004 5646     		mov	r6, r10
 253 0006 4D46     		mov	r5, r9
 254 0008 4446     		mov	r4, r8
 255 000a F0B4     		push	{r4, r5, r6, r7}
 256              		.cfi_def_cfa_offset 36
 257              		.cfi_offset 8, -36
 258              		.cfi_offset 9, -32
 259              		.cfi_offset 10, -28
 260              		.cfi_offset 11, -24
 261 000c 89B0     		sub	sp, sp, #36
 262              		.cfi_def_cfa_offset 72
 263 000e 0390     		str	r0, [sp, #12]
 264 0010 0291     		str	r1, [sp, #8]
 265 0012 0192     		str	r2, [sp, #4]
 266 0014 1A00     		movs	r2, r3
 267 0016 6B46     		mov	r3, sp
 268 0018 0333     		adds	r3, r3, #3
 269 001a 1A70     		strb	r2, [r3]
 471:asm_arm.inc   **** #if (uECC_PLATFORM != uECC_arm_thumb)
 472:asm_arm.inc   ****     uint32_t c0 = 0;
ARM GAS  C:\Users\andrew\AppData\Local\Temp\ccN9Mpsj.s 			page 14


 473:asm_arm.inc   ****     uint32_t c1 = 0;
 474:asm_arm.inc   ****     uint32_t c2 = 0;
 475:asm_arm.inc   ****     uint32_t k = 0;
 476:asm_arm.inc   ****     uint32_t i;
 477:asm_arm.inc   ****     uint32_t t0, t1;
 478:asm_arm.inc   ****     
 479:asm_arm.inc   ****     __asm__ volatile (
 480:asm_arm.inc   ****         ".syntax unified \n\t"
 481:asm_arm.inc   ****         
 482:asm_arm.inc   ****         "1: \n\t" /* outer loop (k < num_words) */
 483:asm_arm.inc   ****         "movs %[i], #0 \n\t" /* i = 0 */
 484:asm_arm.inc   ****         "b 3f \n\t"
 485:asm_arm.inc   ****         
 486:asm_arm.inc   ****         "2: \n\t" /* outer loop (k >= num_words) */
 487:asm_arm.inc   ****         "movs %[i], %[k] \n\t"         /* i = k */
 488:asm_arm.inc   ****         "subs %[i], %[last_word] \n\t" /* i = k - (num_words - 1) (times 4) */
 489:asm_arm.inc   ****         
 490:asm_arm.inc   ****         "3: \n\t" /* inner loop */
 491:asm_arm.inc   ****         "subs %[t0], %[k], %[i] \n\t" /* t0 = k-i */
 492:asm_arm.inc   ****         
 493:asm_arm.inc   ****         "ldr %[t1], [%[right], %[t0]] \n\t" /* t1 = right[k - i] */
 494:asm_arm.inc   ****         "ldr %[t0], [%[left], %[i]] \n\t"   /* t0 = left[i] */
 495:asm_arm.inc   ****         
 496:asm_arm.inc   ****         "umull %[t0], %[t1], %[t0], %[t1] \n\t" /* (t0, t1) = left[i] * right[k - i] */
 497:asm_arm.inc   ****         
 498:asm_arm.inc   ****         "adds %[c0], %[c0], %[t0] \n\t" /* add low word to c0 */
 499:asm_arm.inc   ****         "adcs %[c1], %[c1], %[t1] \n\t" /* add high word to c1, including carry */
 500:asm_arm.inc   ****         "adcs %[c2], %[c2], #0 \n\t"    /* add carry to c2 */
 501:asm_arm.inc   **** 
 502:asm_arm.inc   ****         "adds %[i], #4 \n\t"          /* i += 4 */
 503:asm_arm.inc   ****         "cmp %[i], %[last_word] \n\t" /* i > (num_words - 1) (times 4)? */
 504:asm_arm.inc   ****         "bgt 4f \n\t"                 /*   if so, exit the loop */
 505:asm_arm.inc   ****         "cmp %[i], %[k] \n\t"         /* i <= k? */
 506:asm_arm.inc   ****         "ble 3b \n\t"                 /*   if so, continue looping */
 507:asm_arm.inc   ****         
 508:asm_arm.inc   ****         "4: \n\t" /* end inner loop */
 509:asm_arm.inc   ****         
 510:asm_arm.inc   ****         "str %[c0], [%[result], %[k]] \n\t" /* result[k] = c0 */
 511:asm_arm.inc   ****         "mov %[c0], %[c1] \n\t"       /* c0 = c1 */
 512:asm_arm.inc   ****         "mov %[c1], %[c2] \n\t"       /* c1 = c2 */
 513:asm_arm.inc   ****         "movs %[c2], #0 \n\t"         /* c2 = 0 */
 514:asm_arm.inc   ****         "adds %[k], #4 \n\t"          /* k += 4 */
 515:asm_arm.inc   ****         "cmp %[k], %[last_word] \n\t" /* k <= (num_words - 1) (times 4) ? */
 516:asm_arm.inc   ****         "ble 1b \n\t"                 /*   if so, loop back, start with i = 0 */
 517:asm_arm.inc   ****         "cmp %[k], %[last_word], lsl #1 \n\t" /* k <= (num_words * 2 - 2) (times 4) ? */
 518:asm_arm.inc   ****         "ble 2b \n\t"                 /*   if so, loop back, start with i = (k + 1) - num_words */
 519:asm_arm.inc   ****         /* end outer loop */
 520:asm_arm.inc   ****         
 521:asm_arm.inc   ****         "str %[c0], [%[result], %[k]] \n\t" /* result[num_words * 2 - 1] = c0 */
 522:asm_arm.inc   ****         RESUME_SYNTAX
 523:asm_arm.inc   ****         : [c0] "+r" (c0), [c1] "+r" (c1), [c2] "+r" (c2),
 524:asm_arm.inc   ****           [k] "+r" (k), [i] "=&r" (i), [t0] "=&r" (t0), [t1] "=&r" (t1)
 525:asm_arm.inc   ****         : [result] "r" (result), [left] "r" (left), [right] "r" (right),
 526:asm_arm.inc   ****           [last_word] "r" ((num_words - 1) * 4)
 527:asm_arm.inc   ****         : "cc", "memory"
 528:asm_arm.inc   ****     );
 529:asm_arm.inc   ****     
ARM GAS  C:\Users\andrew\AppData\Local\Temp\ccN9Mpsj.s 			page 15


 530:asm_arm.inc   **** #else /* Thumb-1 */
 531:asm_arm.inc   ****     uint32_t r4, r5, r6, r7;
 532:asm_arm.inc   **** 
 533:asm_arm.inc   ****     __asm__ volatile (
 270              		.loc 1 533 0
 271 001c 039A     		ldr	r2, [sp, #12]
 272 001e 0299     		ldr	r1, [sp, #8]
 273 0020 0198     		ldr	r0, [sp, #4]
 274 0022 6B46     		mov	r3, sp
 275 0024 0333     		adds	r3, r3, #3
 276 0026 1B78     		ldrb	r3, [r3]
 277              		.syntax divided
 278              	@ 533 "asm_arm.inc" 1
 279              		.syntax unified 
 280 0028 013B     		subs r3, #1 
 281 002a 9B00     		lsls r3, #2 
 282 002c 9846     		mov r8, r3 
 283 002e 5B00     		lsls r3, #1 
 284 0030 9946     		mov r9, r3 
 285 0032 0023     		movs r3, #0 
 286 0034 0027     		movs r7, #0 
 287 0036 0026     		movs r6, #0 
 288 0038 0025     		movs r5, #0 
 289 003a 04B4     		push {r2} 
 290              		1: 
 291 003c 0024     		movs r4, #0 
 292 003e 02E0     		b 3f 
 293              		2: 
 294 0040 2C00     		movs r4, r5 
 295 0042 4246     		mov r2, r8 
 296 0044 A41A     		subs r4, r2 
 297              		3: 
 298 0046 9A46     		mov r10, r3 
 299 0048 BB46     		mov r11, r7 
 300 004a B446     		mov r12, r6 
 301 004c AE46     		mov r14, r5 
 302 004e 2A1B     		subs r2, r5, r4 
 303 0050 8758     		ldr r7, [r0, r2] 
 304 0052 0A59     		ldr r2, [r1, r4] 
 305 0054 130C     		lsrs r3, r2, #16 
 306 0056 92B2     		uxth r2, r2 
 307 0058 3E0C     		lsrs r6, r7, #16 
 308 005a BFB2     		uxth r7, r7 
 309 005c 1D00     		movs r5, r3 
 310 005e 7543     		muls r5, r6, r5 
 311 0060 7B43     		muls r3, r7, r3 
 312 0062 5643     		muls r6, r2, r6 
 313 0064 7A43     		muls r2, r7, r2 
 314 0066 1F04     		lsls r7, r3, #16 
 315 0068 1B0C     		lsrs r3, r3, #16 
 316 006a D219     		adds r2, r7 
 317 006c 5D41     		adcs r5, r3 
 318 006e 3704     		lsls r7, r6, #16 
 319 0070 360C     		lsrs r6, r6, #16 
 320 0072 D219     		adds r2, r7 
 321 0074 7541     		adcs r5, r6 
 322 0076 5346     		mov r3, r10
ARM GAS  C:\Users\andrew\AppData\Local\Temp\ccN9Mpsj.s 			page 16


 323 0078 5F46     		mov r7, r11
 324 007a 6646     		mov r6, r12
 325 007c 9B18     		adds r3, r2 
 326 007e 6F41     		adcs r7, r5 
 327 0080 0022     		movs r2, #0 
 328 0082 5641     		adcs r6, r2 
 329 0084 7546     		mov r5, r14
 330 0086 0434     		adds r4, #4 
 331 0088 4445     		cmp r4, r8 
 332 008a 01DC     		bgt 4f 
 333 008c AC42     		cmp r4, r5 
 334 008e DADD     		ble 3b 
 335              		4: 
 336 0090 009A     		ldr r2, [sp, #0] 
 337 0092 5351     		str r3, [r2, r5] 
 338 0094 3B46     		mov r3, r7 
 339 0096 3746     		mov r7, r6 
 340 0098 0026     		movs r6, #0 
 341 009a 0435     		adds r5, #4 
 342 009c 4545     		cmp r5, r8 
 343 009e CDDD     		ble 1b 
 344 00a0 4D45     		cmp r5, r9 
 345 00a2 CDDD     		ble 2b 
 346 00a4 5351     		str r3, [r2, r5] 
 347 00a6 04BC     		pop {r2} 
 348              		.syntax divided 
 349              		
 350              	@ 0 "" 2
 351              		.thumb
 352              		.syntax unified
 353 00a8 6A46     		mov	r2, sp
 354 00aa 0332     		adds	r2, r2, #3
 355 00ac 1370     		strb	r3, [r2]
 356 00ae 0797     		str	r7, [sp, #28]
 357 00b0 0696     		str	r6, [sp, #24]
 358 00b2 0595     		str	r5, [sp, #20]
 359 00b4 0494     		str	r4, [sp, #16]
 534:asm_arm.inc   ****         ".syntax unified \n\t"
 535:asm_arm.inc   ****         "subs %[r3], #1 \n\t" /* r3 = num_words - 1 */
 536:asm_arm.inc   ****         "lsls %[r3], #2 \n\t" /* r3 = (num_words - 1) * 4 */
 537:asm_arm.inc   ****         "mov r8, %[r3] \n\t"  /* r8 = (num_words - 1) * 4 */
 538:asm_arm.inc   ****         "lsls %[r3], #1 \n\t" /* r3 = (num_words - 1) * 8 */
 539:asm_arm.inc   ****         "mov r9, %[r3] \n\t"  /* r9 = (num_words - 1) * 8 */
 540:asm_arm.inc   ****         "movs %[r3], #0 \n\t" /* c0 = 0 */
 541:asm_arm.inc   ****         "movs %[r4], #0 \n\t" /* c1 = 0 */
 542:asm_arm.inc   ****         "movs %[r5], #0 \n\t" /* c2 = 0 */
 543:asm_arm.inc   ****         "movs %[r6], #0 \n\t" /* k = 0 */
 544:asm_arm.inc   ****         
 545:asm_arm.inc   ****         "push {%[r0]} \n\t" /* keep result on the stack */
 546:asm_arm.inc   ****         
 547:asm_arm.inc   ****         "1: \n\t" /* outer loop (k < num_words) */
 548:asm_arm.inc   ****         "movs %[r7], #0 \n\t" /* r7 = i = 0 */
 549:asm_arm.inc   ****         "b 3f \n\t"
 550:asm_arm.inc   ****         
 551:asm_arm.inc   ****         "2: \n\t" /* outer loop (k >= num_words) */
 552:asm_arm.inc   ****         "movs %[r7], %[r6] \n\t" /* r7 = k */
 553:asm_arm.inc   ****         "mov %[r0], r8 \n\t"     /* r0 = (num_words - 1) * 4 */
ARM GAS  C:\Users\andrew\AppData\Local\Temp\ccN9Mpsj.s 			page 17


 554:asm_arm.inc   ****         "subs %[r7], %[r0] \n\t" /* r7 = i = k - (num_words - 1) (times 4) */
 555:asm_arm.inc   ****         
 556:asm_arm.inc   ****         "3: \n\t" /* inner loop */
 557:asm_arm.inc   ****         "mov r10, %[r3] \n\t"
 558:asm_arm.inc   ****         "mov r11, %[r4] \n\t"
 559:asm_arm.inc   ****         "mov r12, %[r5] \n\t"
 560:asm_arm.inc   ****         "mov r14, %[r6] \n\t"
 561:asm_arm.inc   ****         "subs %[r0], %[r6], %[r7] \n\t"          /* r0 = k - i */
 562:asm_arm.inc   ****         
 563:asm_arm.inc   ****         "ldr %[r4], [%[r2], %[r0]] \n\t" /* r4 = right[k - i] */
 564:asm_arm.inc   ****         "ldr %[r0], [%[r1], %[r7]] \n\t" /* r0 = left[i] */
 565:asm_arm.inc   ****         
 566:asm_arm.inc   ****         "lsrs %[r3], %[r0], #16 \n\t" /* r3 = a1 */
 567:asm_arm.inc   ****         "uxth %[r0], %[r0] \n\t"      /* r0 = a0 */
 568:asm_arm.inc   ****         
 569:asm_arm.inc   ****         "lsrs %[r5], %[r4], #16 \n\t" /* r5 = b1 */
 570:asm_arm.inc   ****         "uxth %[r4], %[r4] \n\t"      /* r4 = b0 */
 571:asm_arm.inc   ****         
 572:asm_arm.inc   ****         "movs %[r6], %[r3] \n\t"        /* r6 = a1 */
 573:asm_arm.inc   ****         "muls %[r6], %[r5], %[r6] \n\t" /* r6 = a1 * b1 */
 574:asm_arm.inc   ****         "muls %[r3], %[r4], %[r3] \n\t" /* r3 = b0 * a1 */
 575:asm_arm.inc   ****         "muls %[r5], %[r0], %[r5] \n\t" /* r5 = a0 * b1 */
 576:asm_arm.inc   ****         "muls %[r0], %[r4], %[r0] \n\t" /* r0 = a0 * b0 */
 577:asm_arm.inc   ****         
 578:asm_arm.inc   ****         /* Add middle terms */
 579:asm_arm.inc   ****         "lsls %[r4], %[r3], #16 \n\t"
 580:asm_arm.inc   ****         "lsrs %[r3], %[r3], #16 \n\t"
 581:asm_arm.inc   ****         "adds %[r0], %[r4] \n\t"
 582:asm_arm.inc   ****         "adcs %[r6], %[r3] \n\t"
 583:asm_arm.inc   ****         
 584:asm_arm.inc   ****         "lsls %[r4], %[r5], #16 \n\t"
 585:asm_arm.inc   ****         "lsrs %[r5], %[r5], #16 \n\t"
 586:asm_arm.inc   ****         "adds %[r0], %[r4] \n\t"
 587:asm_arm.inc   ****         "adcs %[r6], %[r5] \n\t"
 588:asm_arm.inc   ****         
 589:asm_arm.inc   ****         "mov %[r3], r10\n\t"
 590:asm_arm.inc   ****         "mov %[r4], r11\n\t"
 591:asm_arm.inc   ****         "mov %[r5], r12\n\t"
 592:asm_arm.inc   ****         "adds %[r3], %[r0] \n\t"         /* add low word to c0 */
 593:asm_arm.inc   ****         "adcs %[r4], %[r6] \n\t"         /* add high word to c1, including carry */
 594:asm_arm.inc   ****         "movs %[r0], #0 \n\t"            /* r0 = 0 (does not affect carry bit) */
 595:asm_arm.inc   ****         "adcs %[r5], %[r0] \n\t"         /* add carry to c2 */
 596:asm_arm.inc   ****         
 597:asm_arm.inc   ****         "mov %[r6], r14\n\t" /* r6 = k */
 598:asm_arm.inc   **** 
 599:asm_arm.inc   ****         "adds %[r7], #4 \n\t"   /* i += 4 */
 600:asm_arm.inc   ****         "cmp %[r7], r8 \n\t"    /* i > (num_words - 1) (times 4)? */
 601:asm_arm.inc   ****         "bgt 4f \n\t"           /*   if so, exit the loop */
 602:asm_arm.inc   ****         "cmp %[r7], %[r6] \n\t" /* i <= k? */
 603:asm_arm.inc   ****         "ble 3b \n\t"           /*   if so, continue looping */
 604:asm_arm.inc   ****         
 605:asm_arm.inc   ****         "4: \n\t" /* end inner loop */
 606:asm_arm.inc   ****         
 607:asm_arm.inc   ****         "ldr %[r0], [sp, #0] \n\t" /* r0 = result */
 608:asm_arm.inc   ****         
 609:asm_arm.inc   ****         "str %[r3], [%[r0], %[r6]] \n\t" /* result[k] = c0 */
 610:asm_arm.inc   ****         "mov %[r3], %[r4] \n\t"          /* c0 = c1 */
ARM GAS  C:\Users\andrew\AppData\Local\Temp\ccN9Mpsj.s 			page 18


 611:asm_arm.inc   ****         "mov %[r4], %[r5] \n\t"          /* c1 = c2 */
 612:asm_arm.inc   ****         "movs %[r5], #0 \n\t"            /* c2 = 0 */
 613:asm_arm.inc   ****         "adds %[r6], #4 \n\t"            /* k += 4 */
 614:asm_arm.inc   ****         "cmp %[r6], r8 \n\t"             /* k <= (num_words - 1) (times 4) ? */
 615:asm_arm.inc   ****         "ble 1b \n\t"                    /*   if so, loop back, start with i = 0 */
 616:asm_arm.inc   ****         "cmp %[r6], r9 \n\t"             /* k <= (num_words * 2 - 2) (times 4) ? */
 617:asm_arm.inc   ****         "ble 2b \n\t"                    /*   if so, loop back, with i = (k + 1) - num_words */
 618:asm_arm.inc   ****         /* end outer loop */
 619:asm_arm.inc   ****         
 620:asm_arm.inc   ****         "str %[r3], [%[r0], %[r6]] \n\t" /* result[num_words * 2 - 1] = c0 */
 621:asm_arm.inc   ****         "pop {%[r0]} \n\t"               /* pop result off the stack */
 622:asm_arm.inc   ****         
 623:asm_arm.inc   ****         ".syntax divided \n\t"
 624:asm_arm.inc   ****         : [r3] "+l" (num_words), [r4] "=&l" (r4),
 625:asm_arm.inc   ****           [r5] "=&l" (r5), [r6] "=&l" (r6), [r7] "=&l" (r7)
 626:asm_arm.inc   ****         : [r0] "l" (result), [r1] "l" (left), [r2] "l" (right)
 627:asm_arm.inc   ****         : "r8", "r9", "r10", "r11", "r12", "r14", "cc", "memory"
 628:asm_arm.inc   ****     );
 629:asm_arm.inc   **** #endif
 630:asm_arm.inc   **** }
 360              		.loc 1 630 0
 361 00b6 C046     		nop
 362 00b8 09B0     		add	sp, sp, #36
 363              		@ sp needed
 364 00ba 3CBC     		pop	{r2, r3, r4, r5}
 365 00bc 9046     		mov	r8, r2
 366 00be 9946     		mov	r9, r3
 367 00c0 A246     		mov	r10, r4
 368 00c2 AB46     		mov	fp, r5
 369 00c4 F0BD     		pop	{r4, r5, r6, r7, pc}
 370              		.cfi_endproc
 371              	.LFE2:
 372              		.size	uECC_vli_mult, .-uECC_vli_mult
 373 00c6 C046     		.bss
 374              		.align	2
 375              	g_rng_function:
 376 0000 00000000 		.space	4
 377              		.section	.text.uECC_set_rng,"ax",%progbits
 378              		.align	2
 379              		.global	uECC_set_rng
 380              		.code	16
 381              		.thumb_func
 382              		.type	uECC_set_rng, %function
 383              	uECC_set_rng:
 384              	.LFB3:
 385              		.file 2 "uECC.c"
   1:uECC.c        **** /* Copyright 2014, Kenneth MacKay. Licensed under the BSD 2-clause license. */
   2:uECC.c        **** 
   3:uECC.c        **** #include "uECC.h"
   4:uECC.c        **** #include "uECC_vli.h"
   5:uECC.c        **** 
   6:uECC.c        **** extern void vli_print(uint8_t *vli, unsigned int size);
   7:uECC.c        **** 
   8:uECC.c        **** #ifndef uECC_RNG_MAX_TRIES
   9:uECC.c        ****     #define uECC_RNG_MAX_TRIES 64
  10:uECC.c        **** #endif
  11:uECC.c        **** 
ARM GAS  C:\Users\andrew\AppData\Local\Temp\ccN9Mpsj.s 			page 19


  12:uECC.c        **** #if uECC_ENABLE_VLI_API
  13:uECC.c        ****     #define uECC_VLI_API
  14:uECC.c        **** #else
  15:uECC.c        ****     #define uECC_VLI_API static
  16:uECC.c        **** #endif
  17:uECC.c        **** 
  18:uECC.c        **** #define CONCATX(a, ...) a ## __VA_ARGS__
  19:uECC.c        **** #define CONCAT(a, ...) CONCATX(a, __VA_ARGS__)
  20:uECC.c        **** 
  21:uECC.c        **** #define STRX(a) #a
  22:uECC.c        **** #define STR(a) STRX(a)
  23:uECC.c        **** 
  24:uECC.c        **** #define EVAL(...)  EVAL1(EVAL1(EVAL1(EVAL1(__VA_ARGS__))))
  25:uECC.c        **** #define EVAL1(...) EVAL2(EVAL2(EVAL2(EVAL2(__VA_ARGS__))))
  26:uECC.c        **** #define EVAL2(...) EVAL3(EVAL3(EVAL3(EVAL3(__VA_ARGS__))))
  27:uECC.c        **** #define EVAL3(...) EVAL4(EVAL4(EVAL4(EVAL4(__VA_ARGS__))))
  28:uECC.c        **** #define EVAL4(...) __VA_ARGS__
  29:uECC.c        **** 
  30:uECC.c        **** #define DEC_1  0
  31:uECC.c        **** #define DEC_2  1
  32:uECC.c        **** #define DEC_3  2
  33:uECC.c        **** #define DEC_4  3
  34:uECC.c        **** #define DEC_5  4
  35:uECC.c        **** #define DEC_6  5
  36:uECC.c        **** #define DEC_7  6
  37:uECC.c        **** #define DEC_8  7
  38:uECC.c        **** #define DEC_9  8
  39:uECC.c        **** #define DEC_10 9
  40:uECC.c        **** #define DEC_11 10
  41:uECC.c        **** #define DEC_12 11
  42:uECC.c        **** #define DEC_13 12
  43:uECC.c        **** #define DEC_14 13
  44:uECC.c        **** #define DEC_15 14
  45:uECC.c        **** #define DEC_16 15
  46:uECC.c        **** #define DEC_17 16
  47:uECC.c        **** #define DEC_18 17
  48:uECC.c        **** #define DEC_19 18
  49:uECC.c        **** #define DEC_20 19
  50:uECC.c        **** #define DEC_21 20
  51:uECC.c        **** #define DEC_22 21
  52:uECC.c        **** #define DEC_23 22
  53:uECC.c        **** #define DEC_24 23
  54:uECC.c        **** #define DEC_25 24
  55:uECC.c        **** #define DEC_26 25
  56:uECC.c        **** #define DEC_27 26
  57:uECC.c        **** #define DEC_28 27
  58:uECC.c        **** #define DEC_29 28
  59:uECC.c        **** #define DEC_30 29
  60:uECC.c        **** #define DEC_31 30
  61:uECC.c        **** #define DEC_32 31
  62:uECC.c        **** 
  63:uECC.c        **** #define DEC(N) CONCAT(DEC_, N)
  64:uECC.c        **** 
  65:uECC.c        **** #define SECOND_ARG(_, val, ...) val
  66:uECC.c        **** #define SOME_CHECK_0 ~, 0
  67:uECC.c        **** #define GET_SECOND_ARG(...) SECOND_ARG(__VA_ARGS__, SOME,)
  68:uECC.c        **** #define SOME_OR_0(N) GET_SECOND_ARG(CONCAT(SOME_CHECK_, N))
ARM GAS  C:\Users\andrew\AppData\Local\Temp\ccN9Mpsj.s 			page 20


  69:uECC.c        **** 
  70:uECC.c        **** #define EMPTY(...)
  71:uECC.c        **** #define DEFER(...) __VA_ARGS__ EMPTY()
  72:uECC.c        **** 
  73:uECC.c        **** #define REPEAT_NAME_0() REPEAT_0
  74:uECC.c        **** #define REPEAT_NAME_SOME() REPEAT_SOME
  75:uECC.c        **** #define REPEAT_0(...)
  76:uECC.c        **** #define REPEAT_SOME(N, stuff) DEFER(CONCAT(REPEAT_NAME_, SOME_OR_0(DEC(N))))()(DEC(N), stuff) stuff
  77:uECC.c        **** #define REPEAT(N, stuff) EVAL(REPEAT_SOME(N, stuff))
  78:uECC.c        **** 
  79:uECC.c        **** #define REPEATM_NAME_0() REPEATM_0
  80:uECC.c        **** #define REPEATM_NAME_SOME() REPEATM_SOME
  81:uECC.c        **** #define REPEATM_0(...)
  82:uECC.c        **** #define REPEATM_SOME(N, macro) macro(N) \
  83:uECC.c        ****     DEFER(CONCAT(REPEATM_NAME_, SOME_OR_0(DEC(N))))()(DEC(N), macro)
  84:uECC.c        **** #define REPEATM(N, macro) EVAL(REPEATM_SOME(N, macro))
  85:uECC.c        **** 
  86:uECC.c        **** #include "platform-specific.inc"
  87:uECC.c        **** 
  88:uECC.c        **** #if (uECC_WORD_SIZE == 1)
  89:uECC.c        ****     #if uECC_SUPPORTS_secp160r1
  90:uECC.c        ****         #define uECC_MAX_WORDS 21 /* Due to the size of curve_n. */
  91:uECC.c        ****     #endif
  92:uECC.c        ****     #if uECC_SUPPORTS_secp192r1
  93:uECC.c        ****         #undef uECC_MAX_WORDS
  94:uECC.c        ****         #define uECC_MAX_WORDS 24
  95:uECC.c        ****     #endif
  96:uECC.c        ****     #if uECC_SUPPORTS_secp224r1
  97:uECC.c        ****         #undef uECC_MAX_WORDS
  98:uECC.c        ****         #define uECC_MAX_WORDS 28
  99:uECC.c        ****     #endif
 100:uECC.c        ****     #if (uECC_SUPPORTS_secp256r1 || uECC_SUPPORTS_secp256k1)
 101:uECC.c        ****         #undef uECC_MAX_WORDS
 102:uECC.c        ****         #define uECC_MAX_WORDS 32
 103:uECC.c        ****     #endif
 104:uECC.c        **** #elif (uECC_WORD_SIZE == 4)
 105:uECC.c        ****     #if uECC_SUPPORTS_secp160r1
 106:uECC.c        ****         #define uECC_MAX_WORDS 6 /* Due to the size of curve_n. */
 107:uECC.c        ****     #endif
 108:uECC.c        ****     #if uECC_SUPPORTS_secp192r1
 109:uECC.c        ****         #undef uECC_MAX_WORDS
 110:uECC.c        ****         #define uECC_MAX_WORDS 6
 111:uECC.c        ****     #endif
 112:uECC.c        ****     #if uECC_SUPPORTS_secp224r1
 113:uECC.c        ****         #undef uECC_MAX_WORDS
 114:uECC.c        ****         #define uECC_MAX_WORDS 7
 115:uECC.c        ****     #endif
 116:uECC.c        ****     #if (uECC_SUPPORTS_secp256r1 || uECC_SUPPORTS_secp256k1)
 117:uECC.c        ****         #undef uECC_MAX_WORDS
 118:uECC.c        ****         #define uECC_MAX_WORDS 8
 119:uECC.c        ****     #endif
 120:uECC.c        **** #elif (uECC_WORD_SIZE == 8)
 121:uECC.c        ****     #if uECC_SUPPORTS_secp160r1
 122:uECC.c        ****         #define uECC_MAX_WORDS 3
 123:uECC.c        ****     #endif
 124:uECC.c        ****     #if uECC_SUPPORTS_secp192r1
 125:uECC.c        ****         #undef uECC_MAX_WORDS
ARM GAS  C:\Users\andrew\AppData\Local\Temp\ccN9Mpsj.s 			page 21


 126:uECC.c        ****         #define uECC_MAX_WORDS 3
 127:uECC.c        ****     #endif
 128:uECC.c        ****     #if uECC_SUPPORTS_secp224r1
 129:uECC.c        ****         #undef uECC_MAX_WORDS
 130:uECC.c        ****         #define uECC_MAX_WORDS 4
 131:uECC.c        ****     #endif
 132:uECC.c        ****     #if (uECC_SUPPORTS_secp256r1 || uECC_SUPPORTS_secp256k1)
 133:uECC.c        ****         #undef uECC_MAX_WORDS
 134:uECC.c        ****         #define uECC_MAX_WORDS 4
 135:uECC.c        ****     #endif
 136:uECC.c        **** #endif /* uECC_WORD_SIZE */
 137:uECC.c        **** 
 138:uECC.c        **** #define BITS_TO_WORDS(num_bits) ((num_bits + ((uECC_WORD_SIZE * 8) - 1)) / (uECC_WORD_SIZE * 8))
 139:uECC.c        **** #define BITS_TO_BYTES(num_bits) ((num_bits + 7) / 8)
 140:uECC.c        **** 
 141:uECC.c        **** struct uECC_Curve_t {
 142:uECC.c        ****     wordcount_t num_words;
 143:uECC.c        ****     wordcount_t num_bytes;
 144:uECC.c        ****     bitcount_t num_n_bits;
 145:uECC.c        ****     uECC_word_t p[uECC_MAX_WORDS];
 146:uECC.c        ****     uECC_word_t n[uECC_MAX_WORDS];
 147:uECC.c        ****     uECC_word_t G[uECC_MAX_WORDS * 2];
 148:uECC.c        ****     uECC_word_t b[uECC_MAX_WORDS];
 149:uECC.c        ****     void (*double_jacobian)(uECC_word_t * X1,
 150:uECC.c        ****                             uECC_word_t * Y1,
 151:uECC.c        ****                             uECC_word_t * Z1,
 152:uECC.c        ****                             uECC_Curve curve);
 153:uECC.c        **** #if uECC_SUPPORT_COMPRESSED_POINT
 154:uECC.c        ****     void (*mod_sqrt)(uECC_word_t *a, uECC_Curve curve);
 155:uECC.c        **** #endif
 156:uECC.c        ****     void (*x_side)(uECC_word_t *result, const uECC_word_t *x, uECC_Curve curve);
 157:uECC.c        **** #if (uECC_OPTIMIZATION_LEVEL > 0)
 158:uECC.c        ****     void (*mmod_fast)(uECC_word_t *result, uECC_word_t *product);
 159:uECC.c        **** #endif
 160:uECC.c        **** };
 161:uECC.c        **** 
 162:uECC.c        **** #if uECC_VLI_NATIVE_LITTLE_ENDIAN
 163:uECC.c        **** static void bcopy(uint8_t *dst,
 164:uECC.c        ****                   const uint8_t *src,
 165:uECC.c        ****                   unsigned num_bytes) {
 166:uECC.c        ****     while (0 != num_bytes) {
 167:uECC.c        ****         num_bytes--;
 168:uECC.c        ****         dst[num_bytes] = src[num_bytes];
 169:uECC.c        ****     }
 170:uECC.c        **** }
 171:uECC.c        **** #endif
 172:uECC.c        **** 
 173:uECC.c        **** static cmpresult_t uECC_vli_cmp_unsafe(const uECC_word_t *left,
 174:uECC.c        ****                                        const uECC_word_t *right,
 175:uECC.c        ****                                        wordcount_t num_words);
 176:uECC.c        **** 
 177:uECC.c        **** #if (uECC_PLATFORM == uECC_arm || uECC_PLATFORM == uECC_arm_thumb || \
 178:uECC.c        ****         uECC_PLATFORM == uECC_arm_thumb2)
 179:uECC.c        ****     #include "asm_arm.inc"
 180:uECC.c        **** #endif
 181:uECC.c        **** 
 182:uECC.c        **** #if (uECC_PLATFORM == uECC_avr)
ARM GAS  C:\Users\andrew\AppData\Local\Temp\ccN9Mpsj.s 			page 22


 183:uECC.c        ****     #include "asm_avr.inc"
 184:uECC.c        **** #endif
 185:uECC.c        **** 
 186:uECC.c        **** #if default_RNG_defined
 187:uECC.c        **** static uECC_RNG_Function g_rng_function = &default_RNG;
 188:uECC.c        **** #else
 189:uECC.c        **** static uECC_RNG_Function g_rng_function = 0;
 190:uECC.c        **** #endif
 191:uECC.c        **** 
 192:uECC.c        **** void uECC_set_rng(uECC_RNG_Function rng_function) {
 386              		.loc 2 192 0
 387              		.cfi_startproc
 388              		@ args = 0, pretend = 0, frame = 8
 389              		@ frame_needed = 0, uses_anonymous_args = 0
 390              		@ link register save eliminated.
 391 0000 82B0     		sub	sp, sp, #8
 392              		.cfi_def_cfa_offset 8
 393 0002 0190     		str	r0, [sp, #4]
 193:uECC.c        ****     g_rng_function = rng_function;
 394              		.loc 2 193 0
 395 0004 024B     		ldr	r3, .L7
 396 0006 019A     		ldr	r2, [sp, #4]
 397 0008 1A60     		str	r2, [r3]
 194:uECC.c        **** }
 398              		.loc 2 194 0
 399 000a C046     		nop
 400 000c 02B0     		add	sp, sp, #8
 401              		@ sp needed
 402 000e 7047     		bx	lr
 403              	.L8:
 404              		.align	2
 405              	.L7:
 406 0010 00000000 		.word	g_rng_function
 407              		.cfi_endproc
 408              	.LFE3:
 409              		.size	uECC_set_rng, .-uECC_set_rng
 410              		.section	.text.uECC_get_rng,"ax",%progbits
 411              		.align	2
 412              		.global	uECC_get_rng
 413              		.code	16
 414              		.thumb_func
 415              		.type	uECC_get_rng, %function
 416              	uECC_get_rng:
 417              	.LFB4:
 195:uECC.c        **** 
 196:uECC.c        **** uECC_RNG_Function uECC_get_rng(void) {
 418              		.loc 2 196 0
 419              		.cfi_startproc
 420              		@ args = 0, pretend = 0, frame = 0
 421              		@ frame_needed = 0, uses_anonymous_args = 0
 422              		@ link register save eliminated.
 197:uECC.c        ****     return g_rng_function;
 423              		.loc 2 197 0
 424 0000 014B     		ldr	r3, .L11
 425 0002 1B68     		ldr	r3, [r3]
 198:uECC.c        **** }
 426              		.loc 2 198 0
ARM GAS  C:\Users\andrew\AppData\Local\Temp\ccN9Mpsj.s 			page 23


 427 0004 1800     		movs	r0, r3
 428              		@ sp needed
 429 0006 7047     		bx	lr
 430              	.L12:
 431              		.align	2
 432              	.L11:
 433 0008 00000000 		.word	g_rng_function
 434              		.cfi_endproc
 435              	.LFE4:
 436              		.size	uECC_get_rng, .-uECC_get_rng
 437              		.section	.text.uECC_curve_private_key_size,"ax",%progbits
 438              		.align	2
 439              		.global	uECC_curve_private_key_size
 440              		.code	16
 441              		.thumb_func
 442              		.type	uECC_curve_private_key_size, %function
 443              	uECC_curve_private_key_size:
 444              	.LFB5:
 199:uECC.c        **** 
 200:uECC.c        **** int uECC_curve_private_key_size(uECC_Curve curve) {
 445              		.loc 2 200 0
 446              		.cfi_startproc
 447              		@ args = 0, pretend = 0, frame = 8
 448              		@ frame_needed = 0, uses_anonymous_args = 0
 449              		@ link register save eliminated.
 450 0000 82B0     		sub	sp, sp, #8
 451              		.cfi_def_cfa_offset 8
 452 0002 0190     		str	r0, [sp, #4]
 201:uECC.c        ****     return BITS_TO_BYTES(curve->num_n_bits);
 453              		.loc 2 201 0
 454 0004 019B     		ldr	r3, [sp, #4]
 455 0006 0222     		movs	r2, #2
 456 0008 9B5E     		ldrsh	r3, [r3, r2]
 457 000a 0733     		adds	r3, r3, #7
 458 000c 002B     		cmp	r3, #0
 459 000e 00DA     		bge	.L14
 460 0010 0733     		adds	r3, r3, #7
 461              	.L14:
 462 0012 DB10     		asrs	r3, r3, #3
 202:uECC.c        **** }
 463              		.loc 2 202 0
 464 0014 1800     		movs	r0, r3
 465 0016 02B0     		add	sp, sp, #8
 466              		@ sp needed
 467 0018 7047     		bx	lr
 468              		.cfi_endproc
 469              	.LFE5:
 470              		.size	uECC_curve_private_key_size, .-uECC_curve_private_key_size
 471 001a C046     		.section	.text.uECC_curve_public_key_size,"ax",%progbits
 472              		.align	2
 473              		.global	uECC_curve_public_key_size
 474              		.code	16
 475              		.thumb_func
 476              		.type	uECC_curve_public_key_size, %function
 477              	uECC_curve_public_key_size:
 478              	.LFB6:
 203:uECC.c        **** 
ARM GAS  C:\Users\andrew\AppData\Local\Temp\ccN9Mpsj.s 			page 24


 204:uECC.c        **** int uECC_curve_public_key_size(uECC_Curve curve) {
 479              		.loc 2 204 0
 480              		.cfi_startproc
 481              		@ args = 0, pretend = 0, frame = 8
 482              		@ frame_needed = 0, uses_anonymous_args = 0
 483              		@ link register save eliminated.
 484 0000 82B0     		sub	sp, sp, #8
 485              		.cfi_def_cfa_offset 8
 486 0002 0190     		str	r0, [sp, #4]
 205:uECC.c        ****     return 2 * curve->num_bytes;
 487              		.loc 2 205 0
 488 0004 019B     		ldr	r3, [sp, #4]
 489 0006 5B78     		ldrb	r3, [r3, #1]
 490 0008 5BB2     		sxtb	r3, r3
 491 000a 5B00     		lsls	r3, r3, #1
 206:uECC.c        **** }
 492              		.loc 2 206 0
 493 000c 1800     		movs	r0, r3
 494 000e 02B0     		add	sp, sp, #8
 495              		@ sp needed
 496 0010 7047     		bx	lr
 497              		.cfi_endproc
 498              	.LFE6:
 499              		.size	uECC_curve_public_key_size, .-uECC_curve_public_key_size
 500 0012 C046     		.section	.text.uECC_vli_clear,"ax",%progbits
 501              		.align	2
 502              		.code	16
 503              		.thumb_func
 504              		.type	uECC_vli_clear, %function
 505              	uECC_vli_clear:
 506              	.LFB7:
 207:uECC.c        **** 
 208:uECC.c        **** #if !asm_clear
 209:uECC.c        **** uECC_VLI_API void uECC_vli_clear(uECC_word_t *vli, wordcount_t num_words) {
 507              		.loc 2 209 0
 508              		.cfi_startproc
 509              		@ args = 0, pretend = 0, frame = 16
 510              		@ frame_needed = 0, uses_anonymous_args = 0
 511              		@ link register save eliminated.
 512 0000 84B0     		sub	sp, sp, #16
 513              		.cfi_def_cfa_offset 16
 514 0002 0190     		str	r0, [sp, #4]
 515 0004 0A00     		movs	r2, r1
 516 0006 6B46     		mov	r3, sp
 517 0008 0333     		adds	r3, r3, #3
 518 000a 1A70     		strb	r2, [r3]
 210:uECC.c        ****     wordcount_t i;
 211:uECC.c        ****     for (i = 0; i < num_words; ++i) {
 519              		.loc 2 211 0
 520 000c 0F23     		movs	r3, #15
 521 000e 6B44     		add	r3, r3, sp
 522 0010 0022     		movs	r2, #0
 523 0012 1A70     		strb	r2, [r3]
 524 0014 10E0     		b	.L19
 525              	.L20:
 212:uECC.c        ****         vli[i] = 0;
 526              		.loc 2 212 0 discriminator 3
ARM GAS  C:\Users\andrew\AppData\Local\Temp\ccN9Mpsj.s 			page 25


 527 0016 0F23     		movs	r3, #15
 528 0018 6B44     		add	r3, r3, sp
 529 001a 1B78     		ldrb	r3, [r3]
 530 001c 5BB2     		sxtb	r3, r3
 531 001e 9B00     		lsls	r3, r3, #2
 532 0020 019A     		ldr	r2, [sp, #4]
 533 0022 D318     		adds	r3, r2, r3
 534 0024 0022     		movs	r2, #0
 535 0026 1A60     		str	r2, [r3]
 211:uECC.c        ****         vli[i] = 0;
 536              		.loc 2 211 0 discriminator 3
 537 0028 0F23     		movs	r3, #15
 538 002a 6B44     		add	r3, r3, sp
 539 002c 1B78     		ldrb	r3, [r3]
 540 002e 0133     		adds	r3, r3, #1
 541 0030 DAB2     		uxtb	r2, r3
 542 0032 0F23     		movs	r3, #15
 543 0034 6B44     		add	r3, r3, sp
 544 0036 1A70     		strb	r2, [r3]
 545              	.L19:
 211:uECC.c        ****         vli[i] = 0;
 546              		.loc 2 211 0 is_stmt 0 discriminator 1
 547 0038 0F22     		movs	r2, #15
 548 003a 6A44     		add	r2, r2, sp
 549 003c 6B46     		mov	r3, sp
 550 003e 0333     		adds	r3, r3, #3
 551 0040 1278     		ldrb	r2, [r2]
 552 0042 52B2     		sxtb	r2, r2
 553 0044 1B78     		ldrb	r3, [r3]
 554 0046 5BB2     		sxtb	r3, r3
 555 0048 9A42     		cmp	r2, r3
 556 004a E4DB     		blt	.L20
 213:uECC.c        ****     }
 214:uECC.c        **** }
 557              		.loc 2 214 0 is_stmt 1
 558 004c C046     		nop
 559 004e 04B0     		add	sp, sp, #16
 560              		@ sp needed
 561 0050 7047     		bx	lr
 562              		.cfi_endproc
 563              	.LFE7:
 564              		.size	uECC_vli_clear, .-uECC_vli_clear
 565 0052 C046     		.section	.text.uECC_vli_isZero,"ax",%progbits
 566              		.align	2
 567              		.code	16
 568              		.thumb_func
 569              		.type	uECC_vli_isZero, %function
 570              	uECC_vli_isZero:
 571              	.LFB8:
 215:uECC.c        **** #endif /* !asm_clear */
 216:uECC.c        **** 
 217:uECC.c        **** /* Constant-time comparison to zero - secure way to compare long integers */
 218:uECC.c        **** /* Returns 1 if vli == 0, 0 otherwise. */
 219:uECC.c        **** uECC_VLI_API uECC_word_t uECC_vli_isZero(const uECC_word_t *vli, wordcount_t num_words) {
 572              		.loc 2 219 0
 573              		.cfi_startproc
 574              		@ args = 0, pretend = 0, frame = 16
ARM GAS  C:\Users\andrew\AppData\Local\Temp\ccN9Mpsj.s 			page 26


 575              		@ frame_needed = 0, uses_anonymous_args = 0
 576              		@ link register save eliminated.
 577 0000 84B0     		sub	sp, sp, #16
 578              		.cfi_def_cfa_offset 16
 579 0002 0190     		str	r0, [sp, #4]
 580 0004 0A00     		movs	r2, r1
 581 0006 6B46     		mov	r3, sp
 582 0008 0333     		adds	r3, r3, #3
 583 000a 1A70     		strb	r2, [r3]
 220:uECC.c        ****     uECC_word_t bits = 0;
 584              		.loc 2 220 0
 585 000c 0023     		movs	r3, #0
 586 000e 0393     		str	r3, [sp, #12]
 221:uECC.c        ****     wordcount_t i;
 222:uECC.c        ****     for (i = 0; i < num_words; ++i) {
 587              		.loc 2 222 0
 588 0010 0B23     		movs	r3, #11
 589 0012 6B44     		add	r3, r3, sp
 590 0014 0022     		movs	r2, #0
 591 0016 1A70     		strb	r2, [r3]
 592 0018 12E0     		b	.L22
 593              	.L23:
 223:uECC.c        ****         bits |= vli[i];
 594              		.loc 2 223 0 discriminator 3
 595 001a 0B23     		movs	r3, #11
 596 001c 6B44     		add	r3, r3, sp
 597 001e 1B78     		ldrb	r3, [r3]
 598 0020 5BB2     		sxtb	r3, r3
 599 0022 9B00     		lsls	r3, r3, #2
 600 0024 019A     		ldr	r2, [sp, #4]
 601 0026 D318     		adds	r3, r2, r3
 602 0028 1B68     		ldr	r3, [r3]
 603 002a 039A     		ldr	r2, [sp, #12]
 604 002c 1343     		orrs	r3, r2
 605 002e 0393     		str	r3, [sp, #12]
 222:uECC.c        ****         bits |= vli[i];
 606              		.loc 2 222 0 discriminator 3
 607 0030 0B23     		movs	r3, #11
 608 0032 6B44     		add	r3, r3, sp
 609 0034 1B78     		ldrb	r3, [r3]
 610 0036 0133     		adds	r3, r3, #1
 611 0038 DAB2     		uxtb	r2, r3
 612 003a 0B23     		movs	r3, #11
 613 003c 6B44     		add	r3, r3, sp
 614 003e 1A70     		strb	r2, [r3]
 615              	.L22:
 222:uECC.c        ****         bits |= vli[i];
 616              		.loc 2 222 0 is_stmt 0 discriminator 1
 617 0040 0B22     		movs	r2, #11
 618 0042 6A44     		add	r2, r2, sp
 619 0044 6B46     		mov	r3, sp
 620 0046 0333     		adds	r3, r3, #3
 621 0048 1278     		ldrb	r2, [r2]
 622 004a 52B2     		sxtb	r2, r2
 623 004c 1B78     		ldrb	r3, [r3]
 624 004e 5BB2     		sxtb	r3, r3
 625 0050 9A42     		cmp	r2, r3
ARM GAS  C:\Users\andrew\AppData\Local\Temp\ccN9Mpsj.s 			page 27


 626 0052 E2DB     		blt	.L23
 224:uECC.c        ****     }
 225:uECC.c        ****     return (bits == 0);
 627              		.loc 2 225 0 is_stmt 1
 628 0054 039B     		ldr	r3, [sp, #12]
 629 0056 5A42     		rsbs	r2, r3, #0
 630 0058 5341     		adcs	r3, r3, r2
 631 005a DBB2     		uxtb	r3, r3
 226:uECC.c        **** }
 632              		.loc 2 226 0
 633 005c 1800     		movs	r0, r3
 634 005e 04B0     		add	sp, sp, #16
 635              		@ sp needed
 636 0060 7047     		bx	lr
 637              		.cfi_endproc
 638              	.LFE8:
 639              		.size	uECC_vli_isZero, .-uECC_vli_isZero
 640 0062 C046     		.section	.text.uECC_vli_testBit,"ax",%progbits
 641              		.align	2
 642              		.code	16
 643              		.thumb_func
 644              		.type	uECC_vli_testBit, %function
 645              	uECC_vli_testBit:
 646              	.LFB9:
 227:uECC.c        **** 
 228:uECC.c        **** /* Returns nonzero if bit 'bit' of vli is set. */
 229:uECC.c        **** uECC_VLI_API uECC_word_t uECC_vli_testBit(const uECC_word_t *vli, bitcount_t bit) {
 647              		.loc 2 229 0
 648              		.cfi_startproc
 649              		@ args = 0, pretend = 0, frame = 8
 650              		@ frame_needed = 0, uses_anonymous_args = 0
 651              		@ link register save eliminated.
 652 0000 82B0     		sub	sp, sp, #8
 653              		.cfi_def_cfa_offset 8
 654 0002 0190     		str	r0, [sp, #4]
 655 0004 0A00     		movs	r2, r1
 656 0006 6B46     		mov	r3, sp
 657 0008 0233     		adds	r3, r3, #2
 658 000a 1A80     		strh	r2, [r3]
 230:uECC.c        ****     return (vli[bit >> uECC_WORD_BITS_SHIFT] & ((uECC_word_t)1 << (bit & uECC_WORD_BITS_MASK)));
 659              		.loc 2 230 0
 660 000c 6B46     		mov	r3, sp
 661 000e 0233     		adds	r3, r3, #2
 662 0010 0022     		movs	r2, #0
 663 0012 9B5E     		ldrsh	r3, [r3, r2]
 664 0014 5B11     		asrs	r3, r3, #5
 665 0016 1BB2     		sxth	r3, r3
 666 0018 9B00     		lsls	r3, r3, #2
 667 001a 019A     		ldr	r2, [sp, #4]
 668 001c D318     		adds	r3, r2, r3
 669 001e 1B68     		ldr	r3, [r3]
 670 0020 6A46     		mov	r2, sp
 671 0022 0232     		adds	r2, r2, #2
 672 0024 1288     		ldrh	r2, [r2]
 673 0026 1100     		movs	r1, r2
 674 0028 1F22     		movs	r2, #31
 675 002a 0A40     		ands	r2, r1
ARM GAS  C:\Users\andrew\AppData\Local\Temp\ccN9Mpsj.s 			page 28


 676 002c 0121     		movs	r1, #1
 677 002e 9140     		lsls	r1, r1, r2
 678 0030 0A00     		movs	r2, r1
 679 0032 1340     		ands	r3, r2
 231:uECC.c        **** }
 680              		.loc 2 231 0
 681 0034 1800     		movs	r0, r3
 682 0036 02B0     		add	sp, sp, #8
 683              		@ sp needed
 684 0038 7047     		bx	lr
 685              		.cfi_endproc
 686              	.LFE9:
 687              		.size	uECC_vli_testBit, .-uECC_vli_testBit
 688 003a C046     		.section	.text.vli_numDigits,"ax",%progbits
 689              		.align	2
 690              		.code	16
 691              		.thumb_func
 692              		.type	vli_numDigits, %function
 693              	vli_numDigits:
 694              	.LFB10:
 232:uECC.c        **** 
 233:uECC.c        **** /* Counts the number of words in vli. */
 234:uECC.c        **** static wordcount_t vli_numDigits(const uECC_word_t *vli, const wordcount_t max_words) {
 695              		.loc 2 234 0
 696              		.cfi_startproc
 697              		@ args = 0, pretend = 0, frame = 16
 698              		@ frame_needed = 0, uses_anonymous_args = 0
 699              		@ link register save eliminated.
 700 0000 84B0     		sub	sp, sp, #16
 701              		.cfi_def_cfa_offset 16
 702 0002 0190     		str	r0, [sp, #4]
 703 0004 0A00     		movs	r2, r1
 704 0006 6B46     		mov	r3, sp
 705 0008 0333     		adds	r3, r3, #3
 706 000a 1A70     		strb	r2, [r3]
 235:uECC.c        ****     wordcount_t i;
 236:uECC.c        ****     /* Search from the end until we find a non-zero digit.
 237:uECC.c        ****        We do it in reverse because we expect that most digits will be nonzero. */
 238:uECC.c        ****     for (i = max_words - 1; i >= 0 && vli[i] == 0; --i) {
 707              		.loc 2 238 0
 708 000c 6B46     		mov	r3, sp
 709 000e 0333     		adds	r3, r3, #3
 710 0010 1B78     		ldrb	r3, [r3]
 711 0012 013B     		subs	r3, r3, #1
 712 0014 DAB2     		uxtb	r2, r3
 713 0016 0F23     		movs	r3, #15
 714 0018 6B44     		add	r3, r3, sp
 715 001a 1A70     		strb	r2, [r3]
 716 001c 07E0     		b	.L28
 717              	.L30:
 718              		.loc 2 238 0 is_stmt 0 discriminator 4
 719 001e 0F23     		movs	r3, #15
 720 0020 6B44     		add	r3, r3, sp
 721 0022 1B78     		ldrb	r3, [r3]
 722 0024 013B     		subs	r3, r3, #1
 723 0026 DAB2     		uxtb	r2, r3
 724 0028 0F23     		movs	r3, #15
ARM GAS  C:\Users\andrew\AppData\Local\Temp\ccN9Mpsj.s 			page 29


 725 002a 6B44     		add	r3, r3, sp
 726 002c 1A70     		strb	r2, [r3]
 727              	.L28:
 728              		.loc 2 238 0 discriminator 1
 729 002e 0F23     		movs	r3, #15
 730 0030 6B44     		add	r3, r3, sp
 731 0032 1B78     		ldrb	r3, [r3]
 732 0034 7F2B     		cmp	r3, #127
 733 0036 09D8     		bhi	.L29
 734              		.loc 2 238 0 discriminator 3
 735 0038 0F23     		movs	r3, #15
 736 003a 6B44     		add	r3, r3, sp
 737 003c 1B78     		ldrb	r3, [r3]
 738 003e 5BB2     		sxtb	r3, r3
 739 0040 9B00     		lsls	r3, r3, #2
 740 0042 019A     		ldr	r2, [sp, #4]
 741 0044 D318     		adds	r3, r2, r3
 742 0046 1B68     		ldr	r3, [r3]
 743 0048 002B     		cmp	r3, #0
 744 004a E8D0     		beq	.L30
 745              	.L29:
 239:uECC.c        ****     }
 240:uECC.c        **** 
 241:uECC.c        ****     return (i + 1);
 746              		.loc 2 241 0 is_stmt 1
 747 004c 0F23     		movs	r3, #15
 748 004e 6B44     		add	r3, r3, sp
 749 0050 1B78     		ldrb	r3, [r3]
 750 0052 0133     		adds	r3, r3, #1
 751 0054 DBB2     		uxtb	r3, r3
 752 0056 5BB2     		sxtb	r3, r3
 242:uECC.c        **** }
 753              		.loc 2 242 0
 754 0058 1800     		movs	r0, r3
 755 005a 04B0     		add	sp, sp, #16
 756              		@ sp needed
 757 005c 7047     		bx	lr
 758              		.cfi_endproc
 759              	.LFE10:
 760              		.size	vli_numDigits, .-vli_numDigits
 761 005e C046     		.section	.text.uECC_vli_numBits,"ax",%progbits
 762              		.align	2
 763              		.code	16
 764              		.thumb_func
 765              		.type	uECC_vli_numBits, %function
 766              	uECC_vli_numBits:
 767              	.LFB11:
 243:uECC.c        **** 
 244:uECC.c        **** /* Counts the number of bits required to represent vli. */
 245:uECC.c        **** uECC_VLI_API bitcount_t uECC_vli_numBits(const uECC_word_t *vli, const wordcount_t max_words) {
 768              		.loc 2 245 0
 769              		.cfi_startproc
 770              		@ args = 0, pretend = 0, frame = 24
 771              		@ frame_needed = 0, uses_anonymous_args = 0
 772 0000 10B5     		push	{r4, lr}
 773              		.cfi_def_cfa_offset 8
 774              		.cfi_offset 4, -8
ARM GAS  C:\Users\andrew\AppData\Local\Temp\ccN9Mpsj.s 			page 30


 775              		.cfi_offset 14, -4
 776 0002 86B0     		sub	sp, sp, #24
 777              		.cfi_def_cfa_offset 32
 778 0004 0190     		str	r0, [sp, #4]
 779 0006 0A00     		movs	r2, r1
 780 0008 6B46     		mov	r3, sp
 781 000a 0333     		adds	r3, r3, #3
 782 000c 1A70     		strb	r2, [r3]
 246:uECC.c        ****     uECC_word_t i;
 247:uECC.c        ****     uECC_word_t digit;
 248:uECC.c        **** 
 249:uECC.c        ****     wordcount_t num_digits = vli_numDigits(vli, max_words);
 783              		.loc 2 249 0
 784 000e 0F24     		movs	r4, #15
 785 0010 6C44     		add	r4, r4, sp
 786 0012 6B46     		mov	r3, sp
 787 0014 0333     		adds	r3, r3, #3
 788 0016 0022     		movs	r2, #0
 789 0018 9A56     		ldrsb	r2, [r3, r2]
 790 001a 019B     		ldr	r3, [sp, #4]
 791 001c 1100     		movs	r1, r2
 792 001e 1800     		movs	r0, r3
 793 0020 FFF7FEFF 		bl	vli_numDigits
 794 0024 0300     		movs	r3, r0
 795 0026 2370     		strb	r3, [r4]
 250:uECC.c        ****     if (num_digits == 0) {
 796              		.loc 2 250 0
 797 0028 0F23     		movs	r3, #15
 798 002a 6B44     		add	r3, r3, sp
 799 002c 1B78     		ldrb	r3, [r3]
 800 002e 5BB2     		sxtb	r3, r3
 801 0030 002B     		cmp	r3, #0
 802 0032 01D1     		bne	.L33
 251:uECC.c        ****         return 0;
 803              		.loc 2 251 0
 804 0034 0023     		movs	r3, #0
 805 0036 25E0     		b	.L34
 806              	.L33:
 252:uECC.c        ****     }
 253:uECC.c        **** 
 254:uECC.c        ****     digit = vli[num_digits - 1];
 807              		.loc 2 254 0
 808 0038 0F23     		movs	r3, #15
 809 003a 6B44     		add	r3, r3, sp
 810 003c 1B78     		ldrb	r3, [r3]
 811 003e 5BB2     		sxtb	r3, r3
 812 0040 124A     		ldr	r2, .L37
 813 0042 9446     		mov	ip, r2
 814 0044 6344     		add	r3, r3, ip
 815 0046 9B00     		lsls	r3, r3, #2
 816 0048 019A     		ldr	r2, [sp, #4]
 817 004a D318     		adds	r3, r2, r3
 818 004c 1B68     		ldr	r3, [r3]
 819 004e 0493     		str	r3, [sp, #16]
 255:uECC.c        ****     for (i = 0; digit; ++i) {
 820              		.loc 2 255 0
 821 0050 0023     		movs	r3, #0
ARM GAS  C:\Users\andrew\AppData\Local\Temp\ccN9Mpsj.s 			page 31


 822 0052 0593     		str	r3, [sp, #20]
 823 0054 05E0     		b	.L35
 824              	.L36:
 256:uECC.c        ****         digit >>= 1;
 825              		.loc 2 256 0 discriminator 3
 826 0056 049B     		ldr	r3, [sp, #16]
 827 0058 5B08     		lsrs	r3, r3, #1
 828 005a 0493     		str	r3, [sp, #16]
 255:uECC.c        ****     for (i = 0; digit; ++i) {
 829              		.loc 2 255 0 discriminator 3
 830 005c 059B     		ldr	r3, [sp, #20]
 831 005e 0133     		adds	r3, r3, #1
 832 0060 0593     		str	r3, [sp, #20]
 833              	.L35:
 255:uECC.c        ****     for (i = 0; digit; ++i) {
 834              		.loc 2 255 0 is_stmt 0 discriminator 1
 835 0062 049B     		ldr	r3, [sp, #16]
 836 0064 002B     		cmp	r3, #0
 837 0066 F6D1     		bne	.L36
 257:uECC.c        ****     }
 258:uECC.c        **** 
 259:uECC.c        ****     return (((bitcount_t)(num_digits - 1) << uECC_WORD_BITS_SHIFT) + i);
 838              		.loc 2 259 0 is_stmt 1
 839 0068 0F23     		movs	r3, #15
 840 006a 6B44     		add	r3, r3, sp
 841 006c 1B78     		ldrb	r3, [r3]
 842 006e 5BB2     		sxtb	r3, r3
 843 0070 9BB2     		uxth	r3, r3
 844 0072 013B     		subs	r3, r3, #1
 845 0074 9BB2     		uxth	r3, r3
 846 0076 5B01     		lsls	r3, r3, #5
 847 0078 9AB2     		uxth	r2, r3
 848 007a 059B     		ldr	r3, [sp, #20]
 849 007c 9BB2     		uxth	r3, r3
 850 007e D318     		adds	r3, r2, r3
 851 0080 9BB2     		uxth	r3, r3
 852 0082 1BB2     		sxth	r3, r3
 853              	.L34:
 260:uECC.c        **** }
 854              		.loc 2 260 0
 855 0084 1800     		movs	r0, r3
 856 0086 06B0     		add	sp, sp, #24
 857              		@ sp needed
 858 0088 10BD     		pop	{r4, pc}
 859              	.L38:
 860 008a C046     		.align	2
 861              	.L37:
 862 008c FFFFFF3F 		.word	1073741823
 863              		.cfi_endproc
 864              	.LFE11:
 865              		.size	uECC_vli_numBits, .-uECC_vli_numBits
 866              		.section	.text.uECC_vli_set,"ax",%progbits
 867              		.align	2
 868              		.code	16
 869              		.thumb_func
 870              		.type	uECC_vli_set, %function
 871              	uECC_vli_set:
ARM GAS  C:\Users\andrew\AppData\Local\Temp\ccN9Mpsj.s 			page 32


 872              	.LFB12:
 261:uECC.c        **** 
 262:uECC.c        **** /* Sets dest = src. */
 263:uECC.c        **** #if !asm_set
 264:uECC.c        **** uECC_VLI_API void uECC_vli_set(uECC_word_t *dest, const uECC_word_t *src, wordcount_t num_words) {
 873              		.loc 2 264 0
 874              		.cfi_startproc
 875              		@ args = 0, pretend = 0, frame = 24
 876              		@ frame_needed = 0, uses_anonymous_args = 0
 877              		@ link register save eliminated.
 878 0000 86B0     		sub	sp, sp, #24
 879              		.cfi_def_cfa_offset 24
 880 0002 0390     		str	r0, [sp, #12]
 881 0004 0291     		str	r1, [sp, #8]
 882 0006 6B46     		mov	r3, sp
 883 0008 0733     		adds	r3, r3, #7
 884 000a 1A70     		strb	r2, [r3]
 265:uECC.c        ****     wordcount_t i;
 266:uECC.c        ****     for (i = 0; i < num_words; ++i) {
 885              		.loc 2 266 0
 886 000c 1723     		movs	r3, #23
 887 000e 6B44     		add	r3, r3, sp
 888 0010 0022     		movs	r2, #0
 889 0012 1A70     		strb	r2, [r3]
 890 0014 17E0     		b	.L40
 891              	.L41:
 267:uECC.c        ****         dest[i] = src[i];
 892              		.loc 2 267 0 discriminator 3
 893 0016 1723     		movs	r3, #23
 894 0018 6B44     		add	r3, r3, sp
 895 001a 1B78     		ldrb	r3, [r3]
 896 001c 5BB2     		sxtb	r3, r3
 897 001e 9B00     		lsls	r3, r3, #2
 898 0020 039A     		ldr	r2, [sp, #12]
 899 0022 D318     		adds	r3, r2, r3
 900 0024 1722     		movs	r2, #23
 901 0026 6A44     		add	r2, r2, sp
 902 0028 1278     		ldrb	r2, [r2]
 903 002a 52B2     		sxtb	r2, r2
 904 002c 9200     		lsls	r2, r2, #2
 905 002e 0299     		ldr	r1, [sp, #8]
 906 0030 8A18     		adds	r2, r1, r2
 907 0032 1268     		ldr	r2, [r2]
 908 0034 1A60     		str	r2, [r3]
 266:uECC.c        ****         dest[i] = src[i];
 909              		.loc 2 266 0 discriminator 3
 910 0036 1723     		movs	r3, #23
 911 0038 6B44     		add	r3, r3, sp
 912 003a 1B78     		ldrb	r3, [r3]
 913 003c 0133     		adds	r3, r3, #1
 914 003e DAB2     		uxtb	r2, r3
 915 0040 1723     		movs	r3, #23
 916 0042 6B44     		add	r3, r3, sp
 917 0044 1A70     		strb	r2, [r3]
 918              	.L40:
 266:uECC.c        ****         dest[i] = src[i];
 919              		.loc 2 266 0 is_stmt 0 discriminator 1
ARM GAS  C:\Users\andrew\AppData\Local\Temp\ccN9Mpsj.s 			page 33


 920 0046 1722     		movs	r2, #23
 921 0048 6A44     		add	r2, r2, sp
 922 004a 6B46     		mov	r3, sp
 923 004c 0733     		adds	r3, r3, #7
 924 004e 1278     		ldrb	r2, [r2]
 925 0050 52B2     		sxtb	r2, r2
 926 0052 1B78     		ldrb	r3, [r3]
 927 0054 5BB2     		sxtb	r3, r3
 928 0056 9A42     		cmp	r2, r3
 929 0058 DDDB     		blt	.L41
 268:uECC.c        ****     }
 269:uECC.c        **** }
 930              		.loc 2 269 0 is_stmt 1
 931 005a C046     		nop
 932 005c 06B0     		add	sp, sp, #24
 933              		@ sp needed
 934 005e 7047     		bx	lr
 935              		.cfi_endproc
 936              	.LFE12:
 937              		.size	uECC_vli_set, .-uECC_vli_set
 938              		.section	.text.uECC_vli_cmp_unsafe,"ax",%progbits
 939              		.align	2
 940              		.code	16
 941              		.thumb_func
 942              		.type	uECC_vli_cmp_unsafe, %function
 943              	uECC_vli_cmp_unsafe:
 944              	.LFB13:
 270:uECC.c        **** #endif /* !asm_set */
 271:uECC.c        **** 
 272:uECC.c        **** /* Returns sign of left - right. */
 273:uECC.c        **** static cmpresult_t uECC_vli_cmp_unsafe(const uECC_word_t *left,
 274:uECC.c        ****                                        const uECC_word_t *right,
 275:uECC.c        ****                                        wordcount_t num_words) {
 945              		.loc 2 275 0
 946              		.cfi_startproc
 947              		@ args = 0, pretend = 0, frame = 24
 948              		@ frame_needed = 0, uses_anonymous_args = 0
 949              		@ link register save eliminated.
 950 0000 86B0     		sub	sp, sp, #24
 951              		.cfi_def_cfa_offset 24
 952 0002 0390     		str	r0, [sp, #12]
 953 0004 0291     		str	r1, [sp, #8]
 954 0006 6B46     		mov	r3, sp
 955 0008 0733     		adds	r3, r3, #7
 956 000a 1A70     		strb	r2, [r3]
 276:uECC.c        ****     wordcount_t i;
 277:uECC.c        ****     for (i = num_words - 1; i >= 0; --i) {
 957              		.loc 2 277 0
 958 000c 6B46     		mov	r3, sp
 959 000e 0733     		adds	r3, r3, #7
 960 0010 1B78     		ldrb	r3, [r3]
 961 0012 013B     		subs	r3, r3, #1
 962 0014 DAB2     		uxtb	r2, r3
 963 0016 1723     		movs	r3, #23
 964 0018 6B44     		add	r3, r3, sp
 965 001a 1A70     		strb	r2, [r3]
 966 001c 30E0     		b	.L43
ARM GAS  C:\Users\andrew\AppData\Local\Temp\ccN9Mpsj.s 			page 34


 967              	.L47:
 278:uECC.c        ****         if (left[i] > right[i]) {
 968              		.loc 2 278 0
 969 001e 1723     		movs	r3, #23
 970 0020 6B44     		add	r3, r3, sp
 971 0022 1B78     		ldrb	r3, [r3]
 972 0024 5BB2     		sxtb	r3, r3
 973 0026 9B00     		lsls	r3, r3, #2
 974 0028 039A     		ldr	r2, [sp, #12]
 975 002a D318     		adds	r3, r2, r3
 976 002c 1A68     		ldr	r2, [r3]
 977 002e 1723     		movs	r3, #23
 978 0030 6B44     		add	r3, r3, sp
 979 0032 1B78     		ldrb	r3, [r3]
 980 0034 5BB2     		sxtb	r3, r3
 981 0036 9B00     		lsls	r3, r3, #2
 982 0038 0299     		ldr	r1, [sp, #8]
 983 003a CB18     		adds	r3, r1, r3
 984 003c 1B68     		ldr	r3, [r3]
 985 003e 9A42     		cmp	r2, r3
 986 0040 01D9     		bls	.L44
 279:uECC.c        ****             return 1;
 987              		.loc 2 279 0
 988 0042 0123     		movs	r3, #1
 989 0044 22E0     		b	.L45
 990              	.L44:
 280:uECC.c        ****         } else if (left[i] < right[i]) {
 991              		.loc 2 280 0
 992 0046 1723     		movs	r3, #23
 993 0048 6B44     		add	r3, r3, sp
 994 004a 1B78     		ldrb	r3, [r3]
 995 004c 5BB2     		sxtb	r3, r3
 996 004e 9B00     		lsls	r3, r3, #2
 997 0050 039A     		ldr	r2, [sp, #12]
 998 0052 D318     		adds	r3, r2, r3
 999 0054 1A68     		ldr	r2, [r3]
 1000 0056 1723     		movs	r3, #23
 1001 0058 6B44     		add	r3, r3, sp
 1002 005a 1B78     		ldrb	r3, [r3]
 1003 005c 5BB2     		sxtb	r3, r3
 1004 005e 9B00     		lsls	r3, r3, #2
 1005 0060 0299     		ldr	r1, [sp, #8]
 1006 0062 CB18     		adds	r3, r1, r3
 1007 0064 1B68     		ldr	r3, [r3]
 1008 0066 9A42     		cmp	r2, r3
 1009 0068 02D2     		bcs	.L46
 281:uECC.c        ****             return -1;
 1010              		.loc 2 281 0
 1011 006a 0123     		movs	r3, #1
 1012 006c 5B42     		rsbs	r3, r3, #0
 1013 006e 0DE0     		b	.L45
 1014              	.L46:
 277:uECC.c        ****         if (left[i] > right[i]) {
 1015              		.loc 2 277 0 discriminator 2
 1016 0070 1723     		movs	r3, #23
 1017 0072 6B44     		add	r3, r3, sp
 1018 0074 1B78     		ldrb	r3, [r3]
ARM GAS  C:\Users\andrew\AppData\Local\Temp\ccN9Mpsj.s 			page 35


 1019 0076 013B     		subs	r3, r3, #1
 1020 0078 DAB2     		uxtb	r2, r3
 1021 007a 1723     		movs	r3, #23
 1022 007c 6B44     		add	r3, r3, sp
 1023 007e 1A70     		strb	r2, [r3]
 1024              	.L43:
 277:uECC.c        ****         if (left[i] > right[i]) {
 1025              		.loc 2 277 0 is_stmt 0 discriminator 1
 1026 0080 1723     		movs	r3, #23
 1027 0082 6B44     		add	r3, r3, sp
 1028 0084 1B78     		ldrb	r3, [r3]
 1029 0086 7F2B     		cmp	r3, #127
 1030 0088 C9D9     		bls	.L47
 282:uECC.c        ****         }
 283:uECC.c        ****     }
 284:uECC.c        ****     return 0;
 1031              		.loc 2 284 0 is_stmt 1
 1032 008a 0023     		movs	r3, #0
 1033              	.L45:
 285:uECC.c        **** }
 1034              		.loc 2 285 0
 1035 008c 1800     		movs	r0, r3
 1036 008e 06B0     		add	sp, sp, #24
 1037              		@ sp needed
 1038 0090 7047     		bx	lr
 1039              		.cfi_endproc
 1040              	.LFE13:
 1041              		.size	uECC_vli_cmp_unsafe, .-uECC_vli_cmp_unsafe
 1042 0092 C046     		.section	.text.uECC_vli_equal,"ax",%progbits
 1043              		.align	2
 1044              		.code	16
 1045              		.thumb_func
 1046              		.type	uECC_vli_equal, %function
 1047              	uECC_vli_equal:
 1048              	.LFB14:
 286:uECC.c        **** 
 287:uECC.c        **** /* Constant-time comparison function - secure way to compare long integers */
 288:uECC.c        **** /* Returns one if left == right, zero otherwise. */
 289:uECC.c        **** uECC_VLI_API uECC_word_t uECC_vli_equal(const uECC_word_t *left,
 290:uECC.c        ****                                         const uECC_word_t *right,
 291:uECC.c        ****                                         wordcount_t num_words) {
 1049              		.loc 2 291 0
 1050              		.cfi_startproc
 1051              		@ args = 0, pretend = 0, frame = 32
 1052              		@ frame_needed = 0, uses_anonymous_args = 0
 1053              		@ link register save eliminated.
 1054 0000 88B0     		sub	sp, sp, #32
 1055              		.cfi_def_cfa_offset 32
 1056 0002 0390     		str	r0, [sp, #12]
 1057 0004 0291     		str	r1, [sp, #8]
 1058 0006 6B46     		mov	r3, sp
 1059 0008 0733     		adds	r3, r3, #7
 1060 000a 1A70     		strb	r2, [r3]
 292:uECC.c        ****     uECC_word_t diff = 0;
 1061              		.loc 2 292 0
 1062 000c 0023     		movs	r3, #0
 1063 000e 0793     		str	r3, [sp, #28]
ARM GAS  C:\Users\andrew\AppData\Local\Temp\ccN9Mpsj.s 			page 36


 293:uECC.c        ****     wordcount_t i;
 294:uECC.c        ****     for (i = num_words - 1; i >= 0; --i) {
 1064              		.loc 2 294 0
 1065 0010 6B46     		mov	r3, sp
 1066 0012 0733     		adds	r3, r3, #7
 1067 0014 1B78     		ldrb	r3, [r3]
 1068 0016 013B     		subs	r3, r3, #1
 1069 0018 DAB2     		uxtb	r2, r3
 1070 001a 1B23     		movs	r3, #27
 1071 001c 6B44     		add	r3, r3, sp
 1072 001e 1A70     		strb	r2, [r3]
 1073 0020 1FE0     		b	.L49
 1074              	.L50:
 1075              	.LBB2:
 295:uECC.c        ****         uECC_word_t l = left[i];
 1076              		.loc 2 295 0 discriminator 3
 1077 0022 1B23     		movs	r3, #27
 1078 0024 6B44     		add	r3, r3, sp
 1079 0026 1B78     		ldrb	r3, [r3]
 1080 0028 5BB2     		sxtb	r3, r3
 1081 002a 9B00     		lsls	r3, r3, #2
 1082 002c 039A     		ldr	r2, [sp, #12]
 1083 002e D318     		adds	r3, r2, r3
 1084 0030 1B68     		ldr	r3, [r3]
 1085 0032 0593     		str	r3, [sp, #20]
 296:uECC.c        ****         uECC_word_t r = right[i];
 1086              		.loc 2 296 0 discriminator 3
 1087 0034 1B23     		movs	r3, #27
 1088 0036 6B44     		add	r3, r3, sp
 1089 0038 1B78     		ldrb	r3, [r3]
 1090 003a 5BB2     		sxtb	r3, r3
 1091 003c 9B00     		lsls	r3, r3, #2
 1092 003e 029A     		ldr	r2, [sp, #8]
 1093 0040 D318     		adds	r3, r2, r3
 1094 0042 1B68     		ldr	r3, [r3]
 1095 0044 0493     		str	r3, [sp, #16]
 297:uECC.c        ****               
 298:uECC.c        ****         diff |= (l ^ r);
 1096              		.loc 2 298 0 discriminator 3
 1097 0046 059A     		ldr	r2, [sp, #20]
 1098 0048 049B     		ldr	r3, [sp, #16]
 1099 004a 5340     		eors	r3, r2
 1100 004c 079A     		ldr	r2, [sp, #28]
 1101 004e 1343     		orrs	r3, r2
 1102 0050 0793     		str	r3, [sp, #28]
 1103              	.LBE2:
 294:uECC.c        ****         uECC_word_t l = left[i];
 1104              		.loc 2 294 0 discriminator 3
 1105 0052 1B23     		movs	r3, #27
 1106 0054 6B44     		add	r3, r3, sp
 1107 0056 1B78     		ldrb	r3, [r3]
 1108 0058 013B     		subs	r3, r3, #1
 1109 005a DAB2     		uxtb	r2, r3
 1110 005c 1B23     		movs	r3, #27
 1111 005e 6B44     		add	r3, r3, sp
 1112 0060 1A70     		strb	r2, [r3]
 1113              	.L49:
ARM GAS  C:\Users\andrew\AppData\Local\Temp\ccN9Mpsj.s 			page 37


 294:uECC.c        ****         uECC_word_t l = left[i];
 1114              		.loc 2 294 0 is_stmt 0 discriminator 1
 1115 0062 1B23     		movs	r3, #27
 1116 0064 6B44     		add	r3, r3, sp
 1117 0066 1B78     		ldrb	r3, [r3]
 1118 0068 7F2B     		cmp	r3, #127
 1119 006a DAD9     		bls	.L50
 299:uECC.c        ****     }
 300:uECC.c        ****     return (diff == 0);
 1120              		.loc 2 300 0 is_stmt 1
 1121 006c 079B     		ldr	r3, [sp, #28]
 1122 006e 5A42     		rsbs	r2, r3, #0
 1123 0070 5341     		adcs	r3, r3, r2
 1124 0072 DBB2     		uxtb	r3, r3
 301:uECC.c        **** }
 1125              		.loc 2 301 0
 1126 0074 1800     		movs	r0, r3
 1127 0076 08B0     		add	sp, sp, #32
 1128              		@ sp needed
 1129 0078 7047     		bx	lr
 1130              		.cfi_endproc
 1131              	.LFE14:
 1132              		.size	uECC_vli_equal, .-uECC_vli_equal
 1133 007a C046     		.section	.text.uECC_vli_cmp,"ax",%progbits
 1134              		.align	2
 1135              		.code	16
 1136              		.thumb_func
 1137              		.type	uECC_vli_cmp, %function
 1138              	uECC_vli_cmp:
 1139              	.LFB15:
 302:uECC.c        **** 
 303:uECC.c        **** uECC_VLI_API uECC_word_t uECC_vli_sub(uECC_word_t *result,
 304:uECC.c        ****                                       const uECC_word_t *left,
 305:uECC.c        ****                                       const uECC_word_t *right,
 306:uECC.c        ****                                       wordcount_t num_words);
 307:uECC.c        **** 
 308:uECC.c        **** /* Returns sign of left - right, in constant time. */
 309:uECC.c        **** uECC_VLI_API cmpresult_t uECC_vli_cmp(const uECC_word_t *left,
 310:uECC.c        ****                                       const uECC_word_t *right,
 311:uECC.c        ****                                       wordcount_t num_words) {
 1140              		.loc 2 311 0
 1141              		.cfi_startproc
 1142              		@ args = 0, pretend = 0, frame = 56
 1143              		@ frame_needed = 0, uses_anonymous_args = 0
 1144 0000 00B5     		push	{lr}
 1145              		.cfi_def_cfa_offset 4
 1146              		.cfi_offset 14, -4
 1147 0002 8FB0     		sub	sp, sp, #60
 1148              		.cfi_def_cfa_offset 64
 1149 0004 0390     		str	r0, [sp, #12]
 1150 0006 0291     		str	r1, [sp, #8]
 1151 0008 6B46     		mov	r3, sp
 1152 000a 0733     		adds	r3, r3, #7
 1153 000c 1A70     		strb	r2, [r3]
 312:uECC.c        ****     uECC_word_t tmp[uECC_MAX_WORDS];
 313:uECC.c        ****     uECC_word_t neg = !!uECC_vli_sub(tmp, left, right, num_words);
 1154              		.loc 2 313 0
ARM GAS  C:\Users\andrew\AppData\Local\Temp\ccN9Mpsj.s 			page 38


 1155 000e 6B46     		mov	r3, sp
 1156 0010 0733     		adds	r3, r3, #7
 1157 0012 1B78     		ldrb	r3, [r3]
 1158 0014 5BB2     		sxtb	r3, r3
 1159 0016 029A     		ldr	r2, [sp, #8]
 1160 0018 0399     		ldr	r1, [sp, #12]
 1161 001a 04A8     		add	r0, sp, #16
 1162 001c FFF7FEFF 		bl	uECC_vli_sub
 1163 0020 0300     		movs	r3, r0
 1164 0022 5A1E     		subs	r2, r3, #1
 1165 0024 9341     		sbcs	r3, r3, r2
 1166 0026 DBB2     		uxtb	r3, r3
 1167 0028 0D93     		str	r3, [sp, #52]
 314:uECC.c        ****     uECC_word_t equal = uECC_vli_isZero(tmp, num_words);
 1168              		.loc 2 314 0
 1169 002a 6B46     		mov	r3, sp
 1170 002c 0733     		adds	r3, r3, #7
 1171 002e 0022     		movs	r2, #0
 1172 0030 9A56     		ldrsb	r2, [r3, r2]
 1173 0032 04AB     		add	r3, sp, #16
 1174 0034 1100     		movs	r1, r2
 1175 0036 1800     		movs	r0, r3
 1176 0038 FFF7FEFF 		bl	uECC_vli_isZero
 1177 003c 0300     		movs	r3, r0
 1178 003e 0C93     		str	r3, [sp, #48]
 315:uECC.c        ****     return (!equal - 2 * neg);
 1179              		.loc 2 315 0
 1180 0040 0C9B     		ldr	r3, [sp, #48]
 1181 0042 5A42     		rsbs	r2, r3, #0
 1182 0044 5341     		adcs	r3, r3, r2
 1183 0046 DBB2     		uxtb	r3, r3
 1184 0048 1A00     		movs	r2, r3
 1185 004a 0D9B     		ldr	r3, [sp, #52]
 1186 004c DBB2     		uxtb	r3, r3
 1187 004e DB18     		adds	r3, r3, r3
 1188 0050 DBB2     		uxtb	r3, r3
 1189 0052 D31A     		subs	r3, r2, r3
 1190 0054 DBB2     		uxtb	r3, r3
 1191 0056 5BB2     		sxtb	r3, r3
 316:uECC.c        **** }
 1192              		.loc 2 316 0
 1193 0058 1800     		movs	r0, r3
 1194 005a 0FB0     		add	sp, sp, #60
 1195              		@ sp needed
 1196 005c 00BD     		pop	{pc}
 1197              		.cfi_endproc
 1198              	.LFE15:
 1199              		.size	uECC_vli_cmp, .-uECC_vli_cmp
 1200 005e C046     		.section	.text.uECC_vli_rshift1,"ax",%progbits
 1201              		.align	2
 1202              		.code	16
 1203              		.thumb_func
 1204              		.type	uECC_vli_rshift1, %function
 1205              	uECC_vli_rshift1:
 1206              	.LFB16:
 317:uECC.c        **** 
 318:uECC.c        **** /* Computes vli = vli >> 1. */
ARM GAS  C:\Users\andrew\AppData\Local\Temp\ccN9Mpsj.s 			page 39


 319:uECC.c        **** #if !asm_rshift1
 320:uECC.c        **** uECC_VLI_API void uECC_vli_rshift1(uECC_word_t *vli, wordcount_t num_words) {
 1207              		.loc 2 320 0
 1208              		.cfi_startproc
 1209              		@ args = 0, pretend = 0, frame = 24
 1210              		@ frame_needed = 0, uses_anonymous_args = 0
 1211              		@ link register save eliminated.
 1212 0000 86B0     		sub	sp, sp, #24
 1213              		.cfi_def_cfa_offset 24
 1214 0002 0190     		str	r0, [sp, #4]
 1215 0004 0A00     		movs	r2, r1
 1216 0006 6B46     		mov	r3, sp
 1217 0008 0333     		adds	r3, r3, #3
 1218 000a 1A70     		strb	r2, [r3]
 321:uECC.c        ****     uECC_word_t *end = vli;
 1219              		.loc 2 321 0
 1220 000c 019B     		ldr	r3, [sp, #4]
 1221 000e 0493     		str	r3, [sp, #16]
 322:uECC.c        ****     uECC_word_t carry = 0;
 1222              		.loc 2 322 0
 1223 0010 0023     		movs	r3, #0
 1224 0012 0593     		str	r3, [sp, #20]
 323:uECC.c        **** 
 324:uECC.c        ****     vli += num_words;
 1225              		.loc 2 324 0
 1226 0014 6B46     		mov	r3, sp
 1227 0016 0333     		adds	r3, r3, #3
 1228 0018 1B78     		ldrb	r3, [r3]
 1229 001a 5BB2     		sxtb	r3, r3
 1230 001c 9B00     		lsls	r3, r3, #2
 1231 001e 019A     		ldr	r2, [sp, #4]
 1232 0020 D318     		adds	r3, r2, r3
 1233 0022 0193     		str	r3, [sp, #4]
 325:uECC.c        ****     while (vli-- > end) {
 1234              		.loc 2 325 0
 1235 0024 0BE0     		b	.L55
 1236              	.L56:
 1237              	.LBB3:
 326:uECC.c        ****         uECC_word_t temp = *vli;
 1238              		.loc 2 326 0
 1239 0026 019B     		ldr	r3, [sp, #4]
 1240 0028 1B68     		ldr	r3, [r3]
 1241 002a 0393     		str	r3, [sp, #12]
 327:uECC.c        ****         *vli = (temp >> 1) | carry;
 1242              		.loc 2 327 0
 1243 002c 039B     		ldr	r3, [sp, #12]
 1244 002e 5A08     		lsrs	r2, r3, #1
 1245 0030 059B     		ldr	r3, [sp, #20]
 1246 0032 1A43     		orrs	r2, r3
 1247 0034 019B     		ldr	r3, [sp, #4]
 1248 0036 1A60     		str	r2, [r3]
 328:uECC.c        ****         carry = temp << (uECC_WORD_BITS - 1);
 1249              		.loc 2 328 0
 1250 0038 039B     		ldr	r3, [sp, #12]
 1251 003a DB07     		lsls	r3, r3, #31
 1252 003c 0593     		str	r3, [sp, #20]
 1253              	.L55:
ARM GAS  C:\Users\andrew\AppData\Local\Temp\ccN9Mpsj.s 			page 40


 1254              	.LBE3:
 325:uECC.c        ****         uECC_word_t temp = *vli;
 1255              		.loc 2 325 0
 1256 003e 019B     		ldr	r3, [sp, #4]
 1257 0040 1A1F     		subs	r2, r3, #4
 1258 0042 0192     		str	r2, [sp, #4]
 1259 0044 049A     		ldr	r2, [sp, #16]
 1260 0046 9342     		cmp	r3, r2
 1261 0048 EDD8     		bhi	.L56
 329:uECC.c        ****     }
 330:uECC.c        **** }
 1262              		.loc 2 330 0
 1263 004a C046     		nop
 1264 004c 06B0     		add	sp, sp, #24
 1265              		@ sp needed
 1266 004e 7047     		bx	lr
 1267              		.cfi_endproc
 1268              	.LFE16:
 1269              		.size	uECC_vli_rshift1, .-uECC_vli_rshift1
 1270              		.section	.text.uECC_vli_modAdd,"ax",%progbits
 1271              		.align	2
 1272              		.code	16
 1273              		.thumb_func
 1274              		.type	uECC_vli_modAdd, %function
 1275              	uECC_vli_modAdd:
 1276              	.LFB17:
 331:uECC.c        **** #endif /* !asm_rshift1 */
 332:uECC.c        **** 
 333:uECC.c        **** /* Computes result = left + right, returning carry. Can modify in place. */
 334:uECC.c        **** #if !asm_add
 335:uECC.c        **** uECC_VLI_API uECC_word_t uECC_vli_add(uECC_word_t *result,
 336:uECC.c        ****                                       const uECC_word_t *left,
 337:uECC.c        ****                                       const uECC_word_t *right,
 338:uECC.c        ****                                       wordcount_t num_words) {
 339:uECC.c        ****     uECC_word_t carry = 0;
 340:uECC.c        ****     wordcount_t i;
 341:uECC.c        ****     for (i = 0; i < num_words; ++i) {
 342:uECC.c        ****         uECC_word_t sum = left[i] + right[i] + carry;
 343:uECC.c        ****         if (sum != left[i]) {
 344:uECC.c        ****             carry = (sum < left[i]);
 345:uECC.c        ****         }
 346:uECC.c        ****         result[i] = sum;
 347:uECC.c        ****     }
 348:uECC.c        ****     return carry;
 349:uECC.c        **** }
 350:uECC.c        **** #endif /* !asm_add */
 351:uECC.c        **** 
 352:uECC.c        **** /* Computes result = left - right, returning borrow. Can modify in place. */
 353:uECC.c        **** #if !asm_sub
 354:uECC.c        **** uECC_VLI_API uECC_word_t uECC_vli_sub(uECC_word_t *result,
 355:uECC.c        ****                                       const uECC_word_t *left,
 356:uECC.c        ****                                       const uECC_word_t *right,
 357:uECC.c        ****                                       wordcount_t num_words) {
 358:uECC.c        ****     uECC_word_t borrow = 0;
 359:uECC.c        ****     wordcount_t i;
 360:uECC.c        ****     for (i = 0; i < num_words; ++i) {
 361:uECC.c        ****         uECC_word_t diff = left[i] - right[i] - borrow;
ARM GAS  C:\Users\andrew\AppData\Local\Temp\ccN9Mpsj.s 			page 41


 362:uECC.c        ****         if (diff != left[i]) {
 363:uECC.c        ****             borrow = (diff > left[i]);
 364:uECC.c        ****         }
 365:uECC.c        ****         result[i] = diff;
 366:uECC.c        ****     }
 367:uECC.c        ****     return borrow;
 368:uECC.c        **** }
 369:uECC.c        **** #endif /* !asm_sub */
 370:uECC.c        **** 
 371:uECC.c        **** #if !asm_mult || (uECC_SQUARE_FUNC && !asm_square) || \
 372:uECC.c        ****     (uECC_SUPPORTS_secp256k1 && (uECC_OPTIMIZATION_LEVEL > 0) && \
 373:uECC.c        ****         ((uECC_WORD_SIZE == 1) || (uECC_WORD_SIZE == 8)))
 374:uECC.c        **** static void muladd(uECC_word_t a,
 375:uECC.c        ****                    uECC_word_t b,
 376:uECC.c        ****                    uECC_word_t *r0,
 377:uECC.c        ****                    uECC_word_t *r1,
 378:uECC.c        ****                    uECC_word_t *r2) {
 379:uECC.c        **** #if uECC_WORD_SIZE == 8 && !SUPPORTS_INT128
 380:uECC.c        ****     uint64_t a0 = a & 0xffffffffull;
 381:uECC.c        ****     uint64_t a1 = a >> 32;
 382:uECC.c        ****     uint64_t b0 = b & 0xffffffffull;
 383:uECC.c        ****     uint64_t b1 = b >> 32;
 384:uECC.c        **** 
 385:uECC.c        ****     uint64_t i0 = a0 * b0;
 386:uECC.c        ****     uint64_t i1 = a0 * b1;
 387:uECC.c        ****     uint64_t i2 = a1 * b0;
 388:uECC.c        ****     uint64_t i3 = a1 * b1;
 389:uECC.c        **** 
 390:uECC.c        ****     uint64_t p0, p1;
 391:uECC.c        **** 
 392:uECC.c        ****     i2 += (i0 >> 32);
 393:uECC.c        ****     i2 += i1;
 394:uECC.c        ****     if (i2 < i1) { /* overflow */
 395:uECC.c        ****         i3 += 0x100000000ull;
 396:uECC.c        ****     }
 397:uECC.c        **** 
 398:uECC.c        ****     p0 = (i0 & 0xffffffffull) | (i2 << 32);
 399:uECC.c        ****     p1 = i3 + (i2 >> 32);
 400:uECC.c        **** 
 401:uECC.c        ****     *r0 += p0;
 402:uECC.c        ****     *r1 += (p1 + (*r0 < p0));
 403:uECC.c        ****     *r2 += ((*r1 < p1) || (*r1 == p1 && *r0 < p0));
 404:uECC.c        **** #else
 405:uECC.c        ****     uECC_dword_t p = (uECC_dword_t)a * b;
 406:uECC.c        ****     uECC_dword_t r01 = ((uECC_dword_t)(*r1) << uECC_WORD_BITS) | *r0;
 407:uECC.c        ****     r01 += p;
 408:uECC.c        ****     *r2 += (r01 < p);
 409:uECC.c        ****     *r1 = r01 >> uECC_WORD_BITS;
 410:uECC.c        ****     *r0 = (uECC_word_t)r01;
 411:uECC.c        **** #endif
 412:uECC.c        **** }
 413:uECC.c        **** #endif /* muladd needed */
 414:uECC.c        **** 
 415:uECC.c        **** #if !asm_mult
 416:uECC.c        **** uECC_VLI_API void uECC_vli_mult(uECC_word_t *result,
 417:uECC.c        ****                                 const uECC_word_t *left,
 418:uECC.c        ****                                 const uECC_word_t *right,
ARM GAS  C:\Users\andrew\AppData\Local\Temp\ccN9Mpsj.s 			page 42


 419:uECC.c        ****                                 wordcount_t num_words) {
 420:uECC.c        ****     uECC_word_t r0 = 0;
 421:uECC.c        ****     uECC_word_t r1 = 0;
 422:uECC.c        ****     uECC_word_t r2 = 0;
 423:uECC.c        ****     wordcount_t i, k;
 424:uECC.c        **** 
 425:uECC.c        ****     /* Compute each digit of result in sequence, maintaining the carries. */
 426:uECC.c        ****     for (k = 0; k < num_words; ++k) {
 427:uECC.c        ****         for (i = 0; i <= k; ++i) {
 428:uECC.c        ****             muladd(left[i], right[k - i], &r0, &r1, &r2);
 429:uECC.c        ****         }
 430:uECC.c        ****         result[k] = r0;
 431:uECC.c        ****         r0 = r1;
 432:uECC.c        ****         r1 = r2;
 433:uECC.c        ****         r2 = 0;
 434:uECC.c        ****     }
 435:uECC.c        ****     for (k = num_words; k < num_words * 2 - 1; ++k) {
 436:uECC.c        ****         for (i = (k + 1) - num_words; i < num_words; ++i) {
 437:uECC.c        ****             muladd(left[i], right[k - i], &r0, &r1, &r2);
 438:uECC.c        ****         }
 439:uECC.c        ****         result[k] = r0;
 440:uECC.c        ****         r0 = r1;
 441:uECC.c        ****         r1 = r2;
 442:uECC.c        ****         r2 = 0;
 443:uECC.c        ****     }
 444:uECC.c        ****     result[num_words * 2 - 1] = r0;
 445:uECC.c        **** }
 446:uECC.c        **** #endif /* !asm_mult */
 447:uECC.c        **** 
 448:uECC.c        **** #if uECC_SQUARE_FUNC
 449:uECC.c        **** 
 450:uECC.c        **** #if !asm_square
 451:uECC.c        **** static void mul2add(uECC_word_t a,
 452:uECC.c        ****                     uECC_word_t b,
 453:uECC.c        ****                     uECC_word_t *r0,
 454:uECC.c        ****                     uECC_word_t *r1,
 455:uECC.c        ****                     uECC_word_t *r2) {
 456:uECC.c        **** #if uECC_WORD_SIZE == 8 && !SUPPORTS_INT128
 457:uECC.c        ****     uint64_t a0 = a & 0xffffffffull;
 458:uECC.c        ****     uint64_t a1 = a >> 32;
 459:uECC.c        ****     uint64_t b0 = b & 0xffffffffull;
 460:uECC.c        ****     uint64_t b1 = b >> 32;
 461:uECC.c        **** 
 462:uECC.c        ****     uint64_t i0 = a0 * b0;
 463:uECC.c        ****     uint64_t i1 = a0 * b1;
 464:uECC.c        ****     uint64_t i2 = a1 * b0;
 465:uECC.c        ****     uint64_t i3 = a1 * b1;
 466:uECC.c        **** 
 467:uECC.c        ****     uint64_t p0, p1;
 468:uECC.c        **** 
 469:uECC.c        ****     i2 += (i0 >> 32);
 470:uECC.c        ****     i2 += i1;
 471:uECC.c        ****     if (i2 < i1)
 472:uECC.c        ****     { /* overflow */
 473:uECC.c        ****         i3 += 0x100000000ull;
 474:uECC.c        ****     }
 475:uECC.c        **** 
ARM GAS  C:\Users\andrew\AppData\Local\Temp\ccN9Mpsj.s 			page 43


 476:uECC.c        ****     p0 = (i0 & 0xffffffffull) | (i2 << 32);
 477:uECC.c        ****     p1 = i3 + (i2 >> 32);
 478:uECC.c        **** 
 479:uECC.c        ****     *r2 += (p1 >> 63);
 480:uECC.c        ****     p1 = (p1 << 1) | (p0 >> 63);
 481:uECC.c        ****     p0 <<= 1;
 482:uECC.c        **** 
 483:uECC.c        ****     *r0 += p0;
 484:uECC.c        ****     *r1 += (p1 + (*r0 < p0));
 485:uECC.c        ****     *r2 += ((*r1 < p1) || (*r1 == p1 && *r0 < p0));
 486:uECC.c        **** #else
 487:uECC.c        ****     uECC_dword_t p = (uECC_dword_t)a * b;
 488:uECC.c        ****     uECC_dword_t r01 = ((uECC_dword_t)(*r1) << uECC_WORD_BITS) | *r0;
 489:uECC.c        ****     *r2 += (p >> (uECC_WORD_BITS * 2 - 1));
 490:uECC.c        ****     p *= 2;
 491:uECC.c        ****     r01 += p;
 492:uECC.c        ****     *r2 += (r01 < p);
 493:uECC.c        ****     *r1 = r01 >> uECC_WORD_BITS;
 494:uECC.c        ****     *r0 = (uECC_word_t)r01;
 495:uECC.c        **** #endif
 496:uECC.c        **** }
 497:uECC.c        **** 
 498:uECC.c        **** uECC_VLI_API void uECC_vli_square(uECC_word_t *result,
 499:uECC.c        ****                                   const uECC_word_t *left,
 500:uECC.c        ****                                   wordcount_t num_words) {
 501:uECC.c        ****     uECC_word_t r0 = 0;
 502:uECC.c        ****     uECC_word_t r1 = 0;
 503:uECC.c        ****     uECC_word_t r2 = 0;
 504:uECC.c        **** 
 505:uECC.c        ****     wordcount_t i, k;
 506:uECC.c        **** 
 507:uECC.c        ****     for (k = 0; k < num_words * 2 - 1; ++k) {
 508:uECC.c        ****         uECC_word_t min = (k < num_words ? 0 : (k + 1) - num_words);
 509:uECC.c        ****         for (i = min; i <= k && i <= k - i; ++i) {
 510:uECC.c        ****             if (i < k-i) {
 511:uECC.c        ****                 mul2add(left[i], left[k - i], &r0, &r1, &r2);
 512:uECC.c        ****             } else {
 513:uECC.c        ****                 muladd(left[i], left[k - i], &r0, &r1, &r2);
 514:uECC.c        ****             }
 515:uECC.c        ****         }
 516:uECC.c        ****         result[k] = r0;
 517:uECC.c        ****         r0 = r1;
 518:uECC.c        ****         r1 = r2;
 519:uECC.c        ****         r2 = 0;
 520:uECC.c        ****     }
 521:uECC.c        **** 
 522:uECC.c        ****     result[num_words * 2 - 1] = r0;
 523:uECC.c        **** }
 524:uECC.c        **** #endif /* !asm_square */
 525:uECC.c        **** 
 526:uECC.c        **** #else /* uECC_SQUARE_FUNC */
 527:uECC.c        **** 
 528:uECC.c        **** #if uECC_ENABLE_VLI_API
 529:uECC.c        **** uECC_VLI_API void uECC_vli_square(uECC_word_t *result,
 530:uECC.c        ****                                   const uECC_word_t *left,
 531:uECC.c        ****                                   wordcount_t num_words) {
 532:uECC.c        ****     uECC_vli_mult(result, left, left, num_words);
ARM GAS  C:\Users\andrew\AppData\Local\Temp\ccN9Mpsj.s 			page 44


 533:uECC.c        **** }
 534:uECC.c        **** #endif /* uECC_ENABLE_VLI_API */
 535:uECC.c        **** 
 536:uECC.c        **** #endif /* uECC_SQUARE_FUNC */
 537:uECC.c        **** 
 538:uECC.c        **** /* Computes result = (left + right) % mod.
 539:uECC.c        ****    Assumes that left < mod and right < mod, and that result does not overlap mod. */
 540:uECC.c        **** uECC_VLI_API void uECC_vli_modAdd(uECC_word_t *result,
 541:uECC.c        ****                                   const uECC_word_t *left,
 542:uECC.c        ****                                   const uECC_word_t *right,
 543:uECC.c        ****                                   const uECC_word_t *mod,
 544:uECC.c        ****                                   wordcount_t num_words) {
 1277              		.loc 2 544 0
 1278              		.cfi_startproc
 1279              		@ args = 4, pretend = 0, frame = 24
 1280              		@ frame_needed = 0, uses_anonymous_args = 0
 1281 0000 00B5     		push	{lr}
 1282              		.cfi_def_cfa_offset 4
 1283              		.cfi_offset 14, -4
 1284 0002 87B0     		sub	sp, sp, #28
 1285              		.cfi_def_cfa_offset 32
 1286 0004 0390     		str	r0, [sp, #12]
 1287 0006 0291     		str	r1, [sp, #8]
 1288 0008 0192     		str	r2, [sp, #4]
 1289 000a 0093     		str	r3, [sp]
 545:uECC.c        ****     uECC_word_t carry = uECC_vli_add(result, left, right, num_words);
 1290              		.loc 2 545 0
 1291 000c 08AB     		add	r3, sp, #32
 1292 000e 1B78     		ldrb	r3, [r3]
 1293 0010 5BB2     		sxtb	r3, r3
 1294 0012 019A     		ldr	r2, [sp, #4]
 1295 0014 0299     		ldr	r1, [sp, #8]
 1296 0016 0398     		ldr	r0, [sp, #12]
 1297 0018 FFF7FEFF 		bl	uECC_vli_add
 1298 001c 0300     		movs	r3, r0
 1299 001e 0593     		str	r3, [sp, #20]
 546:uECC.c        ****     if (carry || uECC_vli_cmp_unsafe(mod, result, num_words) != 1) {
 1300              		.loc 2 546 0
 1301 0020 059B     		ldr	r3, [sp, #20]
 1302 0022 002B     		cmp	r3, #0
 1303 0024 0AD1     		bne	.L58
 1304              		.loc 2 546 0 is_stmt 0 discriminator 1
 1305 0026 08AB     		add	r3, sp, #32
 1306 0028 0022     		movs	r2, #0
 1307 002a 9A56     		ldrsb	r2, [r3, r2]
 1308 002c 0399     		ldr	r1, [sp, #12]
 1309 002e 009B     		ldr	r3, [sp]
 1310 0030 1800     		movs	r0, r3
 1311 0032 FFF7FEFF 		bl	uECC_vli_cmp_unsafe
 1312 0036 0300     		movs	r3, r0
 1313 0038 012B     		cmp	r3, #1
 1314 003a 07D0     		beq	.L60
 1315              	.L58:
 547:uECC.c        ****         /* result > mod (result = mod + remainder), so subtract mod to get remainder. */
 548:uECC.c        ****         uECC_vli_sub(result, result, mod, num_words);
 1316              		.loc 2 548 0 is_stmt 1
 1317 003c 08AB     		add	r3, sp, #32
ARM GAS  C:\Users\andrew\AppData\Local\Temp\ccN9Mpsj.s 			page 45


 1318 003e 1B78     		ldrb	r3, [r3]
 1319 0040 5BB2     		sxtb	r3, r3
 1320 0042 009A     		ldr	r2, [sp]
 1321 0044 0399     		ldr	r1, [sp, #12]
 1322 0046 0398     		ldr	r0, [sp, #12]
 1323 0048 FFF7FEFF 		bl	uECC_vli_sub
 1324              	.L60:
 549:uECC.c        ****     }
 550:uECC.c        **** }
 1325              		.loc 2 550 0
 1326 004c C046     		nop
 1327 004e 07B0     		add	sp, sp, #28
 1328              		@ sp needed
 1329 0050 00BD     		pop	{pc}
 1330              		.cfi_endproc
 1331              	.LFE17:
 1332              		.size	uECC_vli_modAdd, .-uECC_vli_modAdd
 1333 0052 C046     		.section	.text.uECC_vli_modSub,"ax",%progbits
 1334              		.align	2
 1335              		.code	16
 1336              		.thumb_func
 1337              		.type	uECC_vli_modSub, %function
 1338              	uECC_vli_modSub:
 1339              	.LFB18:
 551:uECC.c        **** 
 552:uECC.c        **** /* Computes result = (left - right) % mod.
 553:uECC.c        ****    Assumes that left < mod and right < mod, and that result does not overlap mod. */
 554:uECC.c        **** uECC_VLI_API void uECC_vli_modSub(uECC_word_t *result,
 555:uECC.c        ****                                   const uECC_word_t *left,
 556:uECC.c        ****                                   const uECC_word_t *right,
 557:uECC.c        ****                                   const uECC_word_t *mod,
 558:uECC.c        ****                                   wordcount_t num_words) {
 1340              		.loc 2 558 0
 1341              		.cfi_startproc
 1342              		@ args = 4, pretend = 0, frame = 24
 1343              		@ frame_needed = 0, uses_anonymous_args = 0
 1344 0000 00B5     		push	{lr}
 1345              		.cfi_def_cfa_offset 4
 1346              		.cfi_offset 14, -4
 1347 0002 87B0     		sub	sp, sp, #28
 1348              		.cfi_def_cfa_offset 32
 1349 0004 0390     		str	r0, [sp, #12]
 1350 0006 0291     		str	r1, [sp, #8]
 1351 0008 0192     		str	r2, [sp, #4]
 1352 000a 0093     		str	r3, [sp]
 559:uECC.c        ****     uECC_word_t l_borrow = uECC_vli_sub(result, left, right, num_words);
 1353              		.loc 2 559 0
 1354 000c 08AB     		add	r3, sp, #32
 1355 000e 1B78     		ldrb	r3, [r3]
 1356 0010 5BB2     		sxtb	r3, r3
 1357 0012 019A     		ldr	r2, [sp, #4]
 1358 0014 0299     		ldr	r1, [sp, #8]
 1359 0016 0398     		ldr	r0, [sp, #12]
 1360 0018 FFF7FEFF 		bl	uECC_vli_sub
 1361 001c 0300     		movs	r3, r0
 1362 001e 0593     		str	r3, [sp, #20]
 560:uECC.c        ****     if (l_borrow) {
ARM GAS  C:\Users\andrew\AppData\Local\Temp\ccN9Mpsj.s 			page 46


 1363              		.loc 2 560 0
 1364 0020 059B     		ldr	r3, [sp, #20]
 1365 0022 002B     		cmp	r3, #0
 1366 0024 07D0     		beq	.L63
 561:uECC.c        ****         /* In this case, result == -diff == (max int) - diff. Since -x % d == d - x,
 562:uECC.c        ****            we can get the correct result from result + mod (with overflow). */
 563:uECC.c        ****         uECC_vli_add(result, result, mod, num_words);
 1367              		.loc 2 563 0
 1368 0026 08AB     		add	r3, sp, #32
 1369 0028 1B78     		ldrb	r3, [r3]
 1370 002a 5BB2     		sxtb	r3, r3
 1371 002c 009A     		ldr	r2, [sp]
 1372 002e 0399     		ldr	r1, [sp, #12]
 1373 0030 0398     		ldr	r0, [sp, #12]
 1374 0032 FFF7FEFF 		bl	uECC_vli_add
 1375              	.L63:
 564:uECC.c        ****     }
 565:uECC.c        **** }
 1376              		.loc 2 565 0
 1377 0036 C046     		nop
 1378 0038 07B0     		add	sp, sp, #28
 1379              		@ sp needed
 1380 003a 00BD     		pop	{pc}
 1381              		.cfi_endproc
 1382              	.LFE18:
 1383              		.size	uECC_vli_modSub, .-uECC_vli_modSub
 1384              		.section	.text.uECC_vli_mmod,"ax",%progbits
 1385              		.align	2
 1386              		.code	16
 1387              		.thumb_func
 1388              		.type	uECC_vli_mmod, %function
 1389              	uECC_vli_mmod:
 1390              	.LFB19:
 566:uECC.c        **** 
 567:uECC.c        **** /* Computes result = product % mod, where product is 2N words long. */
 568:uECC.c        **** /* Currently only designed to work for curve_p or curve_n. */
 569:uECC.c        **** uECC_VLI_API void uECC_vli_mmod(uECC_word_t *result,
 570:uECC.c        ****                                 uECC_word_t *product,
 571:uECC.c        ****                                 const uECC_word_t *mod,
 572:uECC.c        ****                                 wordcount_t num_words) {
 1391              		.loc 2 572 0
 1392              		.cfi_startproc
 1393              		@ args = 0, pretend = 0, frame = 176
 1394              		@ frame_needed = 0, uses_anonymous_args = 0
 1395 0000 10B5     		push	{r4, lr}
 1396              		.cfi_def_cfa_offset 8
 1397              		.cfi_offset 4, -8
 1398              		.cfi_offset 14, -4
 1399 0002 ACB0     		sub	sp, sp, #176
 1400              		.cfi_def_cfa_offset 184
 1401 0004 0390     		str	r0, [sp, #12]
 1402 0006 0291     		str	r1, [sp, #8]
 1403 0008 0192     		str	r2, [sp, #4]
 1404 000a 1A00     		movs	r2, r3
 1405 000c 6B46     		mov	r3, sp
 1406 000e 0333     		adds	r3, r3, #3
 1407 0010 1A70     		strb	r2, [r3]
ARM GAS  C:\Users\andrew\AppData\Local\Temp\ccN9Mpsj.s 			page 47


 573:uECC.c        ****     uECC_word_t mod_multiple[2 * uECC_MAX_WORDS];
 574:uECC.c        ****     uECC_word_t tmp[2 * uECC_MAX_WORDS];
 575:uECC.c        ****     uECC_word_t *v[2] = {tmp, product};
 1408              		.loc 2 575 0
 1409 0012 04AB     		add	r3, sp, #16
 1410 0014 06AA     		add	r2, sp, #24
 1411 0016 1A60     		str	r2, [r3]
 1412 0018 04AB     		add	r3, sp, #16
 1413 001a 029A     		ldr	r2, [sp, #8]
 1414 001c 5A60     		str	r2, [r3, #4]
 576:uECC.c        ****     uECC_word_t index;
 577:uECC.c        **** 
 578:uECC.c        ****     /* Shift mod so its highest set bit is at the maximum position. */
 579:uECC.c        ****     bitcount_t shift = (num_words * 2 * uECC_WORD_BITS) - uECC_vli_numBits(mod, num_words);
 1415              		.loc 2 579 0
 1416 001e 6B46     		mov	r3, sp
 1417 0020 0333     		adds	r3, r3, #3
 1418 0022 1B78     		ldrb	r3, [r3]
 1419 0024 5BB2     		sxtb	r3, r3
 1420 0026 9BB2     		uxth	r3, r3
 1421 0028 9B01     		lsls	r3, r3, #6
 1422 002a 9CB2     		uxth	r4, r3
 1423 002c 6B46     		mov	r3, sp
 1424 002e 0333     		adds	r3, r3, #3
 1425 0030 0022     		movs	r2, #0
 1426 0032 9A56     		ldrsb	r2, [r3, r2]
 1427 0034 019B     		ldr	r3, [sp, #4]
 1428 0036 1100     		movs	r1, r2
 1429 0038 1800     		movs	r0, r3
 1430 003a FFF7FEFF 		bl	uECC_vli_numBits
 1431 003e 0300     		movs	r3, r0
 1432 0040 9BB2     		uxth	r3, r3
 1433 0042 E31A     		subs	r3, r4, r3
 1434 0044 9AB2     		uxth	r2, r3
 1435 0046 AA23     		movs	r3, #170
 1436 0048 6B44     		add	r3, r3, sp
 1437 004a 1A80     		strh	r2, [r3]
 580:uECC.c        ****     wordcount_t word_shift = shift / uECC_WORD_BITS;
 1438              		.loc 2 580 0
 1439 004c AA23     		movs	r3, #170
 1440 004e 6B44     		add	r3, r3, sp
 1441 0050 0022     		movs	r2, #0
 1442 0052 9B5E     		ldrsh	r3, [r3, r2]
 1443 0054 002B     		cmp	r3, #0
 1444 0056 00DA     		bge	.L65
 1445 0058 1F33     		adds	r3, r3, #31
 1446              	.L65:
 1447 005a 5B11     		asrs	r3, r3, #5
 1448 005c 1AB2     		sxth	r2, r3
 1449 005e 9E23     		movs	r3, #158
 1450 0060 6B44     		add	r3, r3, sp
 1451 0062 1A70     		strb	r2, [r3]
 581:uECC.c        ****     wordcount_t bit_shift = shift % uECC_WORD_BITS;
 1452              		.loc 2 581 0
 1453 0064 AA23     		movs	r3, #170
 1454 0066 6B44     		add	r3, r3, sp
 1455 0068 0022     		movs	r2, #0
ARM GAS  C:\Users\andrew\AppData\Local\Temp\ccN9Mpsj.s 			page 48


 1456 006a 9B5E     		ldrsh	r3, [r3, r2]
 1457 006c 894A     		ldr	r2, .L76
 1458 006e 1340     		ands	r3, r2
 1459 0070 04D5     		bpl	.L66
 1460 0072 013B     		subs	r3, r3, #1
 1461 0074 2022     		movs	r2, #32
 1462 0076 5242     		rsbs	r2, r2, #0
 1463 0078 1343     		orrs	r3, r2
 1464 007a 0133     		adds	r3, r3, #1
 1465              	.L66:
 1466 007c 1AB2     		sxth	r2, r3
 1467 007e 9D23     		movs	r3, #157
 1468 0080 6B44     		add	r3, r3, sp
 1469 0082 1A70     		strb	r2, [r3]
 582:uECC.c        ****     uECC_word_t carry = 0;
 1470              		.loc 2 582 0
 1471 0084 0023     		movs	r3, #0
 1472 0086 2993     		str	r3, [sp, #164]
 583:uECC.c        ****     uECC_vli_clear(mod_multiple, word_shift);
 1473              		.loc 2 583 0
 1474 0088 9E23     		movs	r3, #158
 1475 008a 6B44     		add	r3, r3, sp
 1476 008c 0022     		movs	r2, #0
 1477 008e 9A56     		ldrsb	r2, [r3, r2]
 1478 0090 16AB     		add	r3, sp, #88
 1479 0092 1100     		movs	r1, r2
 1480 0094 1800     		movs	r0, r3
 1481 0096 FFF7FEFF 		bl	uECC_vli_clear
 584:uECC.c        ****     if (bit_shift > 0) {
 1482              		.loc 2 584 0
 1483 009a 9D23     		movs	r3, #157
 1484 009c 6B44     		add	r3, r3, sp
 1485 009e 1B78     		ldrb	r3, [r3]
 1486 00a0 5BB2     		sxtb	r3, r3
 1487 00a2 002B     		cmp	r3, #0
 1488 00a4 30DD     		ble	.L67
 585:uECC.c        ****         for(index = 0; index < (uECC_word_t)num_words; ++index) {
 1489              		.loc 2 585 0
 1490 00a6 0023     		movs	r3, #0
 1491 00a8 2B93     		str	r3, [sp, #172]
 1492 00aa 25E0     		b	.L68
 1493              	.L69:
 586:uECC.c        ****             mod_multiple[word_shift + index] = (mod[index] << bit_shift) | carry;
 1494              		.loc 2 586 0 discriminator 3
 1495 00ac 9E23     		movs	r3, #158
 1496 00ae 6B44     		add	r3, r3, sp
 1497 00b0 0022     		movs	r2, #0
 1498 00b2 9A56     		ldrsb	r2, [r3, r2]
 1499 00b4 2B9B     		ldr	r3, [sp, #172]
 1500 00b6 D218     		adds	r2, r2, r3
 1501 00b8 2B9B     		ldr	r3, [sp, #172]
 1502 00ba 9B00     		lsls	r3, r3, #2
 1503 00bc 0199     		ldr	r1, [sp, #4]
 1504 00be CB18     		adds	r3, r1, r3
 1505 00c0 1968     		ldr	r1, [r3]
 1506 00c2 9D23     		movs	r3, #157
 1507 00c4 6B44     		add	r3, r3, sp
ARM GAS  C:\Users\andrew\AppData\Local\Temp\ccN9Mpsj.s 			page 49


 1508 00c6 1B78     		ldrb	r3, [r3]
 1509 00c8 5BB2     		sxtb	r3, r3
 1510 00ca 9940     		lsls	r1, r1, r3
 1511 00cc 299B     		ldr	r3, [sp, #164]
 1512 00ce 1943     		orrs	r1, r3
 1513 00d0 16AB     		add	r3, sp, #88
 1514 00d2 9200     		lsls	r2, r2, #2
 1515 00d4 D150     		str	r1, [r2, r3]
 587:uECC.c        ****             carry = mod[index] >> (uECC_WORD_BITS - bit_shift);
 1516              		.loc 2 587 0 discriminator 3
 1517 00d6 2B9B     		ldr	r3, [sp, #172]
 1518 00d8 9B00     		lsls	r3, r3, #2
 1519 00da 019A     		ldr	r2, [sp, #4]
 1520 00dc D318     		adds	r3, r2, r3
 1521 00de 1A68     		ldr	r2, [r3]
 1522 00e0 9D23     		movs	r3, #157
 1523 00e2 6B44     		add	r3, r3, sp
 1524 00e4 1B78     		ldrb	r3, [r3]
 1525 00e6 5BB2     		sxtb	r3, r3
 1526 00e8 2021     		movs	r1, #32
 1527 00ea CB1A     		subs	r3, r1, r3
 1528 00ec DA40     		lsrs	r2, r2, r3
 1529 00ee 1300     		movs	r3, r2
 1530 00f0 2993     		str	r3, [sp, #164]
 585:uECC.c        ****         for(index = 0; index < (uECC_word_t)num_words; ++index) {
 1531              		.loc 2 585 0 discriminator 3
 1532 00f2 2B9B     		ldr	r3, [sp, #172]
 1533 00f4 0133     		adds	r3, r3, #1
 1534 00f6 2B93     		str	r3, [sp, #172]
 1535              	.L68:
 585:uECC.c        ****         for(index = 0; index < (uECC_word_t)num_words; ++index) {
 1536              		.loc 2 585 0 is_stmt 0 discriminator 1
 1537 00f8 6B46     		mov	r3, sp
 1538 00fa 0333     		adds	r3, r3, #3
 1539 00fc 0022     		movs	r2, #0
 1540 00fe 9A56     		ldrsb	r2, [r3, r2]
 1541 0100 2B9B     		ldr	r3, [sp, #172]
 1542 0102 9A42     		cmp	r2, r3
 1543 0104 D2D8     		bhi	.L69
 1544 0106 0EE0     		b	.L70
 1545              	.L67:
 588:uECC.c        ****         }
 589:uECC.c        ****     } else {
 590:uECC.c        ****         uECC_vli_set(mod_multiple + word_shift, mod, num_words);
 1546              		.loc 2 590 0 is_stmt 1
 1547 0108 9E23     		movs	r3, #158
 1548 010a 6B44     		add	r3, r3, sp
 1549 010c 1B78     		ldrb	r3, [r3]
 1550 010e 5BB2     		sxtb	r3, r3
 1551 0110 9B00     		lsls	r3, r3, #2
 1552 0112 16AA     		add	r2, sp, #88
 1553 0114 D018     		adds	r0, r2, r3
 1554 0116 6B46     		mov	r3, sp
 1555 0118 0333     		adds	r3, r3, #3
 1556 011a 0022     		movs	r2, #0
 1557 011c 9A56     		ldrsb	r2, [r3, r2]
 1558 011e 019B     		ldr	r3, [sp, #4]
ARM GAS  C:\Users\andrew\AppData\Local\Temp\ccN9Mpsj.s 			page 50


 1559 0120 1900     		movs	r1, r3
 1560 0122 FFF7FEFF 		bl	uECC_vli_set
 1561              	.L70:
 591:uECC.c        ****     }
 592:uECC.c        **** 
 593:uECC.c        ****     for (index = 1; shift >= 0; --shift) {
 1562              		.loc 2 593 0
 1563 0126 0123     		movs	r3, #1
 1564 0128 2B93     		str	r3, [sp, #172]
 1565 012a 9CE0     		b	.L71
 1566              	.L75:
 1567              	.LBB4:
 594:uECC.c        ****         uECC_word_t borrow = 0;
 1568              		.loc 2 594 0
 1569 012c 0023     		movs	r3, #0
 1570 012e 2893     		str	r3, [sp, #160]
 595:uECC.c        ****         wordcount_t i;
 596:uECC.c        ****         for (i = 0; i < num_words * 2; ++i) {
 1571              		.loc 2 596 0
 1572 0130 9F23     		movs	r3, #159
 1573 0132 6B44     		add	r3, r3, sp
 1574 0134 0022     		movs	r2, #0
 1575 0136 1A70     		strb	r2, [r3]
 1576 0138 4AE0     		b	.L72
 1577              	.L74:
 1578              	.LBB5:
 597:uECC.c        ****             uECC_word_t diff = v[index][i] - mod_multiple[i] - borrow;
 1579              		.loc 2 597 0
 1580 013a 04AB     		add	r3, sp, #16
 1581 013c 2B9A     		ldr	r2, [sp, #172]
 1582 013e 9200     		lsls	r2, r2, #2
 1583 0140 D258     		ldr	r2, [r2, r3]
 1584 0142 9F23     		movs	r3, #159
 1585 0144 6B44     		add	r3, r3, sp
 1586 0146 1B78     		ldrb	r3, [r3]
 1587 0148 5BB2     		sxtb	r3, r3
 1588 014a 9B00     		lsls	r3, r3, #2
 1589 014c D318     		adds	r3, r2, r3
 1590 014e 1A68     		ldr	r2, [r3]
 1591 0150 9F23     		movs	r3, #159
 1592 0152 6B44     		add	r3, r3, sp
 1593 0154 0021     		movs	r1, #0
 1594 0156 5956     		ldrsb	r1, [r3, r1]
 1595 0158 16AB     		add	r3, sp, #88
 1596 015a 8900     		lsls	r1, r1, #2
 1597 015c CB58     		ldr	r3, [r1, r3]
 1598 015e D21A     		subs	r2, r2, r3
 1599 0160 289B     		ldr	r3, [sp, #160]
 1600 0162 D31A     		subs	r3, r2, r3
 1601 0164 2693     		str	r3, [sp, #152]
 598:uECC.c        ****             if (diff != v[index][i]) {
 1602              		.loc 2 598 0
 1603 0166 04AB     		add	r3, sp, #16
 1604 0168 2B9A     		ldr	r2, [sp, #172]
 1605 016a 9200     		lsls	r2, r2, #2
 1606 016c D258     		ldr	r2, [r2, r3]
 1607 016e 9F23     		movs	r3, #159
ARM GAS  C:\Users\andrew\AppData\Local\Temp\ccN9Mpsj.s 			page 51


 1608 0170 6B44     		add	r3, r3, sp
 1609 0172 1B78     		ldrb	r3, [r3]
 1610 0174 5BB2     		sxtb	r3, r3
 1611 0176 9B00     		lsls	r3, r3, #2
 1612 0178 D318     		adds	r3, r2, r3
 1613 017a 1A68     		ldr	r2, [r3]
 1614 017c 269B     		ldr	r3, [sp, #152]
 1615 017e 9A42     		cmp	r2, r3
 1616 0180 10D0     		beq	.L73
 599:uECC.c        ****                 borrow = (diff > v[index][i]);
 1617              		.loc 2 599 0
 1618 0182 04AB     		add	r3, sp, #16
 1619 0184 2B9A     		ldr	r2, [sp, #172]
 1620 0186 9200     		lsls	r2, r2, #2
 1621 0188 D258     		ldr	r2, [r2, r3]
 1622 018a 9F23     		movs	r3, #159
 1623 018c 6B44     		add	r3, r3, sp
 1624 018e 1B78     		ldrb	r3, [r3]
 1625 0190 5BB2     		sxtb	r3, r3
 1626 0192 9B00     		lsls	r3, r3, #2
 1627 0194 D318     		adds	r3, r2, r3
 1628 0196 1A68     		ldr	r2, [r3]
 1629 0198 269B     		ldr	r3, [sp, #152]
 1630 019a 9A42     		cmp	r2, r3
 1631 019c 9B41     		sbcs	r3, r3, r3
 1632 019e 5B42     		rsbs	r3, r3, #0
 1633 01a0 DBB2     		uxtb	r3, r3
 1634 01a2 2893     		str	r3, [sp, #160]
 1635              	.L73:
 600:uECC.c        ****             }
 601:uECC.c        ****             v[1 - index][i] = diff;
 1636              		.loc 2 601 0 discriminator 2
 1637 01a4 2B9B     		ldr	r3, [sp, #172]
 1638 01a6 0122     		movs	r2, #1
 1639 01a8 D21A     		subs	r2, r2, r3
 1640 01aa 04AB     		add	r3, sp, #16
 1641 01ac 9200     		lsls	r2, r2, #2
 1642 01ae D258     		ldr	r2, [r2, r3]
 1643 01b0 9F23     		movs	r3, #159
 1644 01b2 6B44     		add	r3, r3, sp
 1645 01b4 1B78     		ldrb	r3, [r3]
 1646 01b6 5BB2     		sxtb	r3, r3
 1647 01b8 9B00     		lsls	r3, r3, #2
 1648 01ba D318     		adds	r3, r2, r3
 1649 01bc 269A     		ldr	r2, [sp, #152]
 1650 01be 1A60     		str	r2, [r3]
 1651              	.LBE5:
 596:uECC.c        ****             uECC_word_t diff = v[index][i] - mod_multiple[i] - borrow;
 1652              		.loc 2 596 0 discriminator 2
 1653 01c0 9F23     		movs	r3, #159
 1654 01c2 6B44     		add	r3, r3, sp
 1655 01c4 1B78     		ldrb	r3, [r3]
 1656 01c6 0133     		adds	r3, r3, #1
 1657 01c8 DAB2     		uxtb	r2, r3
 1658 01ca 9F23     		movs	r3, #159
 1659 01cc 6B44     		add	r3, r3, sp
 1660 01ce 1A70     		strb	r2, [r3]
ARM GAS  C:\Users\andrew\AppData\Local\Temp\ccN9Mpsj.s 			page 52


 1661              	.L72:
 596:uECC.c        ****             uECC_word_t diff = v[index][i] - mod_multiple[i] - borrow;
 1662              		.loc 2 596 0 is_stmt 0 discriminator 1
 1663 01d0 9F23     		movs	r3, #159
 1664 01d2 6B44     		add	r3, r3, sp
 1665 01d4 0022     		movs	r2, #0
 1666 01d6 9A56     		ldrsb	r2, [r3, r2]
 1667 01d8 6B46     		mov	r3, sp
 1668 01da 0333     		adds	r3, r3, #3
 1669 01dc 1B78     		ldrb	r3, [r3]
 1670 01de 5BB2     		sxtb	r3, r3
 1671 01e0 5B00     		lsls	r3, r3, #1
 1672 01e2 9A42     		cmp	r2, r3
 1673 01e4 A9DB     		blt	.L74
 602:uECC.c        ****         }
 603:uECC.c        ****         index = !(index ^ borrow); /* Swap the index if there was no borrow */
 1674              		.loc 2 603 0 is_stmt 1 discriminator 2
 1675 01e6 2B9A     		ldr	r2, [sp, #172]
 1676 01e8 289B     		ldr	r3, [sp, #160]
 1677 01ea D31A     		subs	r3, r2, r3
 1678 01ec 5A42     		rsbs	r2, r3, #0
 1679 01ee 5341     		adcs	r3, r3, r2
 1680 01f0 DBB2     		uxtb	r3, r3
 1681 01f2 2B93     		str	r3, [sp, #172]
 604:uECC.c        ****         uECC_vli_rshift1(mod_multiple, num_words);
 1682              		.loc 2 604 0 discriminator 2
 1683 01f4 6B46     		mov	r3, sp
 1684 01f6 0333     		adds	r3, r3, #3
 1685 01f8 0022     		movs	r2, #0
 1686 01fa 9A56     		ldrsb	r2, [r3, r2]
 1687 01fc 16AB     		add	r3, sp, #88
 1688 01fe 1100     		movs	r1, r2
 1689 0200 1800     		movs	r0, r3
 1690 0202 FFF7FEFF 		bl	uECC_vli_rshift1
 605:uECC.c        ****         mod_multiple[num_words - 1] |= mod_multiple[num_words] << (uECC_WORD_BITS - 1);
 1691              		.loc 2 605 0 discriminator 2
 1692 0206 6B46     		mov	r3, sp
 1693 0208 0333     		adds	r3, r3, #3
 1694 020a 1B78     		ldrb	r3, [r3]
 1695 020c 5BB2     		sxtb	r3, r3
 1696 020e 5A1E     		subs	r2, r3, #1
 1697 0210 6B46     		mov	r3, sp
 1698 0212 0333     		adds	r3, r3, #3
 1699 0214 1B78     		ldrb	r3, [r3]
 1700 0216 5BB2     		sxtb	r3, r3
 1701 0218 591E     		subs	r1, r3, #1
 1702 021a 16AB     		add	r3, sp, #88
 1703 021c 8900     		lsls	r1, r1, #2
 1704 021e C958     		ldr	r1, [r1, r3]
 1705 0220 6B46     		mov	r3, sp
 1706 0222 0333     		adds	r3, r3, #3
 1707 0224 0020     		movs	r0, #0
 1708 0226 1856     		ldrsb	r0, [r3, r0]
 1709 0228 16AB     		add	r3, sp, #88
 1710 022a 8000     		lsls	r0, r0, #2
 1711 022c C358     		ldr	r3, [r0, r3]
 1712 022e DB07     		lsls	r3, r3, #31
ARM GAS  C:\Users\andrew\AppData\Local\Temp\ccN9Mpsj.s 			page 53


 1713 0230 1943     		orrs	r1, r3
 1714 0232 16AB     		add	r3, sp, #88
 1715 0234 9200     		lsls	r2, r2, #2
 1716 0236 D150     		str	r1, [r2, r3]
 606:uECC.c        ****         uECC_vli_rshift1(mod_multiple + num_words, num_words);
 1717              		.loc 2 606 0 discriminator 2
 1718 0238 6B46     		mov	r3, sp
 1719 023a 0333     		adds	r3, r3, #3
 1720 023c 1B78     		ldrb	r3, [r3]
 1721 023e 5BB2     		sxtb	r3, r3
 1722 0240 9B00     		lsls	r3, r3, #2
 1723 0242 16AA     		add	r2, sp, #88
 1724 0244 D218     		adds	r2, r2, r3
 1725 0246 6B46     		mov	r3, sp
 1726 0248 0333     		adds	r3, r3, #3
 1727 024a 1B78     		ldrb	r3, [r3]
 1728 024c 5BB2     		sxtb	r3, r3
 1729 024e 1900     		movs	r1, r3
 1730 0250 1000     		movs	r0, r2
 1731 0252 FFF7FEFF 		bl	uECC_vli_rshift1
 1732              	.LBE4:
 593:uECC.c        ****         uECC_word_t borrow = 0;
 1733              		.loc 2 593 0 discriminator 2
 1734 0256 AA23     		movs	r3, #170
 1735 0258 6B44     		add	r3, r3, sp
 1736 025a 1B88     		ldrh	r3, [r3]
 1737 025c 013B     		subs	r3, r3, #1
 1738 025e 9AB2     		uxth	r2, r3
 1739 0260 AA23     		movs	r3, #170
 1740 0262 6B44     		add	r3, r3, sp
 1741 0264 1A80     		strh	r2, [r3]
 1742              	.L71:
 593:uECC.c        ****         uECC_word_t borrow = 0;
 1743              		.loc 2 593 0 is_stmt 0 discriminator 1
 1744 0266 AA23     		movs	r3, #170
 1745 0268 6B44     		add	r3, r3, sp
 1746 026a 0022     		movs	r2, #0
 1747 026c 9B5E     		ldrsh	r3, [r3, r2]
 1748 026e 002B     		cmp	r3, #0
 1749 0270 00DB     		blt	.LCB1379
 1750 0272 5BE7     		b	.L75	@long jump
 1751              	.LCB1379:
 607:uECC.c        ****     }
 608:uECC.c        ****     uECC_vli_set(result, v[index], num_words);
 1752              		.loc 2 608 0 is_stmt 1
 1753 0274 04AB     		add	r3, sp, #16
 1754 0276 2B9A     		ldr	r2, [sp, #172]
 1755 0278 9200     		lsls	r2, r2, #2
 1756 027a D158     		ldr	r1, [r2, r3]
 1757 027c 6B46     		mov	r3, sp
 1758 027e 0333     		adds	r3, r3, #3
 1759 0280 0022     		movs	r2, #0
 1760 0282 9A56     		ldrsb	r2, [r3, r2]
 1761 0284 039B     		ldr	r3, [sp, #12]
 1762 0286 1800     		movs	r0, r3
 1763 0288 FFF7FEFF 		bl	uECC_vli_set
 609:uECC.c        **** }
ARM GAS  C:\Users\andrew\AppData\Local\Temp\ccN9Mpsj.s 			page 54


 1764              		.loc 2 609 0
 1765 028c C046     		nop
 1766 028e 2CB0     		add	sp, sp, #176
 1767              		@ sp needed
 1768 0290 10BD     		pop	{r4, pc}
 1769              	.L77:
 1770 0292 C046     		.align	2
 1771              	.L76:
 1772 0294 1F000080 		.word	-2147483617
 1773              		.cfi_endproc
 1774              	.LFE19:
 1775              		.size	uECC_vli_mmod, .-uECC_vli_mmod
 1776              		.section	.text.uECC_vli_modMult,"ax",%progbits
 1777              		.align	2
 1778              		.code	16
 1779              		.thumb_func
 1780              		.type	uECC_vli_modMult, %function
 1781              	uECC_vli_modMult:
 1782              	.LFB20:
 610:uECC.c        **** 
 611:uECC.c        **** /* Computes result = (left * right) % mod. */
 612:uECC.c        **** uECC_VLI_API void uECC_vli_modMult(uECC_word_t *result,
 613:uECC.c        ****                                    const uECC_word_t *left,
 614:uECC.c        ****                                    const uECC_word_t *right,
 615:uECC.c        ****                                    const uECC_word_t *mod,
 616:uECC.c        ****                                    wordcount_t num_words) {
 1783              		.loc 2 616 0
 1784              		.cfi_startproc
 1785              		@ args = 4, pretend = 0, frame = 80
 1786              		@ frame_needed = 0, uses_anonymous_args = 0
 1787 0000 00B5     		push	{lr}
 1788              		.cfi_def_cfa_offset 4
 1789              		.cfi_offset 14, -4
 1790 0002 95B0     		sub	sp, sp, #84
 1791              		.cfi_def_cfa_offset 88
 1792 0004 0390     		str	r0, [sp, #12]
 1793 0006 0291     		str	r1, [sp, #8]
 1794 0008 0192     		str	r2, [sp, #4]
 1795 000a 0093     		str	r3, [sp]
 617:uECC.c        ****     uECC_word_t product[2 * uECC_MAX_WORDS];
 618:uECC.c        ****     uECC_vli_mult(product, left, right, num_words);
 1796              		.loc 2 618 0
 1797 000c 16AB     		add	r3, sp, #88
 1798 000e 1B78     		ldrb	r3, [r3]
 1799 0010 5BB2     		sxtb	r3, r3
 1800 0012 019A     		ldr	r2, [sp, #4]
 1801 0014 0299     		ldr	r1, [sp, #8]
 1802 0016 04A8     		add	r0, sp, #16
 1803 0018 FFF7FEFF 		bl	uECC_vli_mult
 619:uECC.c        ****     uECC_vli_mmod(result, product, mod, num_words);
 1804              		.loc 2 619 0
 1805 001c 16AB     		add	r3, sp, #88
 1806 001e 1B78     		ldrb	r3, [r3]
 1807 0020 5BB2     		sxtb	r3, r3
 1808 0022 009A     		ldr	r2, [sp]
 1809 0024 04A9     		add	r1, sp, #16
 1810 0026 0398     		ldr	r0, [sp, #12]
ARM GAS  C:\Users\andrew\AppData\Local\Temp\ccN9Mpsj.s 			page 55


 1811 0028 FFF7FEFF 		bl	uECC_vli_mmod
 620:uECC.c        **** }
 1812              		.loc 2 620 0
 1813 002c C046     		nop
 1814 002e 15B0     		add	sp, sp, #84
 1815              		@ sp needed
 1816 0030 00BD     		pop	{pc}
 1817              		.cfi_endproc
 1818              	.LFE20:
 1819              		.size	uECC_vli_modMult, .-uECC_vli_modMult
 1820 0032 C046     		.section	.text.uECC_vli_modMult_fast,"ax",%progbits
 1821              		.align	2
 1822              		.code	16
 1823              		.thumb_func
 1824              		.type	uECC_vli_modMult_fast, %function
 1825              	uECC_vli_modMult_fast:
 1826              	.LFB21:
 621:uECC.c        **** 
 622:uECC.c        **** uECC_VLI_API void uECC_vli_modMult_fast(uECC_word_t *result,
 623:uECC.c        ****                                         const uECC_word_t *left,
 624:uECC.c        ****                                         const uECC_word_t *right,
 625:uECC.c        ****                                         uECC_Curve curve) {
 1827              		.loc 2 625 0
 1828              		.cfi_startproc
 1829              		@ args = 0, pretend = 0, frame = 80
 1830              		@ frame_needed = 0, uses_anonymous_args = 0
 1831 0000 00B5     		push	{lr}
 1832              		.cfi_def_cfa_offset 4
 1833              		.cfi_offset 14, -4
 1834 0002 95B0     		sub	sp, sp, #84
 1835              		.cfi_def_cfa_offset 88
 1836 0004 0390     		str	r0, [sp, #12]
 1837 0006 0291     		str	r1, [sp, #8]
 1838 0008 0192     		str	r2, [sp, #4]
 1839 000a 0093     		str	r3, [sp]
 626:uECC.c        ****     uECC_word_t product[2 * uECC_MAX_WORDS];
 627:uECC.c        ****     uECC_vli_mult(product, left, right, curve->num_words);
 1840              		.loc 2 627 0
 1841 000c 009B     		ldr	r3, [sp]
 1842 000e 1B78     		ldrb	r3, [r3]
 1843 0010 5BB2     		sxtb	r3, r3
 1844 0012 019A     		ldr	r2, [sp, #4]
 1845 0014 0299     		ldr	r1, [sp, #8]
 1846 0016 04A8     		add	r0, sp, #16
 1847 0018 FFF7FEFF 		bl	uECC_vli_mult
 628:uECC.c        **** #if (uECC_OPTIMIZATION_LEVEL > 0)
 629:uECC.c        ****     curve->mmod_fast(result, product);
 1848              		.loc 2 629 0
 1849 001c 009B     		ldr	r3, [sp]
 1850 001e B022     		movs	r2, #176
 1851 0020 9B58     		ldr	r3, [r3, r2]
 1852 0022 04A9     		add	r1, sp, #16
 1853 0024 039A     		ldr	r2, [sp, #12]
 1854 0026 1000     		movs	r0, r2
 1855 0028 9847     		blx	r3
 630:uECC.c        **** #else
 631:uECC.c        ****     uECC_vli_mmod(result, product, curve->p, curve->num_words);
ARM GAS  C:\Users\andrew\AppData\Local\Temp\ccN9Mpsj.s 			page 56


 632:uECC.c        **** #endif
 633:uECC.c        **** }
 1856              		.loc 2 633 0
 1857 002a C046     		nop
 1858 002c 15B0     		add	sp, sp, #84
 1859              		@ sp needed
 1860 002e 00BD     		pop	{pc}
 1861              		.cfi_endproc
 1862              	.LFE21:
 1863              		.size	uECC_vli_modMult_fast, .-uECC_vli_modMult_fast
 1864              		.section	.text.uECC_vli_modSquare_fast,"ax",%progbits
 1865              		.align	2
 1866              		.code	16
 1867              		.thumb_func
 1868              		.type	uECC_vli_modSquare_fast, %function
 1869              	uECC_vli_modSquare_fast:
 1870              	.LFB22:
 634:uECC.c        **** 
 635:uECC.c        **** #if uECC_SQUARE_FUNC
 636:uECC.c        **** 
 637:uECC.c        **** #if uECC_ENABLE_VLI_API
 638:uECC.c        **** /* Computes result = left^2 % mod. */
 639:uECC.c        **** uECC_VLI_API void uECC_vli_modSquare(uECC_word_t *result,
 640:uECC.c        ****                                      const uECC_word_t *left,
 641:uECC.c        ****                                      const uECC_word_t *mod,
 642:uECC.c        ****                                      wordcount_t num_words) {
 643:uECC.c        ****     uECC_word_t product[2 * uECC_MAX_WORDS];
 644:uECC.c        ****     uECC_vli_square(product, left, num_words);
 645:uECC.c        ****     uECC_vli_mmod(result, product, mod, num_words);
 646:uECC.c        **** }
 647:uECC.c        **** #endif /* uECC_ENABLE_VLI_API */
 648:uECC.c        **** 
 649:uECC.c        **** uECC_VLI_API void uECC_vli_modSquare_fast(uECC_word_t *result,
 650:uECC.c        ****                                           const uECC_word_t *left,
 651:uECC.c        ****                                           uECC_Curve curve) {
 652:uECC.c        ****     uECC_word_t product[2 * uECC_MAX_WORDS];
 653:uECC.c        ****     uECC_vli_square(product, left, curve->num_words);
 654:uECC.c        **** #if (uECC_OPTIMIZATION_LEVEL > 0)
 655:uECC.c        ****     curve->mmod_fast(result, product);
 656:uECC.c        **** #else
 657:uECC.c        ****     uECC_vli_mmod(result, product, curve->p, curve->num_words);
 658:uECC.c        **** #endif
 659:uECC.c        **** }
 660:uECC.c        **** 
 661:uECC.c        **** #else /* uECC_SQUARE_FUNC */
 662:uECC.c        **** 
 663:uECC.c        **** #if uECC_ENABLE_VLI_API
 664:uECC.c        **** uECC_VLI_API void uECC_vli_modSquare(uECC_word_t *result,
 665:uECC.c        ****                                      const uECC_word_t *left,
 666:uECC.c        ****                                      const uECC_word_t *mod,
 667:uECC.c        ****                                      wordcount_t num_words) {
 668:uECC.c        ****     uECC_vli_modMult(result, left, left, mod, num_words);
 669:uECC.c        **** }
 670:uECC.c        **** #endif /* uECC_ENABLE_VLI_API */
 671:uECC.c        **** 
 672:uECC.c        **** uECC_VLI_API void uECC_vli_modSquare_fast(uECC_word_t *result,
 673:uECC.c        ****                                           const uECC_word_t *left,
ARM GAS  C:\Users\andrew\AppData\Local\Temp\ccN9Mpsj.s 			page 57


 674:uECC.c        ****                                           uECC_Curve curve) {
 1871              		.loc 2 674 0
 1872              		.cfi_startproc
 1873              		@ args = 0, pretend = 0, frame = 16
 1874              		@ frame_needed = 0, uses_anonymous_args = 0
 1875 0000 00B5     		push	{lr}
 1876              		.cfi_def_cfa_offset 4
 1877              		.cfi_offset 14, -4
 1878 0002 85B0     		sub	sp, sp, #20
 1879              		.cfi_def_cfa_offset 24
 1880 0004 0390     		str	r0, [sp, #12]
 1881 0006 0291     		str	r1, [sp, #8]
 1882 0008 0192     		str	r2, [sp, #4]
 675:uECC.c        ****     uECC_vli_modMult_fast(result, left, left, curve);
 1883              		.loc 2 675 0
 1884 000a 019B     		ldr	r3, [sp, #4]
 1885 000c 029A     		ldr	r2, [sp, #8]
 1886 000e 0299     		ldr	r1, [sp, #8]
 1887 0010 0398     		ldr	r0, [sp, #12]
 1888 0012 FFF7FEFF 		bl	uECC_vli_modMult_fast
 676:uECC.c        **** }
 1889              		.loc 2 676 0
 1890 0016 C046     		nop
 1891 0018 05B0     		add	sp, sp, #20
 1892              		@ sp needed
 1893 001a 00BD     		pop	{pc}
 1894              		.cfi_endproc
 1895              	.LFE22:
 1896              		.size	uECC_vli_modSquare_fast, .-uECC_vli_modSquare_fast
 1897              		.section	.text.vli_modInv_update,"ax",%progbits
 1898              		.align	2
 1899              		.code	16
 1900              		.thumb_func
 1901              		.type	vli_modInv_update, %function
 1902              	vli_modInv_update:
 1903              	.LFB23:
 677:uECC.c        **** 
 678:uECC.c        **** #endif /* uECC_SQUARE_FUNC */
 679:uECC.c        **** 
 680:uECC.c        **** #define EVEN(vli) (!(vli[0] & 1))
 681:uECC.c        **** static void vli_modInv_update(uECC_word_t *uv,
 682:uECC.c        ****                               const uECC_word_t *mod,
 683:uECC.c        ****                               wordcount_t num_words) {
 1904              		.loc 2 683 0
 1905              		.cfi_startproc
 1906              		@ args = 0, pretend = 0, frame = 24
 1907              		@ frame_needed = 0, uses_anonymous_args = 0
 1908 0000 00B5     		push	{lr}
 1909              		.cfi_def_cfa_offset 4
 1910              		.cfi_offset 14, -4
 1911 0002 87B0     		sub	sp, sp, #28
 1912              		.cfi_def_cfa_offset 32
 1913 0004 0390     		str	r0, [sp, #12]
 1914 0006 0291     		str	r1, [sp, #8]
 1915 0008 6B46     		mov	r3, sp
 1916 000a 0733     		adds	r3, r3, #7
 1917 000c 1A70     		strb	r2, [r3]
ARM GAS  C:\Users\andrew\AppData\Local\Temp\ccN9Mpsj.s 			page 58


 684:uECC.c        ****     uECC_word_t carry = 0;
 1918              		.loc 2 684 0
 1919 000e 0023     		movs	r3, #0
 1920 0010 0593     		str	r3, [sp, #20]
 685:uECC.c        ****     if (!EVEN(uv)) {
 1921              		.loc 2 685 0
 1922 0012 039B     		ldr	r3, [sp, #12]
 1923 0014 1B68     		ldr	r3, [r3]
 1924 0016 0122     		movs	r2, #1
 1925 0018 1340     		ands	r3, r2
 1926 001a 0AD0     		beq	.L82
 686:uECC.c        ****         carry = uECC_vli_add(uv, uv, mod, num_words);
 1927              		.loc 2 686 0
 1928 001c 6B46     		mov	r3, sp
 1929 001e 0733     		adds	r3, r3, #7
 1930 0020 1B78     		ldrb	r3, [r3]
 1931 0022 5BB2     		sxtb	r3, r3
 1932 0024 029A     		ldr	r2, [sp, #8]
 1933 0026 0399     		ldr	r1, [sp, #12]
 1934 0028 0398     		ldr	r0, [sp, #12]
 1935 002a FFF7FEFF 		bl	uECC_vli_add
 1936 002e 0300     		movs	r3, r0
 1937 0030 0593     		str	r3, [sp, #20]
 1938              	.L82:
 687:uECC.c        ****     }
 688:uECC.c        ****     uECC_vli_rshift1(uv, num_words);
 1939              		.loc 2 688 0
 1940 0032 6B46     		mov	r3, sp
 1941 0034 0733     		adds	r3, r3, #7
 1942 0036 0022     		movs	r2, #0
 1943 0038 9A56     		ldrsb	r2, [r3, r2]
 1944 003a 039B     		ldr	r3, [sp, #12]
 1945 003c 1100     		movs	r1, r2
 1946 003e 1800     		movs	r0, r3
 1947 0040 FFF7FEFF 		bl	uECC_vli_rshift1
 689:uECC.c        ****     if (carry) {
 1948              		.loc 2 689 0
 1949 0044 059B     		ldr	r3, [sp, #20]
 1950 0046 002B     		cmp	r3, #0
 1951 0048 18D0     		beq	.L84
 690:uECC.c        ****         uv[num_words - 1] |= HIGH_BIT_SET;
 1952              		.loc 2 690 0
 1953 004a 6B46     		mov	r3, sp
 1954 004c 0733     		adds	r3, r3, #7
 1955 004e 1B78     		ldrb	r3, [r3]
 1956 0050 5BB2     		sxtb	r3, r3
 1957 0052 0C4A     		ldr	r2, .L85
 1958 0054 9446     		mov	ip, r2
 1959 0056 6344     		add	r3, r3, ip
 1960 0058 9B00     		lsls	r3, r3, #2
 1961 005a 039A     		ldr	r2, [sp, #12]
 1962 005c D318     		adds	r3, r2, r3
 1963 005e 6A46     		mov	r2, sp
 1964 0060 0732     		adds	r2, r2, #7
 1965 0062 1278     		ldrb	r2, [r2]
 1966 0064 52B2     		sxtb	r2, r2
 1967 0066 0749     		ldr	r1, .L85
ARM GAS  C:\Users\andrew\AppData\Local\Temp\ccN9Mpsj.s 			page 59


 1968 0068 8C46     		mov	ip, r1
 1969 006a 6244     		add	r2, r2, ip
 1970 006c 9200     		lsls	r2, r2, #2
 1971 006e 0399     		ldr	r1, [sp, #12]
 1972 0070 8A18     		adds	r2, r1, r2
 1973 0072 1268     		ldr	r2, [r2]
 1974 0074 8021     		movs	r1, #128
 1975 0076 0906     		lsls	r1, r1, #24
 1976 0078 0A43     		orrs	r2, r1
 1977 007a 1A60     		str	r2, [r3]
 1978              	.L84:
 691:uECC.c        ****     }
 692:uECC.c        **** }
 1979              		.loc 2 692 0
 1980 007c C046     		nop
 1981 007e 07B0     		add	sp, sp, #28
 1982              		@ sp needed
 1983 0080 00BD     		pop	{pc}
 1984              	.L86:
 1985 0082 C046     		.align	2
 1986              	.L85:
 1987 0084 FFFFFF3F 		.word	1073741823
 1988              		.cfi_endproc
 1989              	.LFE23:
 1990              		.size	vli_modInv_update, .-vli_modInv_update
 1991              		.section	.text.uECC_vli_modInv,"ax",%progbits
 1992              		.align	2
 1993              		.code	16
 1994              		.thumb_func
 1995              		.type	uECC_vli_modInv, %function
 1996              	uECC_vli_modInv:
 1997              	.LFB24:
 693:uECC.c        **** 
 694:uECC.c        **** /* Computes result = (1 / input) % mod. All VLIs are the same size.
 695:uECC.c        ****    See "From Euclid's GCD to Montgomery Multiplication to the Great Divide" */
 696:uECC.c        **** uECC_VLI_API void uECC_vli_modInv(uECC_word_t *result,
 697:uECC.c        ****                                   const uECC_word_t *input,
 698:uECC.c        ****                                   const uECC_word_t *mod,
 699:uECC.c        ****                                   wordcount_t num_words) {
 1998              		.loc 2 699 0
 1999              		.cfi_startproc
 2000              		@ args = 0, pretend = 0, frame = 152
 2001              		@ frame_needed = 0, uses_anonymous_args = 0
 2002 0000 10B5     		push	{r4, lr}
 2003              		.cfi_def_cfa_offset 8
 2004              		.cfi_offset 4, -8
 2005              		.cfi_offset 14, -4
 2006 0002 A6B0     		sub	sp, sp, #152
 2007              		.cfi_def_cfa_offset 160
 2008 0004 0390     		str	r0, [sp, #12]
 2009 0006 0291     		str	r1, [sp, #8]
 2010 0008 0192     		str	r2, [sp, #4]
 2011 000a 1A00     		movs	r2, r3
 2012 000c 6B46     		mov	r3, sp
 2013 000e 0333     		adds	r3, r3, #3
 2014 0010 1A70     		strb	r2, [r3]
 700:uECC.c        ****     uECC_word_t a[uECC_MAX_WORDS], b[uECC_MAX_WORDS], u[uECC_MAX_WORDS], v[uECC_MAX_WORDS];
ARM GAS  C:\Users\andrew\AppData\Local\Temp\ccN9Mpsj.s 			page 60


 701:uECC.c        ****     cmpresult_t cmpResult;
 702:uECC.c        **** 
 703:uECC.c        ****     if (uECC_vli_isZero(input, num_words)) {
 2015              		.loc 2 703 0
 2016 0012 6B46     		mov	r3, sp
 2017 0014 0333     		adds	r3, r3, #3
 2018 0016 0022     		movs	r2, #0
 2019 0018 9A56     		ldrsb	r2, [r3, r2]
 2020 001a 029B     		ldr	r3, [sp, #8]
 2021 001c 1100     		movs	r1, r2
 2022 001e 1800     		movs	r0, r3
 2023 0020 FFF7FEFF 		bl	uECC_vli_isZero
 2024 0024 031E     		subs	r3, r0, #0
 2025 0026 09D0     		beq	.L88
 704:uECC.c        ****         uECC_vli_clear(result, num_words);
 2026              		.loc 2 704 0
 2027 0028 6B46     		mov	r3, sp
 2028 002a 0333     		adds	r3, r3, #3
 2029 002c 0022     		movs	r2, #0
 2030 002e 9A56     		ldrsb	r2, [r3, r2]
 2031 0030 039B     		ldr	r3, [sp, #12]
 2032 0032 1100     		movs	r1, r2
 2033 0034 1800     		movs	r0, r3
 2034 0036 FFF7FEFF 		bl	uECC_vli_clear
 2035 003a EBE0     		b	.L87
 2036              	.L88:
 705:uECC.c        ****         return;
 706:uECC.c        ****     }
 707:uECC.c        **** 
 708:uECC.c        ****     uECC_vli_set(a, input, num_words);
 2037              		.loc 2 708 0
 2038 003c 6B46     		mov	r3, sp
 2039 003e 0333     		adds	r3, r3, #3
 2040 0040 0022     		movs	r2, #0
 2041 0042 9A56     		ldrsb	r2, [r3, r2]
 2042 0044 0299     		ldr	r1, [sp, #8]
 2043 0046 1DAB     		add	r3, sp, #116
 2044 0048 1800     		movs	r0, r3
 2045 004a FFF7FEFF 		bl	uECC_vli_set
 709:uECC.c        ****     uECC_vli_set(b, mod, num_words);
 2046              		.loc 2 709 0
 2047 004e 6B46     		mov	r3, sp
 2048 0050 0333     		adds	r3, r3, #3
 2049 0052 0022     		movs	r2, #0
 2050 0054 9A56     		ldrsb	r2, [r3, r2]
 2051 0056 0199     		ldr	r1, [sp, #4]
 2052 0058 15AB     		add	r3, sp, #84
 2053 005a 1800     		movs	r0, r3
 2054 005c FFF7FEFF 		bl	uECC_vli_set
 710:uECC.c        ****     uECC_vli_clear(u, num_words);
 2055              		.loc 2 710 0
 2056 0060 6B46     		mov	r3, sp
 2057 0062 0333     		adds	r3, r3, #3
 2058 0064 0022     		movs	r2, #0
 2059 0066 9A56     		ldrsb	r2, [r3, r2]
 2060 0068 0DAB     		add	r3, sp, #52
 2061 006a 1100     		movs	r1, r2
ARM GAS  C:\Users\andrew\AppData\Local\Temp\ccN9Mpsj.s 			page 61


 2062 006c 1800     		movs	r0, r3
 2063 006e FFF7FEFF 		bl	uECC_vli_clear
 711:uECC.c        ****     u[0] = 1;
 2064              		.loc 2 711 0
 2065 0072 0DAB     		add	r3, sp, #52
 2066 0074 0122     		movs	r2, #1
 2067 0076 1A60     		str	r2, [r3]
 712:uECC.c        ****     uECC_vli_clear(v, num_words);
 2068              		.loc 2 712 0
 2069 0078 6B46     		mov	r3, sp
 2070 007a 0333     		adds	r3, r3, #3
 2071 007c 0022     		movs	r2, #0
 2072 007e 9A56     		ldrsb	r2, [r3, r2]
 2073 0080 05AB     		add	r3, sp, #20
 2074 0082 1100     		movs	r1, r2
 2075 0084 1800     		movs	r0, r3
 2076 0086 FFF7FEFF 		bl	uECC_vli_clear
 713:uECC.c        ****     while ((cmpResult = uECC_vli_cmp_unsafe(a, b, num_words)) != 0) {
 2077              		.loc 2 713 0
 2078 008a A6E0     		b	.L90
 2079              	.L96:
 714:uECC.c        ****         if (EVEN(a)) {
 2080              		.loc 2 714 0
 2081 008c 1DAB     		add	r3, sp, #116
 2082 008e 1B68     		ldr	r3, [r3]
 2083 0090 0122     		movs	r2, #1
 2084 0092 1340     		ands	r3, r2
 2085 0094 12D1     		bne	.L91
 715:uECC.c        ****             uECC_vli_rshift1(a, num_words);
 2086              		.loc 2 715 0
 2087 0096 6B46     		mov	r3, sp
 2088 0098 0333     		adds	r3, r3, #3
 2089 009a 0022     		movs	r2, #0
 2090 009c 9A56     		ldrsb	r2, [r3, r2]
 2091 009e 1DAB     		add	r3, sp, #116
 2092 00a0 1100     		movs	r1, r2
 2093 00a2 1800     		movs	r0, r3
 2094 00a4 FFF7FEFF 		bl	uECC_vli_rshift1
 716:uECC.c        ****             vli_modInv_update(u, mod, num_words);
 2095              		.loc 2 716 0
 2096 00a8 6B46     		mov	r3, sp
 2097 00aa 0333     		adds	r3, r3, #3
 2098 00ac 0022     		movs	r2, #0
 2099 00ae 9A56     		ldrsb	r2, [r3, r2]
 2100 00b0 0199     		ldr	r1, [sp, #4]
 2101 00b2 0DAB     		add	r3, sp, #52
 2102 00b4 1800     		movs	r0, r3
 2103 00b6 FFF7FEFF 		bl	vli_modInv_update
 2104 00ba 8EE0     		b	.L90
 2105              	.L91:
 717:uECC.c        ****         } else if (EVEN(b)) {
 2106              		.loc 2 717 0
 2107 00bc 15AB     		add	r3, sp, #84
 2108 00be 1B68     		ldr	r3, [r3]
 2109 00c0 0122     		movs	r2, #1
 2110 00c2 1340     		ands	r3, r2
 2111 00c4 12D1     		bne	.L92
ARM GAS  C:\Users\andrew\AppData\Local\Temp\ccN9Mpsj.s 			page 62


 718:uECC.c        ****             uECC_vli_rshift1(b, num_words);
 2112              		.loc 2 718 0
 2113 00c6 6B46     		mov	r3, sp
 2114 00c8 0333     		adds	r3, r3, #3
 2115 00ca 0022     		movs	r2, #0
 2116 00cc 9A56     		ldrsb	r2, [r3, r2]
 2117 00ce 15AB     		add	r3, sp, #84
 2118 00d0 1100     		movs	r1, r2
 2119 00d2 1800     		movs	r0, r3
 2120 00d4 FFF7FEFF 		bl	uECC_vli_rshift1
 719:uECC.c        ****             vli_modInv_update(v, mod, num_words);
 2121              		.loc 2 719 0
 2122 00d8 6B46     		mov	r3, sp
 2123 00da 0333     		adds	r3, r3, #3
 2124 00dc 0022     		movs	r2, #0
 2125 00de 9A56     		ldrsb	r2, [r3, r2]
 2126 00e0 0199     		ldr	r1, [sp, #4]
 2127 00e2 05AB     		add	r3, sp, #20
 2128 00e4 1800     		movs	r0, r3
 2129 00e6 FFF7FEFF 		bl	vli_modInv_update
 2130 00ea 76E0     		b	.L90
 2131              	.L92:
 720:uECC.c        ****         } else if (cmpResult > 0) {
 2132              		.loc 2 720 0
 2133 00ec 9723     		movs	r3, #151
 2134 00ee 6B44     		add	r3, r3, sp
 2135 00f0 1B78     		ldrb	r3, [r3]
 2136 00f2 5BB2     		sxtb	r3, r3
 2137 00f4 002B     		cmp	r3, #0
 2138 00f6 38DD     		ble	.L93
 721:uECC.c        ****             uECC_vli_sub(a, a, b, num_words);
 2139              		.loc 2 721 0
 2140 00f8 6B46     		mov	r3, sp
 2141 00fa 0333     		adds	r3, r3, #3
 2142 00fc 1B78     		ldrb	r3, [r3]
 2143 00fe 5BB2     		sxtb	r3, r3
 2144 0100 15AA     		add	r2, sp, #84
 2145 0102 1DA9     		add	r1, sp, #116
 2146 0104 1DA8     		add	r0, sp, #116
 2147 0106 FFF7FEFF 		bl	uECC_vli_sub
 722:uECC.c        ****             uECC_vli_rshift1(a, num_words);
 2148              		.loc 2 722 0
 2149 010a 6B46     		mov	r3, sp
 2150 010c 0333     		adds	r3, r3, #3
 2151 010e 0022     		movs	r2, #0
 2152 0110 9A56     		ldrsb	r2, [r3, r2]
 2153 0112 1DAB     		add	r3, sp, #116
 2154 0114 1100     		movs	r1, r2
 2155 0116 1800     		movs	r0, r3
 2156 0118 FFF7FEFF 		bl	uECC_vli_rshift1
 723:uECC.c        ****             if (uECC_vli_cmp_unsafe(u, v, num_words) < 0) {
 2157              		.loc 2 723 0
 2158 011c 6B46     		mov	r3, sp
 2159 011e 0333     		adds	r3, r3, #3
 2160 0120 0022     		movs	r2, #0
 2161 0122 9A56     		ldrsb	r2, [r3, r2]
 2162 0124 05A9     		add	r1, sp, #20
ARM GAS  C:\Users\andrew\AppData\Local\Temp\ccN9Mpsj.s 			page 63


 2163 0126 0DAB     		add	r3, sp, #52
 2164 0128 1800     		movs	r0, r3
 2165 012a FFF7FEFF 		bl	uECC_vli_cmp_unsafe
 2166 012e 031E     		subs	r3, r0, #0
 2167 0130 08DA     		bge	.L94
 724:uECC.c        ****                 uECC_vli_add(u, u, mod, num_words);
 2168              		.loc 2 724 0
 2169 0132 6B46     		mov	r3, sp
 2170 0134 0333     		adds	r3, r3, #3
 2171 0136 1B78     		ldrb	r3, [r3]
 2172 0138 5BB2     		sxtb	r3, r3
 2173 013a 019A     		ldr	r2, [sp, #4]
 2174 013c 0DA9     		add	r1, sp, #52
 2175 013e 0DA8     		add	r0, sp, #52
 2176 0140 FFF7FEFF 		bl	uECC_vli_add
 2177              	.L94:
 725:uECC.c        ****             }
 726:uECC.c        ****             uECC_vli_sub(u, u, v, num_words);
 2178              		.loc 2 726 0
 2179 0144 6B46     		mov	r3, sp
 2180 0146 0333     		adds	r3, r3, #3
 2181 0148 1B78     		ldrb	r3, [r3]
 2182 014a 5BB2     		sxtb	r3, r3
 2183 014c 05AA     		add	r2, sp, #20
 2184 014e 0DA9     		add	r1, sp, #52
 2185 0150 0DA8     		add	r0, sp, #52
 2186 0152 FFF7FEFF 		bl	uECC_vli_sub
 727:uECC.c        ****             vli_modInv_update(u, mod, num_words);
 2187              		.loc 2 727 0
 2188 0156 6B46     		mov	r3, sp
 2189 0158 0333     		adds	r3, r3, #3
 2190 015a 0022     		movs	r2, #0
 2191 015c 9A56     		ldrsb	r2, [r3, r2]
 2192 015e 0199     		ldr	r1, [sp, #4]
 2193 0160 0DAB     		add	r3, sp, #52
 2194 0162 1800     		movs	r0, r3
 2195 0164 FFF7FEFF 		bl	vli_modInv_update
 2196 0168 37E0     		b	.L90
 2197              	.L93:
 728:uECC.c        ****         } else {
 729:uECC.c        ****             uECC_vli_sub(b, b, a, num_words);
 2198              		.loc 2 729 0
 2199 016a 6B46     		mov	r3, sp
 2200 016c 0333     		adds	r3, r3, #3
 2201 016e 1B78     		ldrb	r3, [r3]
 2202 0170 5BB2     		sxtb	r3, r3
 2203 0172 1DAA     		add	r2, sp, #116
 2204 0174 15A9     		add	r1, sp, #84
 2205 0176 15A8     		add	r0, sp, #84
 2206 0178 FFF7FEFF 		bl	uECC_vli_sub
 730:uECC.c        ****             uECC_vli_rshift1(b, num_words);
 2207              		.loc 2 730 0
 2208 017c 6B46     		mov	r3, sp
 2209 017e 0333     		adds	r3, r3, #3
 2210 0180 0022     		movs	r2, #0
 2211 0182 9A56     		ldrsb	r2, [r3, r2]
 2212 0184 15AB     		add	r3, sp, #84
ARM GAS  C:\Users\andrew\AppData\Local\Temp\ccN9Mpsj.s 			page 64


 2213 0186 1100     		movs	r1, r2
 2214 0188 1800     		movs	r0, r3
 2215 018a FFF7FEFF 		bl	uECC_vli_rshift1
 731:uECC.c        ****             if (uECC_vli_cmp_unsafe(v, u, num_words) < 0) {
 2216              		.loc 2 731 0
 2217 018e 6B46     		mov	r3, sp
 2218 0190 0333     		adds	r3, r3, #3
 2219 0192 0022     		movs	r2, #0
 2220 0194 9A56     		ldrsb	r2, [r3, r2]
 2221 0196 0DA9     		add	r1, sp, #52
 2222 0198 05AB     		add	r3, sp, #20
 2223 019a 1800     		movs	r0, r3
 2224 019c FFF7FEFF 		bl	uECC_vli_cmp_unsafe
 2225 01a0 031E     		subs	r3, r0, #0
 2226 01a2 08DA     		bge	.L95
 732:uECC.c        ****                 uECC_vli_add(v, v, mod, num_words);
 2227              		.loc 2 732 0
 2228 01a4 6B46     		mov	r3, sp
 2229 01a6 0333     		adds	r3, r3, #3
 2230 01a8 1B78     		ldrb	r3, [r3]
 2231 01aa 5BB2     		sxtb	r3, r3
 2232 01ac 019A     		ldr	r2, [sp, #4]
 2233 01ae 05A9     		add	r1, sp, #20
 2234 01b0 05A8     		add	r0, sp, #20
 2235 01b2 FFF7FEFF 		bl	uECC_vli_add
 2236              	.L95:
 733:uECC.c        ****             }
 734:uECC.c        ****             uECC_vli_sub(v, v, u, num_words);
 2237              		.loc 2 734 0
 2238 01b6 6B46     		mov	r3, sp
 2239 01b8 0333     		adds	r3, r3, #3
 2240 01ba 1B78     		ldrb	r3, [r3]
 2241 01bc 5BB2     		sxtb	r3, r3
 2242 01be 0DAA     		add	r2, sp, #52
 2243 01c0 05A9     		add	r1, sp, #20
 2244 01c2 05A8     		add	r0, sp, #20
 2245 01c4 FFF7FEFF 		bl	uECC_vli_sub
 735:uECC.c        ****             vli_modInv_update(v, mod, num_words);
 2246              		.loc 2 735 0
 2247 01c8 6B46     		mov	r3, sp
 2248 01ca 0333     		adds	r3, r3, #3
 2249 01cc 0022     		movs	r2, #0
 2250 01ce 9A56     		ldrsb	r2, [r3, r2]
 2251 01d0 0199     		ldr	r1, [sp, #4]
 2252 01d2 05AB     		add	r3, sp, #20
 2253 01d4 1800     		movs	r0, r3
 2254 01d6 FFF7FEFF 		bl	vli_modInv_update
 2255              	.L90:
 713:uECC.c        ****         if (EVEN(a)) {
 2256              		.loc 2 713 0
 2257 01da 9724     		movs	r4, #151
 2258 01dc 6C44     		add	r4, r4, sp
 2259 01de 6B46     		mov	r3, sp
 2260 01e0 0333     		adds	r3, r3, #3
 2261 01e2 0022     		movs	r2, #0
 2262 01e4 9A56     		ldrsb	r2, [r3, r2]
 2263 01e6 15A9     		add	r1, sp, #84
ARM GAS  C:\Users\andrew\AppData\Local\Temp\ccN9Mpsj.s 			page 65


 2264 01e8 1DAB     		add	r3, sp, #116
 2265 01ea 1800     		movs	r0, r3
 2266 01ec FFF7FEFF 		bl	uECC_vli_cmp_unsafe
 2267 01f0 0300     		movs	r3, r0
 2268 01f2 2370     		strb	r3, [r4]
 2269 01f4 9723     		movs	r3, #151
 2270 01f6 6B44     		add	r3, r3, sp
 2271 01f8 1B78     		ldrb	r3, [r3]
 2272 01fa 5BB2     		sxtb	r3, r3
 2273 01fc 002B     		cmp	r3, #0
 2274 01fe 00D0     		beq	.LCB1853
 2275 0200 44E7     		b	.L96	@long jump
 2276              	.LCB1853:
 736:uECC.c        ****         }
 737:uECC.c        ****     }
 738:uECC.c        ****     uECC_vli_set(result, u, num_words);
 2277              		.loc 2 738 0
 2278 0202 6B46     		mov	r3, sp
 2279 0204 0333     		adds	r3, r3, #3
 2280 0206 0022     		movs	r2, #0
 2281 0208 9A56     		ldrsb	r2, [r3, r2]
 2282 020a 0DA9     		add	r1, sp, #52
 2283 020c 039B     		ldr	r3, [sp, #12]
 2284 020e 1800     		movs	r0, r3
 2285 0210 FFF7FEFF 		bl	uECC_vli_set
 2286              	.L87:
 739:uECC.c        **** }
 2287              		.loc 2 739 0
 2288 0214 26B0     		add	sp, sp, #152
 2289              		@ sp needed
 2290 0216 10BD     		pop	{r4, pc}
 2291              		.cfi_endproc
 2292              	.LFE24:
 2293              		.size	uECC_vli_modInv, .-uECC_vli_modInv
 2294              		.section	.text.double_jacobian_default,"ax",%progbits
 2295              		.align	2
 2296              		.code	16
 2297              		.thumb_func
 2298              		.type	double_jacobian_default, %function
 2299              	double_jacobian_default:
 2300              	.LFB25:
 2301              		.file 3 "curve-specific.inc"
   1:curve-specific.inc **** /* Copyright 2015, Kenneth MacKay. Licensed under the BSD 2-clause license. */
   2:curve-specific.inc **** 
   3:curve-specific.inc **** #ifndef _UECC_CURVE_SPECIFIC_H_
   4:curve-specific.inc **** #define _UECC_CURVE_SPECIFIC_H_
   5:curve-specific.inc **** 
   6:curve-specific.inc **** #define num_bytes_secp160r1 20
   7:curve-specific.inc **** #define num_bytes_secp192r1 24
   8:curve-specific.inc **** #define num_bytes_secp224r1 28
   9:curve-specific.inc **** #define num_bytes_secp256r1 32
  10:curve-specific.inc **** #define num_bytes_secp256k1 32
  11:curve-specific.inc **** 
  12:curve-specific.inc **** #if (uECC_WORD_SIZE == 1)
  13:curve-specific.inc **** 
  14:curve-specific.inc **** #define num_words_secp160r1 20
  15:curve-specific.inc **** #define num_words_secp192r1 24
ARM GAS  C:\Users\andrew\AppData\Local\Temp\ccN9Mpsj.s 			page 66


  16:curve-specific.inc **** #define num_words_secp224r1 28
  17:curve-specific.inc **** #define num_words_secp256r1 32
  18:curve-specific.inc **** #define num_words_secp256k1 32
  19:curve-specific.inc **** 
  20:curve-specific.inc **** #define BYTES_TO_WORDS_8(a, b, c, d, e, f, g, h) \
  21:curve-specific.inc ****     0x##a, 0x##b, 0x##c, 0x##d, 0x##e, 0x##f, 0x##g, 0x##h
  22:curve-specific.inc **** #define BYTES_TO_WORDS_4(a, b, c, d) 0x##a, 0x##b, 0x##c, 0x##d
  23:curve-specific.inc **** 
  24:curve-specific.inc **** #elif (uECC_WORD_SIZE == 4)
  25:curve-specific.inc **** 
  26:curve-specific.inc **** #define num_words_secp160r1 5
  27:curve-specific.inc **** #define num_words_secp192r1 6
  28:curve-specific.inc **** #define num_words_secp224r1 7
  29:curve-specific.inc **** #define num_words_secp256r1 8
  30:curve-specific.inc **** #define num_words_secp256k1 8
  31:curve-specific.inc **** 
  32:curve-specific.inc **** #define BYTES_TO_WORDS_8(a, b, c, d, e, f, g, h) 0x##d##c##b##a, 0x##h##g##f##e
  33:curve-specific.inc **** #define BYTES_TO_WORDS_4(a, b, c, d) 0x##d##c##b##a
  34:curve-specific.inc **** 
  35:curve-specific.inc **** #elif (uECC_WORD_SIZE == 8)
  36:curve-specific.inc **** 
  37:curve-specific.inc **** #define num_words_secp160r1 3
  38:curve-specific.inc **** #define num_words_secp192r1 3
  39:curve-specific.inc **** #define num_words_secp224r1 4
  40:curve-specific.inc **** #define num_words_secp256r1 4
  41:curve-specific.inc **** #define num_words_secp256k1 4
  42:curve-specific.inc **** 
  43:curve-specific.inc **** #define BYTES_TO_WORDS_8(a, b, c, d, e, f, g, h) 0x##h##g##f##e##d##c##b##a##ull
  44:curve-specific.inc **** #define BYTES_TO_WORDS_4(a, b, c, d) 0x##d##c##b##a##ull
  45:curve-specific.inc **** 
  46:curve-specific.inc **** #endif /* uECC_WORD_SIZE */
  47:curve-specific.inc **** 
  48:curve-specific.inc **** #if uECC_SUPPORTS_secp160r1 || uECC_SUPPORTS_secp192r1 || \
  49:curve-specific.inc ****     uECC_SUPPORTS_secp224r1 || uECC_SUPPORTS_secp256r1
  50:curve-specific.inc **** static void double_jacobian_default(uECC_word_t * X1,
  51:curve-specific.inc ****                                     uECC_word_t * Y1,
  52:curve-specific.inc ****                                     uECC_word_t * Z1,
  53:curve-specific.inc ****                                     uECC_Curve curve) {
 2302              		.loc 3 53 0
 2303              		.cfi_startproc
 2304              		@ args = 0, pretend = 0, frame = 88
 2305              		@ frame_needed = 0, uses_anonymous_args = 0
 2306 0000 10B5     		push	{r4, lr}
 2307              		.cfi_def_cfa_offset 8
 2308              		.cfi_offset 4, -8
 2309              		.cfi_offset 14, -4
 2310 0002 98B0     		sub	sp, sp, #96
 2311              		.cfi_def_cfa_offset 104
 2312 0004 0590     		str	r0, [sp, #20]
 2313 0006 0491     		str	r1, [sp, #16]
 2314 0008 0392     		str	r2, [sp, #12]
 2315 000a 0293     		str	r3, [sp, #8]
  54:curve-specific.inc ****     /* t1 = X, t2 = Y, t3 = Z */
  55:curve-specific.inc ****     uECC_word_t t4[uECC_MAX_WORDS];
  56:curve-specific.inc ****     uECC_word_t t5[uECC_MAX_WORDS];
  57:curve-specific.inc ****     wordcount_t num_words = curve->num_words;
 2316              		.loc 3 57 0
ARM GAS  C:\Users\andrew\AppData\Local\Temp\ccN9Mpsj.s 			page 67


 2317 000c 5F23     		movs	r3, #95
 2318 000e 6B44     		add	r3, r3, sp
 2319 0010 029A     		ldr	r2, [sp, #8]
 2320 0012 1278     		ldrb	r2, [r2]
 2321 0014 1A70     		strb	r2, [r3]
  58:curve-specific.inc **** 
  59:curve-specific.inc ****     if (uECC_vli_isZero(Z1, num_words)) {
 2322              		.loc 3 59 0
 2323 0016 5F23     		movs	r3, #95
 2324 0018 6B44     		add	r3, r3, sp
 2325 001a 0022     		movs	r2, #0
 2326 001c 9A56     		ldrsb	r2, [r3, r2]
 2327 001e 039B     		ldr	r3, [sp, #12]
 2328 0020 1100     		movs	r1, r2
 2329 0022 1800     		movs	r0, r3
 2330 0024 FFF7FEFF 		bl	uECC_vli_isZero
 2331 0028 031E     		subs	r3, r0, #0
 2332 002a 00D0     		beq	.LCB1901
 2333 002c FFE0     		b	.L102	@long jump
 2334              	.LCB1901:
  60:curve-specific.inc ****         return;
  61:curve-specific.inc ****     }
  62:curve-specific.inc **** 
  63:curve-specific.inc ****     uECC_vli_modSquare_fast(t4, Y1, curve);   /* t4 = y1^2 */
 2335              		.loc 3 63 0
 2336 002e 029A     		ldr	r2, [sp, #8]
 2337 0030 0499     		ldr	r1, [sp, #16]
 2338 0032 0EAB     		add	r3, sp, #56
 2339 0034 1800     		movs	r0, r3
 2340 0036 FFF7FEFF 		bl	uECC_vli_modSquare_fast
  64:curve-specific.inc ****     uECC_vli_modMult_fast(t5, X1, t4, curve); /* t5 = x1*y1^2 = A */
 2341              		.loc 3 64 0
 2342 003a 029B     		ldr	r3, [sp, #8]
 2343 003c 0EAA     		add	r2, sp, #56
 2344 003e 0599     		ldr	r1, [sp, #20]
 2345 0040 06A8     		add	r0, sp, #24
 2346 0042 FFF7FEFF 		bl	uECC_vli_modMult_fast
  65:curve-specific.inc ****     uECC_vli_modSquare_fast(t4, t4, curve);   /* t4 = y1^4 */
 2347              		.loc 3 65 0
 2348 0046 029A     		ldr	r2, [sp, #8]
 2349 0048 0EA9     		add	r1, sp, #56
 2350 004a 0EAB     		add	r3, sp, #56
 2351 004c 1800     		movs	r0, r3
 2352 004e FFF7FEFF 		bl	uECC_vli_modSquare_fast
  66:curve-specific.inc ****     uECC_vli_modMult_fast(Y1, Y1, Z1, curve); /* t2 = y1*z1 = z3 */
 2353              		.loc 3 66 0
 2354 0052 029B     		ldr	r3, [sp, #8]
 2355 0054 039A     		ldr	r2, [sp, #12]
 2356 0056 0499     		ldr	r1, [sp, #16]
 2357 0058 0498     		ldr	r0, [sp, #16]
 2358 005a FFF7FEFF 		bl	uECC_vli_modMult_fast
  67:curve-specific.inc ****     uECC_vli_modSquare_fast(Z1, Z1, curve);   /* t3 = z1^2 */
 2359              		.loc 3 67 0
 2360 005e 029A     		ldr	r2, [sp, #8]
 2361 0060 0399     		ldr	r1, [sp, #12]
 2362 0062 039B     		ldr	r3, [sp, #12]
 2363 0064 1800     		movs	r0, r3
ARM GAS  C:\Users\andrew\AppData\Local\Temp\ccN9Mpsj.s 			page 68


 2364 0066 FFF7FEFF 		bl	uECC_vli_modSquare_fast
  68:curve-specific.inc **** 
  69:curve-specific.inc ****     uECC_vli_modAdd(X1, X1, Z1, curve->p, num_words); /* t1 = x1 + z1^2 */
 2365              		.loc 3 69 0
 2366 006a 029B     		ldr	r3, [sp, #8]
 2367 006c 1C1D     		adds	r4, r3, #4
 2368 006e 039A     		ldr	r2, [sp, #12]
 2369 0070 0599     		ldr	r1, [sp, #20]
 2370 0072 0598     		ldr	r0, [sp, #20]
 2371 0074 5F23     		movs	r3, #95
 2372 0076 6B44     		add	r3, r3, sp
 2373 0078 1B78     		ldrb	r3, [r3]
 2374 007a 5BB2     		sxtb	r3, r3
 2375 007c 0093     		str	r3, [sp]
 2376 007e 2300     		movs	r3, r4
 2377 0080 FFF7FEFF 		bl	uECC_vli_modAdd
  70:curve-specific.inc ****     uECC_vli_modAdd(Z1, Z1, Z1, curve->p, num_words); /* t3 = 2*z1^2 */
 2378              		.loc 3 70 0
 2379 0084 029B     		ldr	r3, [sp, #8]
 2380 0086 1C1D     		adds	r4, r3, #4
 2381 0088 039A     		ldr	r2, [sp, #12]
 2382 008a 0399     		ldr	r1, [sp, #12]
 2383 008c 0398     		ldr	r0, [sp, #12]
 2384 008e 5F23     		movs	r3, #95
 2385 0090 6B44     		add	r3, r3, sp
 2386 0092 1B78     		ldrb	r3, [r3]
 2387 0094 5BB2     		sxtb	r3, r3
 2388 0096 0093     		str	r3, [sp]
 2389 0098 2300     		movs	r3, r4
 2390 009a FFF7FEFF 		bl	uECC_vli_modAdd
  71:curve-specific.inc ****     uECC_vli_modSub(Z1, X1, Z1, curve->p, num_words); /* t3 = x1 - z1^2 */
 2391              		.loc 3 71 0
 2392 009e 029B     		ldr	r3, [sp, #8]
 2393 00a0 1C1D     		adds	r4, r3, #4
 2394 00a2 039A     		ldr	r2, [sp, #12]
 2395 00a4 0599     		ldr	r1, [sp, #20]
 2396 00a6 0398     		ldr	r0, [sp, #12]
 2397 00a8 5F23     		movs	r3, #95
 2398 00aa 6B44     		add	r3, r3, sp
 2399 00ac 1B78     		ldrb	r3, [r3]
 2400 00ae 5BB2     		sxtb	r3, r3
 2401 00b0 0093     		str	r3, [sp]
 2402 00b2 2300     		movs	r3, r4
 2403 00b4 FFF7FEFF 		bl	uECC_vli_modSub
  72:curve-specific.inc ****     uECC_vli_modMult_fast(X1, X1, Z1, curve);                /* t1 = x1^2 - z1^4 */
 2404              		.loc 3 72 0
 2405 00b8 029B     		ldr	r3, [sp, #8]
 2406 00ba 039A     		ldr	r2, [sp, #12]
 2407 00bc 0599     		ldr	r1, [sp, #20]
 2408 00be 0598     		ldr	r0, [sp, #20]
 2409 00c0 FFF7FEFF 		bl	uECC_vli_modMult_fast
  73:curve-specific.inc **** 
  74:curve-specific.inc ****     uECC_vli_modAdd(Z1, X1, X1, curve->p, num_words); /* t3 = 2*(x1^2 - z1^4) */
 2410              		.loc 3 74 0
 2411 00c4 029B     		ldr	r3, [sp, #8]
 2412 00c6 1C1D     		adds	r4, r3, #4
 2413 00c8 059A     		ldr	r2, [sp, #20]
ARM GAS  C:\Users\andrew\AppData\Local\Temp\ccN9Mpsj.s 			page 69


 2414 00ca 0599     		ldr	r1, [sp, #20]
 2415 00cc 0398     		ldr	r0, [sp, #12]
 2416 00ce 5F23     		movs	r3, #95
 2417 00d0 6B44     		add	r3, r3, sp
 2418 00d2 1B78     		ldrb	r3, [r3]
 2419 00d4 5BB2     		sxtb	r3, r3
 2420 00d6 0093     		str	r3, [sp]
 2421 00d8 2300     		movs	r3, r4
 2422 00da FFF7FEFF 		bl	uECC_vli_modAdd
  75:curve-specific.inc ****     uECC_vli_modAdd(X1, X1, Z1, curve->p, num_words); /* t1 = 3*(x1^2 - z1^4) */
 2423              		.loc 3 75 0
 2424 00de 029B     		ldr	r3, [sp, #8]
 2425 00e0 1C1D     		adds	r4, r3, #4
 2426 00e2 039A     		ldr	r2, [sp, #12]
 2427 00e4 0599     		ldr	r1, [sp, #20]
 2428 00e6 0598     		ldr	r0, [sp, #20]
 2429 00e8 5F23     		movs	r3, #95
 2430 00ea 6B44     		add	r3, r3, sp
 2431 00ec 1B78     		ldrb	r3, [r3]
 2432 00ee 5BB2     		sxtb	r3, r3
 2433 00f0 0093     		str	r3, [sp]
 2434 00f2 2300     		movs	r3, r4
 2435 00f4 FFF7FEFF 		bl	uECC_vli_modAdd
  76:curve-specific.inc ****     if (uECC_vli_testBit(X1, 0)) {
 2436              		.loc 3 76 0
 2437 00f8 059B     		ldr	r3, [sp, #20]
 2438 00fa 0021     		movs	r1, #0
 2439 00fc 1800     		movs	r0, r3
 2440 00fe FFF7FEFF 		bl	uECC_vli_testBit
 2441 0102 031E     		subs	r3, r0, #0
 2442 0104 2ED0     		beq	.L100
 2443              	.LBB6:
  77:curve-specific.inc ****         uECC_word_t l_carry = uECC_vli_add(X1, X1, curve->p, num_words);
 2444              		.loc 3 77 0
 2445 0106 029B     		ldr	r3, [sp, #8]
 2446 0108 1A1D     		adds	r2, r3, #4
 2447 010a 5F23     		movs	r3, #95
 2448 010c 6B44     		add	r3, r3, sp
 2449 010e 1B78     		ldrb	r3, [r3]
 2450 0110 5BB2     		sxtb	r3, r3
 2451 0112 0599     		ldr	r1, [sp, #20]
 2452 0114 0598     		ldr	r0, [sp, #20]
 2453 0116 FFF7FEFF 		bl	uECC_vli_add
 2454 011a 0300     		movs	r3, r0
 2455 011c 1693     		str	r3, [sp, #88]
  78:curve-specific.inc ****         uECC_vli_rshift1(X1, num_words);
 2456              		.loc 3 78 0
 2457 011e 5F23     		movs	r3, #95
 2458 0120 6B44     		add	r3, r3, sp
 2459 0122 0022     		movs	r2, #0
 2460 0124 9A56     		ldrsb	r2, [r3, r2]
 2461 0126 059B     		ldr	r3, [sp, #20]
 2462 0128 1100     		movs	r1, r2
 2463 012a 1800     		movs	r0, r3
 2464 012c FFF7FEFF 		bl	uECC_vli_rshift1
  79:curve-specific.inc ****         X1[num_words - 1] |= l_carry << (uECC_WORD_BITS - 1);
 2465              		.loc 3 79 0
ARM GAS  C:\Users\andrew\AppData\Local\Temp\ccN9Mpsj.s 			page 70


 2466 0130 5F23     		movs	r3, #95
 2467 0132 6B44     		add	r3, r3, sp
 2468 0134 1B78     		ldrb	r3, [r3]
 2469 0136 5BB2     		sxtb	r3, r3
 2470 0138 3E4A     		ldr	r2, .L103
 2471 013a 9446     		mov	ip, r2
 2472 013c 6344     		add	r3, r3, ip
 2473 013e 9B00     		lsls	r3, r3, #2
 2474 0140 059A     		ldr	r2, [sp, #20]
 2475 0142 D318     		adds	r3, r2, r3
 2476 0144 5F22     		movs	r2, #95
 2477 0146 6A44     		add	r2, r2, sp
 2478 0148 1278     		ldrb	r2, [r2]
 2479 014a 52B2     		sxtb	r2, r2
 2480 014c 3949     		ldr	r1, .L103
 2481 014e 8C46     		mov	ip, r1
 2482 0150 6244     		add	r2, r2, ip
 2483 0152 9200     		lsls	r2, r2, #2
 2484 0154 0599     		ldr	r1, [sp, #20]
 2485 0156 8A18     		adds	r2, r1, r2
 2486 0158 1168     		ldr	r1, [r2]
 2487 015a 169A     		ldr	r2, [sp, #88]
 2488 015c D207     		lsls	r2, r2, #31
 2489 015e 0A43     		orrs	r2, r1
 2490 0160 1A60     		str	r2, [r3]
 2491              	.LBE6:
 2492 0162 08E0     		b	.L101
 2493              	.L100:
  80:curve-specific.inc ****     } else {
  81:curve-specific.inc ****         uECC_vli_rshift1(X1, num_words);
 2494              		.loc 3 81 0
 2495 0164 5F23     		movs	r3, #95
 2496 0166 6B44     		add	r3, r3, sp
 2497 0168 0022     		movs	r2, #0
 2498 016a 9A56     		ldrsb	r2, [r3, r2]
 2499 016c 059B     		ldr	r3, [sp, #20]
 2500 016e 1100     		movs	r1, r2
 2501 0170 1800     		movs	r0, r3
 2502 0172 FFF7FEFF 		bl	uECC_vli_rshift1
 2503              	.L101:
  82:curve-specific.inc ****     }
  83:curve-specific.inc ****     /* t1 = 3/2*(x1^2 - z1^4) = B */
  84:curve-specific.inc **** 
  85:curve-specific.inc ****     uECC_vli_modSquare_fast(Z1, X1, curve);                  /* t3 = B^2 */
 2504              		.loc 3 85 0
 2505 0176 029A     		ldr	r2, [sp, #8]
 2506 0178 0599     		ldr	r1, [sp, #20]
 2507 017a 039B     		ldr	r3, [sp, #12]
 2508 017c 1800     		movs	r0, r3
 2509 017e FFF7FEFF 		bl	uECC_vli_modSquare_fast
  86:curve-specific.inc ****     uECC_vli_modSub(Z1, Z1, t5, curve->p, num_words); /* t3 = B^2 - A */
 2510              		.loc 3 86 0
 2511 0182 029B     		ldr	r3, [sp, #8]
 2512 0184 1C1D     		adds	r4, r3, #4
 2513 0186 06AA     		add	r2, sp, #24
 2514 0188 0399     		ldr	r1, [sp, #12]
 2515 018a 0398     		ldr	r0, [sp, #12]
ARM GAS  C:\Users\andrew\AppData\Local\Temp\ccN9Mpsj.s 			page 71


 2516 018c 5F23     		movs	r3, #95
 2517 018e 6B44     		add	r3, r3, sp
 2518 0190 1B78     		ldrb	r3, [r3]
 2519 0192 5BB2     		sxtb	r3, r3
 2520 0194 0093     		str	r3, [sp]
 2521 0196 2300     		movs	r3, r4
 2522 0198 FFF7FEFF 		bl	uECC_vli_modSub
  87:curve-specific.inc ****     uECC_vli_modSub(Z1, Z1, t5, curve->p, num_words); /* t3 = B^2 - 2A = x3 */
 2523              		.loc 3 87 0
 2524 019c 029B     		ldr	r3, [sp, #8]
 2525 019e 1C1D     		adds	r4, r3, #4
 2526 01a0 06AA     		add	r2, sp, #24
 2527 01a2 0399     		ldr	r1, [sp, #12]
 2528 01a4 0398     		ldr	r0, [sp, #12]
 2529 01a6 5F23     		movs	r3, #95
 2530 01a8 6B44     		add	r3, r3, sp
 2531 01aa 1B78     		ldrb	r3, [r3]
 2532 01ac 5BB2     		sxtb	r3, r3
 2533 01ae 0093     		str	r3, [sp]
 2534 01b0 2300     		movs	r3, r4
 2535 01b2 FFF7FEFF 		bl	uECC_vli_modSub
  88:curve-specific.inc ****     uECC_vli_modSub(t5, t5, Z1, curve->p, num_words); /* t5 = A - x3 */
 2536              		.loc 3 88 0
 2537 01b6 029B     		ldr	r3, [sp, #8]
 2538 01b8 1C1D     		adds	r4, r3, #4
 2539 01ba 039A     		ldr	r2, [sp, #12]
 2540 01bc 06A9     		add	r1, sp, #24
 2541 01be 06A8     		add	r0, sp, #24
 2542 01c0 5F23     		movs	r3, #95
 2543 01c2 6B44     		add	r3, r3, sp
 2544 01c4 1B78     		ldrb	r3, [r3]
 2545 01c6 5BB2     		sxtb	r3, r3
 2546 01c8 0093     		str	r3, [sp]
 2547 01ca 2300     		movs	r3, r4
 2548 01cc FFF7FEFF 		bl	uECC_vli_modSub
  89:curve-specific.inc ****     uECC_vli_modMult_fast(X1, X1, t5, curve);                /* t1 = B * (A - x3) */
 2549              		.loc 3 89 0
 2550 01d0 029B     		ldr	r3, [sp, #8]
 2551 01d2 06AA     		add	r2, sp, #24
 2552 01d4 0599     		ldr	r1, [sp, #20]
 2553 01d6 0598     		ldr	r0, [sp, #20]
 2554 01d8 FFF7FEFF 		bl	uECC_vli_modMult_fast
  90:curve-specific.inc ****     uECC_vli_modSub(t4, X1, t4, curve->p, num_words); /* t4 = B * (A - x3) - y1^4 = y3 */
 2555              		.loc 3 90 0
 2556 01dc 029B     		ldr	r3, [sp, #8]
 2557 01de 1C1D     		adds	r4, r3, #4
 2558 01e0 0EAA     		add	r2, sp, #56
 2559 01e2 0599     		ldr	r1, [sp, #20]
 2560 01e4 0EA8     		add	r0, sp, #56
 2561 01e6 5F23     		movs	r3, #95
 2562 01e8 6B44     		add	r3, r3, sp
 2563 01ea 1B78     		ldrb	r3, [r3]
 2564 01ec 5BB2     		sxtb	r3, r3
 2565 01ee 0093     		str	r3, [sp]
 2566 01f0 2300     		movs	r3, r4
 2567 01f2 FFF7FEFF 		bl	uECC_vli_modSub
  91:curve-specific.inc **** 
ARM GAS  C:\Users\andrew\AppData\Local\Temp\ccN9Mpsj.s 			page 72


  92:curve-specific.inc ****     uECC_vli_set(X1, Z1, num_words);
 2568              		.loc 3 92 0
 2569 01f6 5F23     		movs	r3, #95
 2570 01f8 6B44     		add	r3, r3, sp
 2571 01fa 0022     		movs	r2, #0
 2572 01fc 9A56     		ldrsb	r2, [r3, r2]
 2573 01fe 0399     		ldr	r1, [sp, #12]
 2574 0200 059B     		ldr	r3, [sp, #20]
 2575 0202 1800     		movs	r0, r3
 2576 0204 FFF7FEFF 		bl	uECC_vli_set
  93:curve-specific.inc ****     uECC_vli_set(Z1, Y1, num_words);
 2577              		.loc 3 93 0
 2578 0208 5F23     		movs	r3, #95
 2579 020a 6B44     		add	r3, r3, sp
 2580 020c 0022     		movs	r2, #0
 2581 020e 9A56     		ldrsb	r2, [r3, r2]
 2582 0210 0499     		ldr	r1, [sp, #16]
 2583 0212 039B     		ldr	r3, [sp, #12]
 2584 0214 1800     		movs	r0, r3
 2585 0216 FFF7FEFF 		bl	uECC_vli_set
  94:curve-specific.inc ****     uECC_vli_set(Y1, t4, num_words);
 2586              		.loc 3 94 0
 2587 021a 5F23     		movs	r3, #95
 2588 021c 6B44     		add	r3, r3, sp
 2589 021e 0022     		movs	r2, #0
 2590 0220 9A56     		ldrsb	r2, [r3, r2]
 2591 0222 0EA9     		add	r1, sp, #56
 2592 0224 049B     		ldr	r3, [sp, #16]
 2593 0226 1800     		movs	r0, r3
 2594 0228 FFF7FEFF 		bl	uECC_vli_set
 2595 022c 00E0     		b	.L97
 2596              	.L102:
  60:curve-specific.inc ****     }
 2597              		.loc 3 60 0
 2598 022e C046     		nop
 2599              	.L97:
  95:curve-specific.inc **** }
 2600              		.loc 3 95 0
 2601 0230 18B0     		add	sp, sp, #96
 2602              		@ sp needed
 2603 0232 10BD     		pop	{r4, pc}
 2604              	.L104:
 2605              		.align	2
 2606              	.L103:
 2607 0234 FFFFFF3F 		.word	1073741823
 2608              		.cfi_endproc
 2609              	.LFE25:
 2610              		.size	double_jacobian_default, .-double_jacobian_default
 2611              		.section	.text.x_side_default,"ax",%progbits
 2612              		.align	2
 2613              		.code	16
 2614              		.thumb_func
 2615              		.type	x_side_default, %function
 2616              	x_side_default:
 2617              	.LFB26:
  96:curve-specific.inc **** 
  97:curve-specific.inc **** /* Computes result = x^3 + ax + b. result must not overlap x. */
ARM GAS  C:\Users\andrew\AppData\Local\Temp\ccN9Mpsj.s 			page 73


  98:curve-specific.inc **** static void x_side_default(uECC_word_t *result, const uECC_word_t *x, uECC_Curve curve) {
 2618              		.loc 3 98 0
 2619              		.cfi_startproc
 2620              		@ args = 0, pretend = 0, frame = 56
 2621              		@ frame_needed = 0, uses_anonymous_args = 0
 2622 0000 10B5     		push	{r4, lr}
 2623              		.cfi_def_cfa_offset 8
 2624              		.cfi_offset 4, -8
 2625              		.cfi_offset 14, -4
 2626 0002 90B0     		sub	sp, sp, #64
 2627              		.cfi_def_cfa_offset 72
 2628 0004 0590     		str	r0, [sp, #20]
 2629 0006 0491     		str	r1, [sp, #16]
 2630 0008 0392     		str	r2, [sp, #12]
  99:curve-specific.inc ****     uECC_word_t _3[uECC_MAX_WORDS] = {3}; /* -a = 3 */
 2631              		.loc 3 99 0
 2632 000a 07AB     		add	r3, sp, #28
 2633 000c 1800     		movs	r0, r3
 2634 000e 2023     		movs	r3, #32
 2635 0010 1A00     		movs	r2, r3
 2636 0012 0021     		movs	r1, #0
 2637 0014 FFF7FEFF 		bl	memset
 2638 0018 07AB     		add	r3, sp, #28
 2639 001a 0322     		movs	r2, #3
 2640 001c 1A60     		str	r2, [r3]
 100:curve-specific.inc ****     wordcount_t num_words = curve->num_words;
 2641              		.loc 3 100 0
 2642 001e 3F23     		movs	r3, #63
 2643 0020 6B44     		add	r3, r3, sp
 2644 0022 039A     		ldr	r2, [sp, #12]
 2645 0024 1278     		ldrb	r2, [r2]
 2646 0026 1A70     		strb	r2, [r3]
 101:curve-specific.inc **** 
 102:curve-specific.inc ****     uECC_vli_modSquare_fast(result, x, curve);                             /* r = x^2 */
 2647              		.loc 3 102 0
 2648 0028 039A     		ldr	r2, [sp, #12]
 2649 002a 0499     		ldr	r1, [sp, #16]
 2650 002c 059B     		ldr	r3, [sp, #20]
 2651 002e 1800     		movs	r0, r3
 2652 0030 FFF7FEFF 		bl	uECC_vli_modSquare_fast
 103:curve-specific.inc ****     uECC_vli_modSub(result, result, _3, curve->p, num_words);       /* r = x^2 - 3 */
 2653              		.loc 3 103 0
 2654 0034 039B     		ldr	r3, [sp, #12]
 2655 0036 1C1D     		adds	r4, r3, #4
 2656 0038 07AA     		add	r2, sp, #28
 2657 003a 0599     		ldr	r1, [sp, #20]
 2658 003c 0598     		ldr	r0, [sp, #20]
 2659 003e 3F23     		movs	r3, #63
 2660 0040 6B44     		add	r3, r3, sp
 2661 0042 1B78     		ldrb	r3, [r3]
 2662 0044 5BB2     		sxtb	r3, r3
 2663 0046 0093     		str	r3, [sp]
 2664 0048 2300     		movs	r3, r4
 2665 004a FFF7FEFF 		bl	uECC_vli_modSub
 104:curve-specific.inc ****     uECC_vli_modMult_fast(result, result, x, curve);                       /* r = x^3 - 3x */
 2666              		.loc 3 104 0
 2667 004e 039B     		ldr	r3, [sp, #12]
ARM GAS  C:\Users\andrew\AppData\Local\Temp\ccN9Mpsj.s 			page 74


 2668 0050 049A     		ldr	r2, [sp, #16]
 2669 0052 0599     		ldr	r1, [sp, #20]
 2670 0054 0598     		ldr	r0, [sp, #20]
 2671 0056 FFF7FEFF 		bl	uECC_vli_modMult_fast
 105:curve-specific.inc ****     uECC_vli_modAdd(result, result, curve->b, curve->p, num_words); /* r = x^3 - 3x + b */
 2672              		.loc 3 105 0
 2673 005a 039B     		ldr	r3, [sp, #12]
 2674 005c 8433     		adds	r3, r3, #132
 2675 005e 1A00     		movs	r2, r3
 2676 0060 039B     		ldr	r3, [sp, #12]
 2677 0062 1C1D     		adds	r4, r3, #4
 2678 0064 0599     		ldr	r1, [sp, #20]
 2679 0066 0598     		ldr	r0, [sp, #20]
 2680 0068 3F23     		movs	r3, #63
 2681 006a 6B44     		add	r3, r3, sp
 2682 006c 1B78     		ldrb	r3, [r3]
 2683 006e 5BB2     		sxtb	r3, r3
 2684 0070 0093     		str	r3, [sp]
 2685 0072 2300     		movs	r3, r4
 2686 0074 FFF7FEFF 		bl	uECC_vli_modAdd
 106:curve-specific.inc **** }
 2687              		.loc 3 106 0
 2688 0078 C046     		nop
 2689 007a 10B0     		add	sp, sp, #64
 2690              		@ sp needed
 2691 007c 10BD     		pop	{r4, pc}
 2692              		.cfi_endproc
 2693              	.LFE26:
 2694              		.size	x_side_default, .-x_side_default
 2695 007e C046     		.section	.text.mod_sqrt_default,"ax",%progbits
 2696              		.align	2
 2697              		.code	16
 2698              		.thumb_func
 2699              		.type	mod_sqrt_default, %function
 2700              	mod_sqrt_default:
 2701              	.LFB27:
 107:curve-specific.inc **** #endif /* uECC_SUPPORTS_secp... */
 108:curve-specific.inc **** 
 109:curve-specific.inc **** #if uECC_SUPPORT_COMPRESSED_POINT
 110:curve-specific.inc **** #if uECC_SUPPORTS_secp160r1 || uECC_SUPPORTS_secp192r1 || \
 111:curve-specific.inc ****     uECC_SUPPORTS_secp256r1 || uECC_SUPPORTS_secp256k1
 112:curve-specific.inc **** /* Compute a = sqrt(a) (mod curve_p). */
 113:curve-specific.inc **** static void mod_sqrt_default(uECC_word_t *a, uECC_Curve curve) {
 2702              		.loc 3 113 0
 2703              		.cfi_startproc
 2704              		@ args = 0, pretend = 0, frame = 80
 2705              		@ frame_needed = 0, uses_anonymous_args = 0
 2706 0000 00B5     		push	{lr}
 2707              		.cfi_def_cfa_offset 4
 2708              		.cfi_offset 14, -4
 2709 0002 95B0     		sub	sp, sp, #84
 2710              		.cfi_def_cfa_offset 88
 2711 0004 0190     		str	r0, [sp, #4]
 2712 0006 0091     		str	r1, [sp]
 114:curve-specific.inc ****     bitcount_t i;
 115:curve-specific.inc ****     uECC_word_t p1[uECC_MAX_WORDS] = {1};
 2713              		.loc 3 115 0
ARM GAS  C:\Users\andrew\AppData\Local\Temp\ccN9Mpsj.s 			page 75


 2714 0008 0BAB     		add	r3, sp, #44
 2715 000a 1800     		movs	r0, r3
 2716 000c 2023     		movs	r3, #32
 2717 000e 1A00     		movs	r2, r3
 2718 0010 0021     		movs	r1, #0
 2719 0012 FFF7FEFF 		bl	memset
 2720 0016 0BAB     		add	r3, sp, #44
 2721 0018 0122     		movs	r2, #1
 2722 001a 1A60     		str	r2, [r3]
 116:curve-specific.inc ****     uECC_word_t l_result[uECC_MAX_WORDS] = {1};
 2723              		.loc 3 116 0
 2724 001c 03AB     		add	r3, sp, #12
 2725 001e 1800     		movs	r0, r3
 2726 0020 2023     		movs	r3, #32
 2727 0022 1A00     		movs	r2, r3
 2728 0024 0021     		movs	r1, #0
 2729 0026 FFF7FEFF 		bl	memset
 2730 002a 03AB     		add	r3, sp, #12
 2731 002c 0122     		movs	r2, #1
 2732 002e 1A60     		str	r2, [r3]
 117:curve-specific.inc ****     wordcount_t num_words = curve->num_words;
 2733              		.loc 3 117 0
 2734 0030 4D23     		movs	r3, #77
 2735 0032 6B44     		add	r3, r3, sp
 2736 0034 009A     		ldr	r2, [sp]
 2737 0036 1278     		ldrb	r2, [r2]
 2738 0038 1A70     		strb	r2, [r3]
 118:curve-specific.inc ****     
 119:curve-specific.inc ****     /* When curve->p == 3 (mod 4), we can compute
 120:curve-specific.inc ****        sqrt(a) = a^((curve->p + 1) / 4) (mod curve->p). */
 121:curve-specific.inc ****     uECC_vli_add(p1, curve->p, p1, num_words); /* p1 = curve_p + 1 */
 2739              		.loc 3 121 0
 2740 003a 009B     		ldr	r3, [sp]
 2741 003c 191D     		adds	r1, r3, #4
 2742 003e 4D23     		movs	r3, #77
 2743 0040 6B44     		add	r3, r3, sp
 2744 0042 1B78     		ldrb	r3, [r3]
 2745 0044 5BB2     		sxtb	r3, r3
 2746 0046 0BAA     		add	r2, sp, #44
 2747 0048 0BA8     		add	r0, sp, #44
 2748 004a FFF7FEFF 		bl	uECC_vli_add
 122:curve-specific.inc ****     for (i = uECC_vli_numBits(p1, num_words) - 1; i > 1; --i) {
 2749              		.loc 3 122 0
 2750 004e 4D23     		movs	r3, #77
 2751 0050 6B44     		add	r3, r3, sp
 2752 0052 0022     		movs	r2, #0
 2753 0054 9A56     		ldrsb	r2, [r3, r2]
 2754 0056 0BAB     		add	r3, sp, #44
 2755 0058 1100     		movs	r1, r2
 2756 005a 1800     		movs	r0, r3
 2757 005c FFF7FEFF 		bl	uECC_vli_numBits
 2758 0060 0300     		movs	r3, r0
 2759 0062 9BB2     		uxth	r3, r3
 2760 0064 013B     		subs	r3, r3, #1
 2761 0066 9AB2     		uxth	r2, r3
 2762 0068 4E23     		movs	r3, #78
 2763 006a 6B44     		add	r3, r3, sp
ARM GAS  C:\Users\andrew\AppData\Local\Temp\ccN9Mpsj.s 			page 76


 2764 006c 1A80     		strh	r2, [r3]
 2765 006e 1EE0     		b	.L107
 2766              	.L109:
 123:curve-specific.inc ****         uECC_vli_modSquare_fast(l_result, l_result, curve);
 2767              		.loc 3 123 0
 2768 0070 009A     		ldr	r2, [sp]
 2769 0072 03A9     		add	r1, sp, #12
 2770 0074 03AB     		add	r3, sp, #12
 2771 0076 1800     		movs	r0, r3
 2772 0078 FFF7FEFF 		bl	uECC_vli_modSquare_fast
 124:curve-specific.inc ****         if (uECC_vli_testBit(p1, i)) {
 2773              		.loc 3 124 0
 2774 007c 4E23     		movs	r3, #78
 2775 007e 6B44     		add	r3, r3, sp
 2776 0080 0022     		movs	r2, #0
 2777 0082 9A5E     		ldrsh	r2, [r3, r2]
 2778 0084 0BAB     		add	r3, sp, #44
 2779 0086 1100     		movs	r1, r2
 2780 0088 1800     		movs	r0, r3
 2781 008a FFF7FEFF 		bl	uECC_vli_testBit
 2782 008e 031E     		subs	r3, r0, #0
 2783 0090 05D0     		beq	.L108
 125:curve-specific.inc ****             uECC_vli_modMult_fast(l_result, l_result, a, curve);
 2784              		.loc 3 125 0
 2785 0092 009B     		ldr	r3, [sp]
 2786 0094 019A     		ldr	r2, [sp, #4]
 2787 0096 03A9     		add	r1, sp, #12
 2788 0098 03A8     		add	r0, sp, #12
 2789 009a FFF7FEFF 		bl	uECC_vli_modMult_fast
 2790              	.L108:
 122:curve-specific.inc ****         uECC_vli_modSquare_fast(l_result, l_result, curve);
 2791              		.loc 3 122 0 discriminator 2
 2792 009e 4E23     		movs	r3, #78
 2793 00a0 6B44     		add	r3, r3, sp
 2794 00a2 1B88     		ldrh	r3, [r3]
 2795 00a4 013B     		subs	r3, r3, #1
 2796 00a6 9AB2     		uxth	r2, r3
 2797 00a8 4E23     		movs	r3, #78
 2798 00aa 6B44     		add	r3, r3, sp
 2799 00ac 1A80     		strh	r2, [r3]
 2800              	.L107:
 122:curve-specific.inc ****         uECC_vli_modSquare_fast(l_result, l_result, curve);
 2801              		.loc 3 122 0 is_stmt 0 discriminator 1
 2802 00ae 4E23     		movs	r3, #78
 2803 00b0 6B44     		add	r3, r3, sp
 2804 00b2 0022     		movs	r2, #0
 2805 00b4 9B5E     		ldrsh	r3, [r3, r2]
 2806 00b6 012B     		cmp	r3, #1
 2807 00b8 DADC     		bgt	.L109
 126:curve-specific.inc ****         }
 127:curve-specific.inc ****     }
 128:curve-specific.inc ****     uECC_vli_set(a, l_result, num_words);
 2808              		.loc 3 128 0 is_stmt 1
 2809 00ba 4D23     		movs	r3, #77
 2810 00bc 6B44     		add	r3, r3, sp
 2811 00be 0022     		movs	r2, #0
 2812 00c0 9A56     		ldrsb	r2, [r3, r2]
ARM GAS  C:\Users\andrew\AppData\Local\Temp\ccN9Mpsj.s 			page 77


 2813 00c2 03A9     		add	r1, sp, #12
 2814 00c4 019B     		ldr	r3, [sp, #4]
 2815 00c6 1800     		movs	r0, r3
 2816 00c8 FFF7FEFF 		bl	uECC_vli_set
 129:curve-specific.inc **** }
 2817              		.loc 3 129 0
 2818 00cc C046     		nop
 2819 00ce 15B0     		add	sp, sp, #84
 2820              		@ sp needed
 2821 00d0 00BD     		pop	{pc}
 2822              		.cfi_endproc
 2823              	.LFE27:
 2824              		.size	mod_sqrt_default, .-mod_sqrt_default
 2825 00d2 C046     		.section	.rodata
 2826              		.align	2
 2827              		.type	curve_secp160r1, %object
 2828              		.size	curve_secp160r1, 180
 2829              	curve_secp160r1:
 2830 0000 05       		.byte	5
 2831 0001 14       		.byte	20
 2832 0002 A100     		.short	161
 2833 0004 FFFFFF7F 		.word	2147483647
 2834 0008 FFFFFFFF 		.word	-1
 2835 000c FFFFFFFF 		.word	-1
 2836 0010 FFFFFFFF 		.word	-1
 2837 0014 FFFFFFFF 		.word	-1
 2838 0018 00000000 		.space	12
 2838      00000000 
 2838      00000000 
 2839 0024 572275CA 		.word	-898293161
 2840 0028 D3AE27F9 		.word	-114839853
 2841 002c C8F40100 		.word	128200
 2842 0030 00000000 		.word	0
 2843 0034 00000000 		.word	0
 2844 0038 01000000 		.word	1
 2845 003c 00000000 		.space	8
 2845      00000000 
 2846 0044 82FCCB13 		.word	332135554
 2847 0048 B98BC368 		.word	1757645753
 2848 004c 89696446 		.word	1180985737
 2849 0050 2873F58E 		.word	-1896516824
 2850 0054 68B5964A 		.word	1251390824
 2851 0058 32FBC57A 		.word	2059795250
 2852 005c 37512304 		.word	69423415
 2853 0060 12C9DC59 		.word	1507641618
 2854 0064 7D946831 		.word	828937341
 2855 0068 5528A623 		.word	598091861
 2856 006c 00000000 		.space	24
 2856      00000000 
 2856      00000000 
 2856      00000000 
 2856      00000000 
 2857 0084 45FA65C5 		.word	-983172539
 2858 0088 ADD4D481 		.word	-2116758355
 2859 008c 9FF8AC65 		.word	1705834655
 2860 0090 8B7ABD54 		.word	1421703819
 2861 0094 FCBE971C 		.word	479706876
ARM GAS  C:\Users\andrew\AppData\Local\Temp\ccN9Mpsj.s 			page 78


 2862 0098 00000000 		.space	12
 2862      00000000 
 2862      00000000 
 2863 00a4 00000000 		.word	double_jacobian_default
 2864 00a8 00000000 		.word	mod_sqrt_default
 2865 00ac 00000000 		.word	x_side_default
 2866 00b0 00000000 		.word	vli_mmod_fast_secp160r1
 2867              		.section	.text.uECC_secp160r1,"ax",%progbits
 2868              		.align	2
 2869              		.global	uECC_secp160r1
 2870              		.code	16
 2871              		.thumb_func
 2872              		.type	uECC_secp160r1, %function
 2873              	uECC_secp160r1:
 2874              	.LFB28:
 130:curve-specific.inc **** #endif /* uECC_SUPPORTS_secp... */
 131:curve-specific.inc **** #endif /* uECC_SUPPORT_COMPRESSED_POINT */
 132:curve-specific.inc **** 
 133:curve-specific.inc **** #if uECC_SUPPORTS_secp160r1
 134:curve-specific.inc **** 
 135:curve-specific.inc **** #if (uECC_OPTIMIZATION_LEVEL > 0)
 136:curve-specific.inc **** static void vli_mmod_fast_secp160r1(uECC_word_t *result, uECC_word_t *product);
 137:curve-specific.inc **** #endif
 138:curve-specific.inc **** 
 139:curve-specific.inc **** static const struct uECC_Curve_t curve_secp160r1 = {
 140:curve-specific.inc ****     num_words_secp160r1,
 141:curve-specific.inc ****     num_bytes_secp160r1,
 142:curve-specific.inc ****     161, /* num_n_bits */
 143:curve-specific.inc ****     { BYTES_TO_WORDS_8(FF, FF, FF, 7F, FF, FF, FF, FF),
 144:curve-specific.inc ****         BYTES_TO_WORDS_8(FF, FF, FF, FF, FF, FF, FF, FF),
 145:curve-specific.inc ****         BYTES_TO_WORDS_4(FF, FF, FF, FF) },
 146:curve-specific.inc ****     { BYTES_TO_WORDS_8(57, 22, 75, CA, D3, AE, 27, F9),
 147:curve-specific.inc ****         BYTES_TO_WORDS_8(C8, F4, 01, 00, 00, 00, 00, 00),
 148:curve-specific.inc ****         BYTES_TO_WORDS_8(00, 00, 00, 00, 01, 00, 00, 00) },
 149:curve-specific.inc ****     { BYTES_TO_WORDS_8(82, FC, CB, 13, B9, 8B, C3, 68),
 150:curve-specific.inc ****         BYTES_TO_WORDS_8(89, 69, 64, 46, 28, 73, F5, 8E),
 151:curve-specific.inc ****         BYTES_TO_WORDS_4(68, B5, 96, 4A),
 152:curve-specific.inc **** 
 153:curve-specific.inc ****         BYTES_TO_WORDS_8(32, FB, C5, 7A, 37, 51, 23, 04),
 154:curve-specific.inc ****         BYTES_TO_WORDS_8(12, C9, DC, 59, 7D, 94, 68, 31),
 155:curve-specific.inc ****         BYTES_TO_WORDS_4(55, 28, A6, 23) },
 156:curve-specific.inc ****     { BYTES_TO_WORDS_8(45, FA, 65, C5, AD, D4, D4, 81),
 157:curve-specific.inc ****         BYTES_TO_WORDS_8(9F, F8, AC, 65, 8B, 7A, BD, 54),
 158:curve-specific.inc ****         BYTES_TO_WORDS_4(FC, BE, 97, 1C) },
 159:curve-specific.inc ****     &double_jacobian_default,
 160:curve-specific.inc **** #if uECC_SUPPORT_COMPRESSED_POINT
 161:curve-specific.inc ****     &mod_sqrt_default,
 162:curve-specific.inc **** #endif
 163:curve-specific.inc ****     &x_side_default,
 164:curve-specific.inc **** #if (uECC_OPTIMIZATION_LEVEL > 0)
 165:curve-specific.inc ****     &vli_mmod_fast_secp160r1
 166:curve-specific.inc **** #endif
 167:curve-specific.inc **** };
 168:curve-specific.inc **** 
 169:curve-specific.inc **** uECC_Curve uECC_secp160r1(void) { return &curve_secp160r1; }
 2875              		.loc 3 169 0
 2876              		.cfi_startproc
ARM GAS  C:\Users\andrew\AppData\Local\Temp\ccN9Mpsj.s 			page 79


 2877              		@ args = 0, pretend = 0, frame = 0
 2878              		@ frame_needed = 0, uses_anonymous_args = 0
 2879              		@ link register save eliminated.
 2880              		.loc 3 169 0
 2881 0000 014B     		ldr	r3, .L112
 2882 0002 1800     		movs	r0, r3
 2883              		@ sp needed
 2884 0004 7047     		bx	lr
 2885              	.L113:
 2886 0006 C046     		.align	2
 2887              	.L112:
 2888 0008 00000000 		.word	curve_secp160r1
 2889              		.cfi_endproc
 2890              	.LFE28:
 2891              		.size	uECC_secp160r1, .-uECC_secp160r1
 2892              		.section	.text.vli_mmod_fast_secp160r1,"ax",%progbits
 2893              		.align	2
 2894              		.code	16
 2895              		.thumb_func
 2896              		.type	vli_mmod_fast_secp160r1, %function
 2897              	vli_mmod_fast_secp160r1:
 2898              	.LFB29:
 170:curve-specific.inc **** 
 171:curve-specific.inc **** #if (uECC_OPTIMIZATION_LEVEL > 0 && !asm_mmod_fast_secp160r1)
 172:curve-specific.inc **** /* Computes result = product % curve_p
 173:curve-specific.inc ****     see http://www.isys.uni-klu.ac.at/PDF/2001-0126-MT.pdf page 354
 174:curve-specific.inc ****     
 175:curve-specific.inc ****     Note that this only works if log2(omega) < log2(p) / 2 */
 176:curve-specific.inc **** static void omega_mult_secp160r1(uECC_word_t *result, const uECC_word_t *right);
 177:curve-specific.inc **** #if uECC_WORD_SIZE == 8
 178:curve-specific.inc **** static void vli_mmod_fast_secp160r1(uECC_word_t *result, uECC_word_t *product) {
 179:curve-specific.inc ****     uECC_word_t tmp[2 * num_words_secp160r1];
 180:curve-specific.inc ****     uECC_word_t copy;
 181:curve-specific.inc ****     
 182:curve-specific.inc ****     uECC_vli_clear(tmp, num_words_secp160r1);
 183:curve-specific.inc ****     uECC_vli_clear(tmp + num_words_secp160r1, num_words_secp160r1);
 184:curve-specific.inc **** 
 185:curve-specific.inc ****     omega_mult_secp160r1(tmp, product + num_words_secp160r1 - 1); /* (Rq, q) = q * c */
 186:curve-specific.inc ****     
 187:curve-specific.inc ****     product[num_words_secp160r1 - 1] &= 0xffffffff;
 188:curve-specific.inc ****     copy = tmp[num_words_secp160r1 - 1];
 189:curve-specific.inc ****     tmp[num_words_secp160r1 - 1] &= 0xffffffff;
 190:curve-specific.inc ****     uECC_vli_add(result, product, tmp, num_words_secp160r1); /* (C, r) = r + q */
 191:curve-specific.inc ****     uECC_vli_clear(product, num_words_secp160r1);
 192:curve-specific.inc ****     tmp[num_words_secp160r1 - 1] = copy;
 193:curve-specific.inc ****     omega_mult_secp160r1(product, tmp + num_words_secp160r1 - 1); /* Rq*c */
 194:curve-specific.inc ****     uECC_vli_add(result, result, product, num_words_secp160r1); /* (C1, r) = r + Rq*c */
 195:curve-specific.inc **** 
 196:curve-specific.inc ****     while (uECC_vli_cmp_unsafe(result, curve_secp160r1.p, num_words_secp160r1) > 0) {
 197:curve-specific.inc ****         uECC_vli_sub(result, result, curve_secp160r1.p, num_words_secp160r1);
 198:curve-specific.inc ****     }
 199:curve-specific.inc **** }
 200:curve-specific.inc **** 
 201:curve-specific.inc **** static void omega_mult_secp160r1(uint64_t *result, const uint64_t *right) {
 202:curve-specific.inc ****     uint32_t carry;
 203:curve-specific.inc ****     unsigned i;
 204:curve-specific.inc ****     
ARM GAS  C:\Users\andrew\AppData\Local\Temp\ccN9Mpsj.s 			page 80


 205:curve-specific.inc ****     /* Multiply by (2^31 + 1). */
 206:curve-specific.inc ****     carry = 0;
 207:curve-specific.inc ****     for (i = 0; i < num_words_secp160r1; ++i) {
 208:curve-specific.inc ****         uint64_t tmp = (right[i] >> 32) | (right[i + 1] << 32);
 209:curve-specific.inc ****         result[i] = (tmp << 31) + tmp + carry;
 210:curve-specific.inc ****         carry = (tmp >> 33) + (result[i] < tmp || (carry && result[i] == tmp));
 211:curve-specific.inc ****     }
 212:curve-specific.inc ****     result[i] = carry;
 213:curve-specific.inc **** }
 214:curve-specific.inc **** #else
 215:curve-specific.inc **** static void vli_mmod_fast_secp160r1(uECC_word_t *result, uECC_word_t *product) {
 2899              		.loc 3 215 0
 2900              		.cfi_startproc
 2901              		@ args = 0, pretend = 0, frame = 56
 2902              		@ frame_needed = 0, uses_anonymous_args = 0
 2903 0000 00B5     		push	{lr}
 2904              		.cfi_def_cfa_offset 4
 2905              		.cfi_offset 14, -4
 2906 0002 8FB0     		sub	sp, sp, #60
 2907              		.cfi_def_cfa_offset 64
 2908 0004 0190     		str	r0, [sp, #4]
 2909 0006 0091     		str	r1, [sp]
 216:curve-specific.inc ****     uECC_word_t tmp[2 * num_words_secp160r1];
 217:curve-specific.inc ****     uECC_word_t carry;
 218:curve-specific.inc ****     
 219:curve-specific.inc ****     uECC_vli_clear(tmp, num_words_secp160r1);
 2910              		.loc 3 219 0
 2911 0008 03AB     		add	r3, sp, #12
 2912 000a 0521     		movs	r1, #5
 2913 000c 1800     		movs	r0, r3
 2914 000e FFF7FEFF 		bl	uECC_vli_clear
 220:curve-specific.inc ****     uECC_vli_clear(tmp + num_words_secp160r1, num_words_secp160r1);
 2915              		.loc 3 220 0
 2916 0012 03AB     		add	r3, sp, #12
 2917 0014 1433     		adds	r3, r3, #20
 2918 0016 0521     		movs	r1, #5
 2919 0018 1800     		movs	r0, r3
 2920 001a FFF7FEFF 		bl	uECC_vli_clear
 221:curve-specific.inc **** 
 222:curve-specific.inc ****     omega_mult_secp160r1(tmp, product + num_words_secp160r1); /* (Rq, q) = q * c */
 2921              		.loc 3 222 0
 2922 001e 009B     		ldr	r3, [sp]
 2923 0020 1433     		adds	r3, r3, #20
 2924 0022 1A00     		movs	r2, r3
 2925 0024 03AB     		add	r3, sp, #12
 2926 0026 1100     		movs	r1, r2
 2927 0028 1800     		movs	r0, r3
 2928 002a FFF7FEFF 		bl	omega_mult_secp160r1
 223:curve-specific.inc ****     
 224:curve-specific.inc ****     carry = uECC_vli_add(result, product, tmp, num_words_secp160r1); /* (C, r) = r + q */
 2929              		.loc 3 224 0
 2930 002e 03AA     		add	r2, sp, #12
 2931 0030 0099     		ldr	r1, [sp]
 2932 0032 0198     		ldr	r0, [sp, #4]
 2933 0034 0523     		movs	r3, #5
 2934 0036 FFF7FEFF 		bl	uECC_vli_add
 2935 003a 0300     		movs	r3, r0
ARM GAS  C:\Users\andrew\AppData\Local\Temp\ccN9Mpsj.s 			page 81


 2936 003c 0D93     		str	r3, [sp, #52]
 225:curve-specific.inc ****     uECC_vli_clear(product, num_words_secp160r1);
 2937              		.loc 3 225 0
 2938 003e 009B     		ldr	r3, [sp]
 2939 0040 0521     		movs	r1, #5
 2940 0042 1800     		movs	r0, r3
 2941 0044 FFF7FEFF 		bl	uECC_vli_clear
 226:curve-specific.inc ****     omega_mult_secp160r1(product, tmp + num_words_secp160r1); /* Rq*c */
 2942              		.loc 3 226 0
 2943 0048 03AB     		add	r3, sp, #12
 2944 004a 1433     		adds	r3, r3, #20
 2945 004c 009A     		ldr	r2, [sp]
 2946 004e 1900     		movs	r1, r3
 2947 0050 1000     		movs	r0, r2
 2948 0052 FFF7FEFF 		bl	omega_mult_secp160r1
 227:curve-specific.inc ****     carry += uECC_vli_add(result, result, product, num_words_secp160r1); /* (C1, r) = r + Rq*c */
 2949              		.loc 3 227 0
 2950 0056 009A     		ldr	r2, [sp]
 2951 0058 0199     		ldr	r1, [sp, #4]
 2952 005a 0198     		ldr	r0, [sp, #4]
 2953 005c 0523     		movs	r3, #5
 2954 005e FFF7FEFF 		bl	uECC_vli_add
 2955 0062 0200     		movs	r2, r0
 2956 0064 0D9B     		ldr	r3, [sp, #52]
 2957 0066 9B18     		adds	r3, r3, r2
 2958 0068 0D93     		str	r3, [sp, #52]
 228:curve-specific.inc **** 
 229:curve-specific.inc ****     while (carry > 0) {
 2959              		.loc 3 229 0
 2960 006a 08E0     		b	.L115
 2961              	.L116:
 230:curve-specific.inc ****         --carry;
 2962              		.loc 3 230 0
 2963 006c 0D9B     		ldr	r3, [sp, #52]
 2964 006e 013B     		subs	r3, r3, #1
 2965 0070 0D93     		str	r3, [sp, #52]
 231:curve-specific.inc ****         uECC_vli_sub(result, result, curve_secp160r1.p, num_words_secp160r1);
 2966              		.loc 3 231 0
 2967 0072 0D4A     		ldr	r2, .L119
 2968 0074 0199     		ldr	r1, [sp, #4]
 2969 0076 0198     		ldr	r0, [sp, #4]
 2970 0078 0523     		movs	r3, #5
 2971 007a FFF7FEFF 		bl	uECC_vli_sub
 2972              	.L115:
 229:curve-specific.inc ****         --carry;
 2973              		.loc 3 229 0
 2974 007e 0D9B     		ldr	r3, [sp, #52]
 2975 0080 002B     		cmp	r3, #0
 2976 0082 F3D1     		bne	.L116
 232:curve-specific.inc ****     }
 233:curve-specific.inc ****     if (uECC_vli_cmp_unsafe(result, curve_secp160r1.p, num_words_secp160r1) > 0) {
 2977              		.loc 3 233 0
 2978 0084 0849     		ldr	r1, .L119
 2979 0086 019B     		ldr	r3, [sp, #4]
 2980 0088 0522     		movs	r2, #5
 2981 008a 1800     		movs	r0, r3
 2982 008c FFF7FEFF 		bl	uECC_vli_cmp_unsafe
ARM GAS  C:\Users\andrew\AppData\Local\Temp\ccN9Mpsj.s 			page 82


 2983 0090 031E     		subs	r3, r0, #0
 2984 0092 05DD     		ble	.L118
 234:curve-specific.inc ****         uECC_vli_sub(result, result, curve_secp160r1.p, num_words_secp160r1);
 2985              		.loc 3 234 0
 2986 0094 044A     		ldr	r2, .L119
 2987 0096 0199     		ldr	r1, [sp, #4]
 2988 0098 0198     		ldr	r0, [sp, #4]
 2989 009a 0523     		movs	r3, #5
 2990 009c FFF7FEFF 		bl	uECC_vli_sub
 2991              	.L118:
 235:curve-specific.inc ****     }
 236:curve-specific.inc **** }
 2992              		.loc 3 236 0
 2993 00a0 C046     		nop
 2994 00a2 0FB0     		add	sp, sp, #60
 2995              		@ sp needed
 2996 00a4 00BD     		pop	{pc}
 2997              	.L120:
 2998 00a6 C046     		.align	2
 2999              	.L119:
 3000 00a8 04000000 		.word	curve_secp160r1+4
 3001              		.cfi_endproc
 3002              	.LFE29:
 3003              		.size	vli_mmod_fast_secp160r1, .-vli_mmod_fast_secp160r1
 3004              		.section	.text.omega_mult_secp160r1,"ax",%progbits
 3005              		.align	2
 3006              		.code	16
 3007              		.thumb_func
 3008              		.type	omega_mult_secp160r1, %function
 3009              	omega_mult_secp160r1:
 3010              	.LFB30:
 237:curve-specific.inc **** #endif
 238:curve-specific.inc **** 
 239:curve-specific.inc **** #if uECC_WORD_SIZE == 1
 240:curve-specific.inc **** static void omega_mult_secp160r1(uint8_t *result, const uint8_t *right) {
 241:curve-specific.inc ****     uint8_t carry;
 242:curve-specific.inc ****     uint8_t i;
 243:curve-specific.inc ****     
 244:curve-specific.inc ****     /* Multiply by (2^31 + 1). */
 245:curve-specific.inc ****     uECC_vli_set(result + 4, right, num_words_secp160r1); /* 2^32 */
 246:curve-specific.inc ****     uECC_vli_rshift1(result + 4, num_words_secp160r1); /* 2^31 */
 247:curve-specific.inc ****     result[3] = right[0] << 7; /* get last bit from shift */
 248:curve-specific.inc ****     
 249:curve-specific.inc ****     carry = uECC_vli_add(result, result, right, num_words_secp160r1); /* 2^31 + 1 */
 250:curve-specific.inc ****     for (i = num_words_secp160r1; carry; ++i) {
 251:curve-specific.inc ****         uint16_t sum = (uint16_t)result[i] + carry;
 252:curve-specific.inc ****         result[i] = (uint8_t)sum;
 253:curve-specific.inc ****         carry = sum >> 8;
 254:curve-specific.inc ****     }
 255:curve-specific.inc **** }
 256:curve-specific.inc **** #elif uECC_WORD_SIZE == 4
 257:curve-specific.inc **** static void omega_mult_secp160r1(uint32_t *result, const uint32_t *right) {
 3011              		.loc 3 257 0
 3012              		.cfi_startproc
 3013              		@ args = 0, pretend = 0, frame = 40
 3014              		@ frame_needed = 0, uses_anonymous_args = 0
 3015 0000 70B5     		push	{r4, r5, r6, lr}
ARM GAS  C:\Users\andrew\AppData\Local\Temp\ccN9Mpsj.s 			page 83


 3016              		.cfi_def_cfa_offset 16
 3017              		.cfi_offset 4, -16
 3018              		.cfi_offset 5, -12
 3019              		.cfi_offset 6, -8
 3020              		.cfi_offset 14, -4
 3021 0002 8AB0     		sub	sp, sp, #40
 3022              		.cfi_def_cfa_offset 56
 3023 0004 0590     		str	r0, [sp, #20]
 3024 0006 0491     		str	r1, [sp, #16]
 258:curve-specific.inc ****     uint32_t carry;
 259:curve-specific.inc ****     unsigned i;
 260:curve-specific.inc ****     
 261:curve-specific.inc ****     /* Multiply by (2^31 + 1). */
 262:curve-specific.inc ****     uECC_vli_set(result + 1, right, num_words_secp160r1); /* 2^32 */
 3025              		.loc 3 262 0
 3026 0008 059B     		ldr	r3, [sp, #20]
 3027 000a 0433     		adds	r3, r3, #4
 3028 000c 0499     		ldr	r1, [sp, #16]
 3029 000e 0522     		movs	r2, #5
 3030 0010 1800     		movs	r0, r3
 3031 0012 FFF7FEFF 		bl	uECC_vli_set
 263:curve-specific.inc ****     uECC_vli_rshift1(result + 1, num_words_secp160r1); /* 2^31 */
 3032              		.loc 3 263 0
 3033 0016 059B     		ldr	r3, [sp, #20]
 3034 0018 0433     		adds	r3, r3, #4
 3035 001a 0521     		movs	r1, #5
 3036 001c 1800     		movs	r0, r3
 3037 001e FFF7FEFF 		bl	uECC_vli_rshift1
 264:curve-specific.inc ****     result[0] = right[0] << 31; /* get last bit from shift */
 3038              		.loc 3 264 0
 3039 0022 049B     		ldr	r3, [sp, #16]
 3040 0024 1B68     		ldr	r3, [r3]
 3041 0026 DA07     		lsls	r2, r3, #31
 3042 0028 059B     		ldr	r3, [sp, #20]
 3043 002a 1A60     		str	r2, [r3]
 265:curve-specific.inc ****     
 266:curve-specific.inc ****     carry = uECC_vli_add(result, result, right, num_words_secp160r1); /* 2^31 + 1 */
 3044              		.loc 3 266 0
 3045 002c 049A     		ldr	r2, [sp, #16]
 3046 002e 0599     		ldr	r1, [sp, #20]
 3047 0030 0598     		ldr	r0, [sp, #20]
 3048 0032 0523     		movs	r3, #5
 3049 0034 FFF7FEFF 		bl	uECC_vli_add
 3050 0038 0300     		movs	r3, r0
 3051 003a 0993     		str	r3, [sp, #36]
 267:curve-specific.inc ****     for (i = num_words_secp160r1; carry; ++i) {
 3052              		.loc 3 267 0
 3053 003c 0523     		movs	r3, #5
 3054 003e 0893     		str	r3, [sp, #32]
 3055 0040 21E0     		b	.L122
 3056              	.L123:
 3057              	.LBB7:
 268:curve-specific.inc ****         uint64_t sum = (uint64_t)result[i] + carry;
 3058              		.loc 3 268 0 discriminator 3
 3059 0042 089B     		ldr	r3, [sp, #32]
 3060 0044 9B00     		lsls	r3, r3, #2
 3061 0046 059A     		ldr	r2, [sp, #20]
ARM GAS  C:\Users\andrew\AppData\Local\Temp\ccN9Mpsj.s 			page 84


 3062 0048 D318     		adds	r3, r2, r3
 3063 004a 1B68     		ldr	r3, [r3]
 3064 004c 1D00     		movs	r5, r3
 3065 004e 0023     		movs	r3, #0
 3066 0050 1E00     		movs	r6, r3
 3067 0052 099B     		ldr	r3, [sp, #36]
 3068 0054 0093     		str	r3, [sp]
 3069 0056 0023     		movs	r3, #0
 3070 0058 0193     		str	r3, [sp, #4]
 3071 005a 009B     		ldr	r3, [sp]
 3072 005c 019C     		ldr	r4, [sp, #4]
 3073 005e 5B19     		adds	r3, r3, r5
 3074 0060 7441     		adcs	r4, r4, r6
 3075 0062 0693     		str	r3, [sp, #24]
 3076 0064 0794     		str	r4, [sp, #28]
 269:curve-specific.inc ****         result[i] = (uint32_t)sum;
 3077              		.loc 3 269 0 discriminator 3
 3078 0066 089B     		ldr	r3, [sp, #32]
 3079 0068 9B00     		lsls	r3, r3, #2
 3080 006a 059A     		ldr	r2, [sp, #20]
 3081 006c D318     		adds	r3, r2, r3
 3082 006e 069A     		ldr	r2, [sp, #24]
 3083 0070 1A60     		str	r2, [r3]
 270:curve-specific.inc ****         carry = sum >> 32;
 3084              		.loc 3 270 0 discriminator 3
 3085 0072 079B     		ldr	r3, [sp, #28]
 3086 0074 1B00     		lsrs	r3, r3, #0
 3087 0076 0293     		str	r3, [sp, #8]
 3088 0078 0023     		movs	r3, #0
 3089 007a 0393     		str	r3, [sp, #12]
 3090 007c 029B     		ldr	r3, [sp, #8]
 3091 007e 0993     		str	r3, [sp, #36]
 3092              	.LBE7:
 267:curve-specific.inc ****         uint64_t sum = (uint64_t)result[i] + carry;
 3093              		.loc 3 267 0 discriminator 3
 3094 0080 089B     		ldr	r3, [sp, #32]
 3095 0082 0133     		adds	r3, r3, #1
 3096 0084 0893     		str	r3, [sp, #32]
 3097              	.L122:
 267:curve-specific.inc ****         uint64_t sum = (uint64_t)result[i] + carry;
 3098              		.loc 3 267 0 is_stmt 0 discriminator 1
 3099 0086 099B     		ldr	r3, [sp, #36]
 3100 0088 002B     		cmp	r3, #0
 3101 008a DAD1     		bne	.L123
 271:curve-specific.inc ****     }
 272:curve-specific.inc **** }
 3102              		.loc 3 272 0 is_stmt 1
 3103 008c C046     		nop
 3104 008e 0AB0     		add	sp, sp, #40
 3105              		@ sp needed
 3106 0090 70BD     		pop	{r4, r5, r6, pc}
 3107              		.cfi_endproc
 3108              	.LFE30:
 3109              		.size	omega_mult_secp160r1, .-omega_mult_secp160r1
 3110 0092 C046     		.section	.rodata
 3111              		.align	2
 3112              		.type	curve_secp192r1, %object
ARM GAS  C:\Users\andrew\AppData\Local\Temp\ccN9Mpsj.s 			page 85


 3113              		.size	curve_secp192r1, 180
 3114              	curve_secp192r1:
 3115 00b4 06       		.byte	6
 3116 00b5 18       		.byte	24
 3117 00b6 C000     		.short	192
 3118 00b8 FFFFFFFF 		.word	-1
 3119 00bc FFFFFFFF 		.word	-1
 3120 00c0 FEFFFFFF 		.word	-2
 3121 00c4 FFFFFFFF 		.word	-1
 3122 00c8 FFFFFFFF 		.word	-1
 3123 00cc FFFFFFFF 		.word	-1
 3124 00d0 00000000 		.space	8
 3124      00000000 
 3125 00d8 3128D2B4 		.word	-1261295567
 3126 00dc B1C96B14 		.word	342608305
 3127 00e0 36F8DE99 		.word	-1713440714
 3128 00e4 FFFFFFFF 		.word	-1
 3129 00e8 FFFFFFFF 		.word	-1
 3130 00ec FFFFFFFF 		.word	-1
 3131 00f0 00000000 		.space	8
 3131      00000000 
 3132 00f8 1210FF82 		.word	-2097213422
 3133 00fc FD0AFFF4 		.word	-184612099
 3134 0100 0088A143 		.word	1134659584
 3135 0104 EB20BF7C 		.word	2092900587
 3136 0108 F69030B0 		.word	-1338994442
 3137 010c 0EA88D18 		.word	411936782
 3138 0110 1148791E 		.word	511264785
 3139 0114 A177F973 		.word	1945728929
 3140 0118 D5CD246B 		.word	1797574101
 3141 011c ED111063 		.word	1661997549
 3142 0120 78DAC8FF 		.word	-3614088
 3143 0124 952B1907 		.word	119090069
 3144 0128 00000000 		.space	16
 3144      00000000 
 3144      00000000 
 3144      00000000 
 3145 0138 B1B946C1 		.word	-1052329551
 3146 013c ECDEB8FE 		.word	-21438740
 3147 0140 49302472 		.word	1914974281
 3148 0144 ABE9A70F 		.word	262662571
 3149 0148 E7809CE5 		.word	-442728217
 3150 014c 19052164 		.word	1679885593
 3151 0150 00000000 		.space	8
 3151      00000000 
 3152 0158 00000000 		.word	double_jacobian_default
 3153 015c 00000000 		.word	mod_sqrt_default
 3154 0160 00000000 		.word	x_side_default
 3155 0164 00000000 		.word	vli_mmod_fast_secp192r1
 3156              		.section	.text.uECC_secp192r1,"ax",%progbits
 3157              		.align	2
 3158              		.global	uECC_secp192r1
 3159              		.code	16
 3160              		.thumb_func
 3161              		.type	uECC_secp192r1, %function
 3162              	uECC_secp192r1:
 3163              	.LFB31:
ARM GAS  C:\Users\andrew\AppData\Local\Temp\ccN9Mpsj.s 			page 86


 273:curve-specific.inc **** #endif /* uECC_WORD_SIZE */
 274:curve-specific.inc **** #endif /* (uECC_OPTIMIZATION_LEVEL > 0 && !asm_mmod_fast_secp160r1) */
 275:curve-specific.inc **** 
 276:curve-specific.inc **** #endif /* uECC_SUPPORTS_secp160r1 */
 277:curve-specific.inc **** 
 278:curve-specific.inc **** #if uECC_SUPPORTS_secp192r1
 279:curve-specific.inc **** 
 280:curve-specific.inc **** #if (uECC_OPTIMIZATION_LEVEL > 0)
 281:curve-specific.inc **** static void vli_mmod_fast_secp192r1(uECC_word_t *result, uECC_word_t *product);
 282:curve-specific.inc **** #endif
 283:curve-specific.inc **** 
 284:curve-specific.inc **** static const struct uECC_Curve_t curve_secp192r1 = {
 285:curve-specific.inc ****     num_words_secp192r1,
 286:curve-specific.inc ****     num_bytes_secp192r1,
 287:curve-specific.inc ****     192, /* num_n_bits */
 288:curve-specific.inc ****     { BYTES_TO_WORDS_8(FF, FF, FF, FF, FF, FF, FF, FF),
 289:curve-specific.inc ****         BYTES_TO_WORDS_8(FE, FF, FF, FF, FF, FF, FF, FF),
 290:curve-specific.inc ****         BYTES_TO_WORDS_8(FF, FF, FF, FF, FF, FF, FF, FF) },
 291:curve-specific.inc ****     { BYTES_TO_WORDS_8(31, 28, D2, B4, B1, C9, 6B, 14),
 292:curve-specific.inc ****         BYTES_TO_WORDS_8(36, F8, DE, 99, FF, FF, FF, FF),
 293:curve-specific.inc ****         BYTES_TO_WORDS_8(FF, FF, FF, FF, FF, FF, FF, FF) },
 294:curve-specific.inc ****     { BYTES_TO_WORDS_8(12, 10, FF, 82, FD, 0A, FF, F4),
 295:curve-specific.inc ****         BYTES_TO_WORDS_8(00, 88, A1, 43, EB, 20, BF, 7C),
 296:curve-specific.inc ****         BYTES_TO_WORDS_8(F6, 90, 30, B0, 0E, A8, 8D, 18),
 297:curve-specific.inc **** 
 298:curve-specific.inc ****         BYTES_TO_WORDS_8(11, 48, 79, 1E, A1, 77, F9, 73),
 299:curve-specific.inc ****         BYTES_TO_WORDS_8(D5, CD, 24, 6B, ED, 11, 10, 63),
 300:curve-specific.inc ****         BYTES_TO_WORDS_8(78, DA, C8, FF, 95, 2B, 19, 07) },
 301:curve-specific.inc ****     { BYTES_TO_WORDS_8(B1, B9, 46, C1, EC, DE, B8, FE),
 302:curve-specific.inc ****         BYTES_TO_WORDS_8(49, 30, 24, 72, AB, E9, A7, 0F),
 303:curve-specific.inc ****         BYTES_TO_WORDS_8(E7, 80, 9C, E5, 19, 05, 21, 64) },
 304:curve-specific.inc ****     &double_jacobian_default,
 305:curve-specific.inc **** #if uECC_SUPPORT_COMPRESSED_POINT
 306:curve-specific.inc ****     &mod_sqrt_default,
 307:curve-specific.inc **** #endif
 308:curve-specific.inc ****     &x_side_default,
 309:curve-specific.inc **** #if (uECC_OPTIMIZATION_LEVEL > 0)
 310:curve-specific.inc ****     &vli_mmod_fast_secp192r1
 311:curve-specific.inc **** #endif
 312:curve-specific.inc **** };
 313:curve-specific.inc **** 
 314:curve-specific.inc **** uECC_Curve uECC_secp192r1(void) { return &curve_secp192r1; }
 3164              		.loc 3 314 0
 3165              		.cfi_startproc
 3166              		@ args = 0, pretend = 0, frame = 0
 3167              		@ frame_needed = 0, uses_anonymous_args = 0
 3168              		@ link register save eliminated.
 3169              		.loc 3 314 0
 3170 0000 014B     		ldr	r3, .L126
 3171 0002 1800     		movs	r0, r3
 3172              		@ sp needed
 3173 0004 7047     		bx	lr
 3174              	.L127:
 3175 0006 C046     		.align	2
 3176              	.L126:
 3177 0008 B4000000 		.word	curve_secp192r1
 3178              		.cfi_endproc
ARM GAS  C:\Users\andrew\AppData\Local\Temp\ccN9Mpsj.s 			page 87


 3179              	.LFE31:
 3180              		.size	uECC_secp192r1, .-uECC_secp192r1
 3181              		.section	.text.vli_mmod_fast_secp192r1,"ax",%progbits
 3182              		.align	2
 3183              		.code	16
 3184              		.thumb_func
 3185              		.type	vli_mmod_fast_secp192r1, %function
 3186              	vli_mmod_fast_secp192r1:
 3187              	.LFB32:
 315:curve-specific.inc **** 
 316:curve-specific.inc **** #if (uECC_OPTIMIZATION_LEVEL > 0)
 317:curve-specific.inc **** /* Computes result = product % curve_p.
 318:curve-specific.inc ****    See algorithm 5 and 6 from http://www.isys.uni-klu.ac.at/PDF/2001-0126-MT.pdf */
 319:curve-specific.inc **** #if uECC_WORD_SIZE == 1
 320:curve-specific.inc **** static void vli_mmod_fast_secp192r1(uint8_t *result, uint8_t *product) {
 321:curve-specific.inc ****     uint8_t tmp[num_words_secp192r1];
 322:curve-specific.inc ****     uint8_t carry;
 323:curve-specific.inc ****     
 324:curve-specific.inc ****     uECC_vli_set(result, product, num_words_secp192r1);
 325:curve-specific.inc ****     
 326:curve-specific.inc ****     uECC_vli_set(tmp, &product[24], num_words_secp192r1);
 327:curve-specific.inc ****     carry = uECC_vli_add(result, result, tmp, num_words_secp192r1);
 328:curve-specific.inc ****     
 329:curve-specific.inc ****     tmp[0] = tmp[1] = tmp[2] = tmp[3] = tmp[4] = tmp[5] = tmp[6] = tmp[7] = 0;
 330:curve-specific.inc ****     tmp[8] = product[24]; tmp[9] = product[25]; tmp[10] = product[26]; tmp[11] = product[27];
 331:curve-specific.inc ****     tmp[12] = product[28]; tmp[13] = product[29]; tmp[14] = product[30]; tmp[15] = product[31];
 332:curve-specific.inc ****     tmp[16] = product[32]; tmp[17] = product[33]; tmp[18] = product[34]; tmp[19] = product[35];
 333:curve-specific.inc ****     tmp[20] = product[36]; tmp[21] = product[37]; tmp[22] = product[38]; tmp[23] = product[39];
 334:curve-specific.inc ****     carry += uECC_vli_add(result, result, tmp, num_words_secp192r1);
 335:curve-specific.inc ****     
 336:curve-specific.inc ****     tmp[0] = tmp[8] = product[40];
 337:curve-specific.inc ****     tmp[1] = tmp[9] = product[41];
 338:curve-specific.inc ****     tmp[2] = tmp[10] = product[42];
 339:curve-specific.inc ****     tmp[3] = tmp[11] = product[43];
 340:curve-specific.inc ****     tmp[4] = tmp[12] = product[44];
 341:curve-specific.inc ****     tmp[5] = tmp[13] = product[45];
 342:curve-specific.inc ****     tmp[6] = tmp[14] = product[46];
 343:curve-specific.inc ****     tmp[7] = tmp[15] = product[47];
 344:curve-specific.inc ****     tmp[16] = tmp[17] = tmp[18] = tmp[19] = tmp[20] = tmp[21] = tmp[22] = tmp[23] = 0;
 345:curve-specific.inc ****     carry += uECC_vli_add(result, result, tmp, num_words_secp192r1);
 346:curve-specific.inc ****     
 347:curve-specific.inc ****     while (carry || uECC_vli_cmp_unsafe(curve_secp192r1.p, result, num_words_secp192r1) != 1) {
 348:curve-specific.inc ****         carry -= uECC_vli_sub(result, result, curve_secp192r1.p, num_words_secp192r1);
 349:curve-specific.inc ****     }
 350:curve-specific.inc **** }
 351:curve-specific.inc **** #elif uECC_WORD_SIZE == 4
 352:curve-specific.inc **** static void vli_mmod_fast_secp192r1(uint32_t *result, uint32_t *product) {
 3188              		.loc 3 352 0
 3189              		.cfi_startproc
 3190              		@ args = 0, pretend = 0, frame = 40
 3191              		@ frame_needed = 0, uses_anonymous_args = 0
 3192 0000 00B5     		push	{lr}
 3193              		.cfi_def_cfa_offset 4
 3194              		.cfi_offset 14, -4
 3195 0002 8BB0     		sub	sp, sp, #44
 3196              		.cfi_def_cfa_offset 48
 3197 0004 0190     		str	r0, [sp, #4]
ARM GAS  C:\Users\andrew\AppData\Local\Temp\ccN9Mpsj.s 			page 88


 3198 0006 0091     		str	r1, [sp]
 353:curve-specific.inc ****     uint32_t tmp[num_words_secp192r1];
 354:curve-specific.inc ****     int carry;
 355:curve-specific.inc ****     
 356:curve-specific.inc ****     uECC_vli_set(result, product, num_words_secp192r1);
 3199              		.loc 3 356 0
 3200 0008 0099     		ldr	r1, [sp]
 3201 000a 019B     		ldr	r3, [sp, #4]
 3202 000c 0622     		movs	r2, #6
 3203 000e 1800     		movs	r0, r3
 3204 0010 FFF7FEFF 		bl	uECC_vli_set
 357:curve-specific.inc ****     
 358:curve-specific.inc ****     uECC_vli_set(tmp, &product[6], num_words_secp192r1);
 3205              		.loc 3 358 0
 3206 0014 009B     		ldr	r3, [sp]
 3207 0016 1833     		adds	r3, r3, #24
 3208 0018 1900     		movs	r1, r3
 3209 001a 03AB     		add	r3, sp, #12
 3210 001c 0622     		movs	r2, #6
 3211 001e 1800     		movs	r0, r3
 3212 0020 FFF7FEFF 		bl	uECC_vli_set
 359:curve-specific.inc ****     carry = uECC_vli_add(result, result, tmp, num_words_secp192r1);
 3213              		.loc 3 359 0
 3214 0024 03AA     		add	r2, sp, #12
 3215 0026 0199     		ldr	r1, [sp, #4]
 3216 0028 0198     		ldr	r0, [sp, #4]
 3217 002a 0623     		movs	r3, #6
 3218 002c FFF7FEFF 		bl	uECC_vli_add
 3219 0030 0300     		movs	r3, r0
 3220 0032 0993     		str	r3, [sp, #36]
 360:curve-specific.inc ****     
 361:curve-specific.inc ****     tmp[0] = tmp[1] = 0;
 3221              		.loc 3 361 0
 3222 0034 03AB     		add	r3, sp, #12
 3223 0036 0022     		movs	r2, #0
 3224 0038 5A60     		str	r2, [r3, #4]
 3225 003a 03AB     		add	r3, sp, #12
 3226 003c 5A68     		ldr	r2, [r3, #4]
 3227 003e 03AB     		add	r3, sp, #12
 3228 0040 1A60     		str	r2, [r3]
 362:curve-specific.inc ****     tmp[2] = product[6];
 3229              		.loc 3 362 0
 3230 0042 009B     		ldr	r3, [sp]
 3231 0044 9A69     		ldr	r2, [r3, #24]
 3232 0046 03AB     		add	r3, sp, #12
 3233 0048 9A60     		str	r2, [r3, #8]
 363:curve-specific.inc ****     tmp[3] = product[7];
 3234              		.loc 3 363 0
 3235 004a 009B     		ldr	r3, [sp]
 3236 004c DA69     		ldr	r2, [r3, #28]
 3237 004e 03AB     		add	r3, sp, #12
 3238 0050 DA60     		str	r2, [r3, #12]
 364:curve-specific.inc ****     tmp[4] = product[8];
 3239              		.loc 3 364 0
 3240 0052 009B     		ldr	r3, [sp]
 3241 0054 1A6A     		ldr	r2, [r3, #32]
 3242 0056 03AB     		add	r3, sp, #12
ARM GAS  C:\Users\andrew\AppData\Local\Temp\ccN9Mpsj.s 			page 89


 3243 0058 1A61     		str	r2, [r3, #16]
 365:curve-specific.inc ****     tmp[5] = product[9];
 3244              		.loc 3 365 0
 3245 005a 009B     		ldr	r3, [sp]
 3246 005c 5A6A     		ldr	r2, [r3, #36]
 3247 005e 03AB     		add	r3, sp, #12
 3248 0060 5A61     		str	r2, [r3, #20]
 366:curve-specific.inc ****     carry += uECC_vli_add(result, result, tmp, num_words_secp192r1);
 3249              		.loc 3 366 0
 3250 0062 03AA     		add	r2, sp, #12
 3251 0064 0199     		ldr	r1, [sp, #4]
 3252 0066 0198     		ldr	r0, [sp, #4]
 3253 0068 0623     		movs	r3, #6
 3254 006a FFF7FEFF 		bl	uECC_vli_add
 3255 006e 0200     		movs	r2, r0
 3256 0070 099B     		ldr	r3, [sp, #36]
 3257 0072 D318     		adds	r3, r2, r3
 3258 0074 0993     		str	r3, [sp, #36]
 367:curve-specific.inc ****     
 368:curve-specific.inc ****     tmp[0] = tmp[2] = product[10];
 3259              		.loc 3 368 0
 3260 0076 009B     		ldr	r3, [sp]
 3261 0078 9A6A     		ldr	r2, [r3, #40]
 3262 007a 03AB     		add	r3, sp, #12
 3263 007c 9A60     		str	r2, [r3, #8]
 3264 007e 03AB     		add	r3, sp, #12
 3265 0080 9A68     		ldr	r2, [r3, #8]
 3266 0082 03AB     		add	r3, sp, #12
 3267 0084 1A60     		str	r2, [r3]
 369:curve-specific.inc ****     tmp[1] = tmp[3] = product[11];
 3268              		.loc 3 369 0
 3269 0086 009B     		ldr	r3, [sp]
 3270 0088 DA6A     		ldr	r2, [r3, #44]
 3271 008a 03AB     		add	r3, sp, #12
 3272 008c DA60     		str	r2, [r3, #12]
 3273 008e 03AB     		add	r3, sp, #12
 3274 0090 DA68     		ldr	r2, [r3, #12]
 3275 0092 03AB     		add	r3, sp, #12
 3276 0094 5A60     		str	r2, [r3, #4]
 370:curve-specific.inc ****     tmp[4] = tmp[5] = 0;
 3277              		.loc 3 370 0
 3278 0096 03AB     		add	r3, sp, #12
 3279 0098 0022     		movs	r2, #0
 3280 009a 5A61     		str	r2, [r3, #20]
 3281 009c 03AB     		add	r3, sp, #12
 3282 009e 5A69     		ldr	r2, [r3, #20]
 3283 00a0 03AB     		add	r3, sp, #12
 3284 00a2 1A61     		str	r2, [r3, #16]
 371:curve-specific.inc ****     carry += uECC_vli_add(result, result, tmp, num_words_secp192r1);
 3285              		.loc 3 371 0
 3286 00a4 03AA     		add	r2, sp, #12
 3287 00a6 0199     		ldr	r1, [sp, #4]
 3288 00a8 0198     		ldr	r0, [sp, #4]
 3289 00aa 0623     		movs	r3, #6
 3290 00ac FFF7FEFF 		bl	uECC_vli_add
 3291 00b0 0200     		movs	r2, r0
 3292 00b2 099B     		ldr	r3, [sp, #36]
ARM GAS  C:\Users\andrew\AppData\Local\Temp\ccN9Mpsj.s 			page 90


 3293 00b4 D318     		adds	r3, r2, r3
 3294 00b6 0993     		str	r3, [sp, #36]
 372:curve-specific.inc ****     
 373:curve-specific.inc ****     while (carry || uECC_vli_cmp_unsafe(curve_secp192r1.p, result, num_words_secp192r1) != 1) {
 3295              		.loc 3 373 0
 3296 00b8 09E0     		b	.L129
 3297              	.L130:
 374:curve-specific.inc ****         carry -= uECC_vli_sub(result, result, curve_secp192r1.p, num_words_secp192r1);
 3298              		.loc 3 374 0
 3299 00ba 0C4A     		ldr	r2, .L131
 3300 00bc 0199     		ldr	r1, [sp, #4]
 3301 00be 0198     		ldr	r0, [sp, #4]
 3302 00c0 0623     		movs	r3, #6
 3303 00c2 FFF7FEFF 		bl	uECC_vli_sub
 3304 00c6 0200     		movs	r2, r0
 3305 00c8 099B     		ldr	r3, [sp, #36]
 3306 00ca 9B1A     		subs	r3, r3, r2
 3307 00cc 0993     		str	r3, [sp, #36]
 3308              	.L129:
 373:curve-specific.inc ****         carry -= uECC_vli_sub(result, result, curve_secp192r1.p, num_words_secp192r1);
 3309              		.loc 3 373 0
 3310 00ce 099B     		ldr	r3, [sp, #36]
 3311 00d0 002B     		cmp	r3, #0
 3312 00d2 F2D1     		bne	.L130
 373:curve-specific.inc ****         carry -= uECC_vli_sub(result, result, curve_secp192r1.p, num_words_secp192r1);
 3313              		.loc 3 373 0 is_stmt 0 discriminator 1
 3314 00d4 0199     		ldr	r1, [sp, #4]
 3315 00d6 054B     		ldr	r3, .L131
 3316 00d8 0622     		movs	r2, #6
 3317 00da 1800     		movs	r0, r3
 3318 00dc FFF7FEFF 		bl	uECC_vli_cmp_unsafe
 3319 00e0 0300     		movs	r3, r0
 3320 00e2 012B     		cmp	r3, #1
 3321 00e4 E9D1     		bne	.L130
 375:curve-specific.inc ****     }
 376:curve-specific.inc **** }
 3322              		.loc 3 376 0 is_stmt 1
 3323 00e6 C046     		nop
 3324 00e8 0BB0     		add	sp, sp, #44
 3325              		@ sp needed
 3326 00ea 00BD     		pop	{pc}
 3327              	.L132:
 3328              		.align	2
 3329              	.L131:
 3330 00ec B8000000 		.word	curve_secp192r1+4
 3331              		.cfi_endproc
 3332              	.LFE32:
 3333              		.size	vli_mmod_fast_secp192r1, .-vli_mmod_fast_secp192r1
 3334              		.section	.rodata
 3335              		.align	2
 3336              		.type	curve_secp224r1, %object
 3337              		.size	curve_secp224r1, 180
 3338              	curve_secp224r1:
 3339 0168 07       		.byte	7
 3340 0169 1C       		.byte	28
 3341 016a E000     		.short	224
 3342 016c 01000000 		.word	1
ARM GAS  C:\Users\andrew\AppData\Local\Temp\ccN9Mpsj.s 			page 91


 3343 0170 00000000 		.word	0
 3344 0174 00000000 		.word	0
 3345 0178 FFFFFFFF 		.word	-1
 3346 017c FFFFFFFF 		.word	-1
 3347 0180 FFFFFFFF 		.word	-1
 3348 0184 FFFFFFFF 		.word	-1
 3349 0188 00000000 		.space	4
 3350 018c 3D2A5C5C 		.word	1549543997
 3351 0190 4529DD13 		.word	333261125
 3352 0194 3EF0B8E0 		.word	-524750786
 3353 0198 A216FFFF 		.word	-59742
 3354 019c FFFFFFFF 		.word	-1
 3355 01a0 FFFFFFFF 		.word	-1
 3356 01a4 FFFFFFFF 		.word	-1
 3357 01a8 00000000 		.space	4
 3358 01ac 211D5C11 		.word	291249441
 3359 01b0 D6803234 		.word	875725014
 3360 01b4 2211C256 		.word	1455558946
 3361 01b8 D3C1034A 		.word	1241760211
 3362 01bc B9901332 		.word	840143033
 3363 01c0 7FBFB46B 		.word	1807007615
 3364 01c4 BD0C0EB7 		.word	-1223816003
 3365 01c8 347E0085 		.word	-2063565260
 3366 01cc 9981D544 		.word	1154843033
 3367 01d0 6447075A 		.word	1510426468
 3368 01d4 A07543CD 		.word	-851216992
 3369 01d8 E6DF224C 		.word	1277353958
 3370 01dc FB23F7B5 		.word	-1242094597
 3371 01e0 886337BD 		.word	-1120443512
 3372 01e4 00000000 		.space	8
 3372      00000000 
 3373 01ec B4FF5523 		.word	592838580
 3374 01f0 43390B27 		.word	655046979
 3375 01f4 BAD8BFD7 		.word	-675292998
 3376 01f8 B7B04450 		.word	1346678967
 3377 01fc 563241F5 		.word	-180276650
 3378 0200 ABB3040C 		.word	201634731
 3379 0204 850A05B4 		.word	-1274738043
 3380 0208 00000000 		.space	4
 3381 020c 00000000 		.word	double_jacobian_default
 3382 0210 00000000 		.word	mod_sqrt_secp224r1
 3383 0214 00000000 		.word	x_side_default
 3384 0218 00000000 		.word	vli_mmod_fast_secp224r1
 3385              		.section	.text.uECC_secp224r1,"ax",%progbits
 3386              		.align	2
 3387              		.global	uECC_secp224r1
 3388              		.code	16
 3389              		.thumb_func
 3390              		.type	uECC_secp224r1, %function
 3391              	uECC_secp224r1:
 3392              	.LFB33:
 377:curve-specific.inc **** #else
 378:curve-specific.inc **** static void vli_mmod_fast_secp192r1(uint64_t *result, uint64_t *product) {
 379:curve-specific.inc ****     uint64_t tmp[num_words_secp192r1];
 380:curve-specific.inc ****     int carry;
 381:curve-specific.inc ****     
 382:curve-specific.inc ****     uECC_vli_set(result, product, num_words_secp192r1);
ARM GAS  C:\Users\andrew\AppData\Local\Temp\ccN9Mpsj.s 			page 92


 383:curve-specific.inc ****     
 384:curve-specific.inc ****     uECC_vli_set(tmp, &product[3], num_words_secp192r1);
 385:curve-specific.inc ****     carry = (int)uECC_vli_add(result, result, tmp, num_words_secp192r1);
 386:curve-specific.inc ****     
 387:curve-specific.inc ****     tmp[0] = 0;
 388:curve-specific.inc ****     tmp[1] = product[3];
 389:curve-specific.inc ****     tmp[2] = product[4];
 390:curve-specific.inc ****     carry += uECC_vli_add(result, result, tmp, num_words_secp192r1);
 391:curve-specific.inc ****     
 392:curve-specific.inc ****     tmp[0] = tmp[1] = product[5];
 393:curve-specific.inc ****     tmp[2] = 0;
 394:curve-specific.inc ****     carry += uECC_vli_add(result, result, tmp, num_words_secp192r1);
 395:curve-specific.inc ****     
 396:curve-specific.inc ****     while (carry || uECC_vli_cmp_unsafe(curve_secp192r1.p, result, num_words_secp192r1) != 1) {
 397:curve-specific.inc ****         carry -= uECC_vli_sub(result, result, curve_secp192r1.p, num_words_secp192r1);
 398:curve-specific.inc ****     }
 399:curve-specific.inc **** }
 400:curve-specific.inc **** #endif /* uECC_WORD_SIZE */
 401:curve-specific.inc **** #endif /* (uECC_OPTIMIZATION_LEVEL > 0) */
 402:curve-specific.inc **** 
 403:curve-specific.inc **** #endif /* uECC_SUPPORTS_secp192r1 */
 404:curve-specific.inc **** 
 405:curve-specific.inc **** #if uECC_SUPPORTS_secp224r1
 406:curve-specific.inc **** 
 407:curve-specific.inc **** #if uECC_SUPPORT_COMPRESSED_POINT
 408:curve-specific.inc **** static void mod_sqrt_secp224r1(uECC_word_t *a, uECC_Curve curve);
 409:curve-specific.inc **** #endif
 410:curve-specific.inc **** #if (uECC_OPTIMIZATION_LEVEL > 0)
 411:curve-specific.inc **** static void vli_mmod_fast_secp224r1(uECC_word_t *result, uECC_word_t *product);
 412:curve-specific.inc **** #endif
 413:curve-specific.inc **** 
 414:curve-specific.inc **** static const struct uECC_Curve_t curve_secp224r1 = {
 415:curve-specific.inc ****     num_words_secp224r1,
 416:curve-specific.inc ****     num_bytes_secp224r1,
 417:curve-specific.inc ****     224, /* num_n_bits */
 418:curve-specific.inc ****     { BYTES_TO_WORDS_8(01, 00, 00, 00, 00, 00, 00, 00),
 419:curve-specific.inc ****         BYTES_TO_WORDS_8(00, 00, 00, 00, FF, FF, FF, FF),
 420:curve-specific.inc ****         BYTES_TO_WORDS_8(FF, FF, FF, FF, FF, FF, FF, FF),
 421:curve-specific.inc ****         BYTES_TO_WORDS_4(FF, FF, FF, FF) },
 422:curve-specific.inc ****     { BYTES_TO_WORDS_8(3D, 2A, 5C, 5C, 45, 29, DD, 13),
 423:curve-specific.inc ****         BYTES_TO_WORDS_8(3E, F0, B8, E0, A2, 16, FF, FF),
 424:curve-specific.inc ****         BYTES_TO_WORDS_8(FF, FF, FF, FF, FF, FF, FF, FF),
 425:curve-specific.inc ****         BYTES_TO_WORDS_4(FF, FF, FF, FF) },
 426:curve-specific.inc ****     { BYTES_TO_WORDS_8(21, 1D, 5C, 11, D6, 80, 32, 34),
 427:curve-specific.inc ****         BYTES_TO_WORDS_8(22, 11, C2, 56, D3, C1, 03, 4A),
 428:curve-specific.inc ****         BYTES_TO_WORDS_8(B9, 90, 13, 32, 7F, BF, B4, 6B),
 429:curve-specific.inc ****         BYTES_TO_WORDS_4(BD, 0C, 0E, B7),
 430:curve-specific.inc **** 
 431:curve-specific.inc ****         BYTES_TO_WORDS_8(34, 7E, 00, 85, 99, 81, D5, 44),
 432:curve-specific.inc ****         BYTES_TO_WORDS_8(64, 47, 07, 5A, A0, 75, 43, CD),
 433:curve-specific.inc ****         BYTES_TO_WORDS_8(E6, DF, 22, 4C, FB, 23, F7, B5),
 434:curve-specific.inc ****         BYTES_TO_WORDS_4(88, 63, 37, BD) },
 435:curve-specific.inc ****     { BYTES_TO_WORDS_8(B4, FF, 55, 23, 43, 39, 0B, 27),
 436:curve-specific.inc ****         BYTES_TO_WORDS_8(BA, D8, BF, D7, B7, B0, 44, 50),
 437:curve-specific.inc ****         BYTES_TO_WORDS_8(56, 32, 41, F5, AB, B3, 04, 0C),
 438:curve-specific.inc ****         BYTES_TO_WORDS_4(85, 0A, 05, B4) },
 439:curve-specific.inc ****     &double_jacobian_default,
ARM GAS  C:\Users\andrew\AppData\Local\Temp\ccN9Mpsj.s 			page 93


 440:curve-specific.inc **** #if uECC_SUPPORT_COMPRESSED_POINT
 441:curve-specific.inc ****     &mod_sqrt_secp224r1,
 442:curve-specific.inc **** #endif
 443:curve-specific.inc ****     &x_side_default,
 444:curve-specific.inc **** #if (uECC_OPTIMIZATION_LEVEL > 0)
 445:curve-specific.inc ****     &vli_mmod_fast_secp224r1
 446:curve-specific.inc **** #endif
 447:curve-specific.inc **** };
 448:curve-specific.inc **** 
 449:curve-specific.inc **** uECC_Curve uECC_secp224r1(void) { return &curve_secp224r1; }
 3393              		.loc 3 449 0
 3394              		.cfi_startproc
 3395              		@ args = 0, pretend = 0, frame = 0
 3396              		@ frame_needed = 0, uses_anonymous_args = 0
 3397              		@ link register save eliminated.
 3398              		.loc 3 449 0
 3399 0000 014B     		ldr	r3, .L135
 3400 0002 1800     		movs	r0, r3
 3401              		@ sp needed
 3402 0004 7047     		bx	lr
 3403              	.L136:
 3404 0006 C046     		.align	2
 3405              	.L135:
 3406 0008 68010000 		.word	curve_secp224r1
 3407              		.cfi_endproc
 3408              	.LFE33:
 3409              		.size	uECC_secp224r1, .-uECC_secp224r1
 3410              		.section	.text.mod_sqrt_secp224r1_rs,"ax",%progbits
 3411              		.align	2
 3412              		.code	16
 3413              		.thumb_func
 3414              		.type	mod_sqrt_secp224r1_rs, %function
 3415              	mod_sqrt_secp224r1_rs:
 3416              	.LFB34:
 450:curve-specific.inc **** 
 451:curve-specific.inc **** 
 452:curve-specific.inc **** #if uECC_SUPPORT_COMPRESSED_POINT
 453:curve-specific.inc **** /* Routine 3.2.4 RS;  from http://www.nsa.gov/ia/_files/nist-routines.pdf */
 454:curve-specific.inc **** static void mod_sqrt_secp224r1_rs(uECC_word_t *d1,
 455:curve-specific.inc ****                                   uECC_word_t *e1,
 456:curve-specific.inc ****                                   uECC_word_t *f1,
 457:curve-specific.inc ****                                   const uECC_word_t *d0,
 458:curve-specific.inc ****                                   const uECC_word_t *e0,
 459:curve-specific.inc ****                                   const uECC_word_t *f0) {
 3417              		.loc 3 459 0
 3418              		.cfi_startproc
 3419              		@ args = 8, pretend = 0, frame = 48
